 gamex86

 Timestamp is 469e731e (Wed Jul 18 16:07:58 2007)

 Preferred load address is 10000000

 Start         Length     Name                   Class
 0001:00000000 001bbad8H .text                   CODE
 0001:001bbae0 0000626dH .text$x                 CODE
 0001:001c1d50 0000d91fH .text$yc                CODE
 0001:001cf670 00001ccfH .text$yd                CODE
 0002:00000000 0000013cH .idata$5                DATA
 0002:0000013c 00000004H .CRT$XCA                DATA
 0002:00000140 000011e8H .CRT$XCU                DATA
 0002:00001328 00000004H .CRT$XCZ                DATA
 0002:0000132c 00000004H .CRT$XIA                DATA
 0002:00001330 00000014H .CRT$XIC                DATA
 0002:00001344 00000004H .CRT$XIY                DATA
 0002:00001348 00000004H .CRT$XIZ                DATA
 0002:0000134c 00000004H .CRT$XPA                DATA
 0002:00001350 00000004H .CRT$XPX                DATA
 0002:00001354 00000004H .CRT$XPXA               DATA
 0002:00001358 00000004H .CRT$XPZ                DATA
 0002:0000135c 00000004H .CRT$XTA                DATA
 0002:00001360 00000004H .CRT$XTB                DATA
 0002:00001364 00000004H .CRT$XTZ                DATA
 0002:00001370 0002e600H .rdata                  DATA
 0002:0002f970 00000042H .rdata$debug            DATA
 0002:0002f9b4 00003fa0H .rdata$r                DATA
 0002:00033960 00000734H .rdata$sxdata           DATA
 0002:00034094 00000004H .rtc$IAA                DATA
 0002:00034098 00000004H .rtc$IZZ                DATA
 0002:0003409c 00000004H .rtc$TAA                DATA
 0002:000340a0 00000004H .rtc$TZZ                DATA
 0002:000340a8 000092ccH .xdata$x                DATA
 0002:0003d374 00000028H .idata$2                DATA
 0002:0003d39c 00000014H .idata$3                DATA
 0002:0003d3b0 0000013cH .idata$4                DATA
 0002:0003d4ec 0000058aH .idata$6                DATA
 0002:0003da80 00000049H .edata                  DATA
 0003:00000000 0000a1d8H .data                   DATA
 0003:0000a1e0 00353b04H .bss                    DATA

  Address         Publics by Value              Rva+Base       Lib:Object

 0000:00000000       __except_list              00000000     <absolute>
 0000:000001cd       ___safe_se_handler_count   000001cd     <absolute>
 0000:00000000       ___ImageBase               10000000     <linker-defined>
 0001:00000000       ?IsLoaded@idAF@@QBE_NXZ    10001000 f i Actor.obj
 0001:00000020       ?Restore@idAnimState@@QAEXPAVidRestoreGame@@@Z 10001020 f   Actor.obj
 0001:000000a0       ?Init@idAnimState@@QAEXPAVidActor@@PAVidAnimator@@H@Z 100010a0 f   Actor.obj
 0001:00000140       ?StopAnim@idAnimState@@QAEXH@Z 10001140 f   Actor.obj
 0001:00000180       ?PlayAnim@idAnimState@@QAEXH@Z 10001180 f   Actor.obj
 0001:000001d0       ?CycleAnim@idAnimState@@QAEXH@Z 100011d0 f   Actor.obj
 0001:00000220       ?BecomeIdle@idAnimState@@QAEXXZ 10001220 f   Actor.obj
 0001:00000230       ?Disabled@idAnimState@@QBE_NXZ 10001230 f   Actor.obj
 0001:00000240       ?AnimDone@idAnimState@@QBE_NH@Z 10001240 f   Actor.obj
 0001:00000290       ?IsIdle@idAnimState@@QBE_NXZ 10001290 f   Actor.obj
 0001:000002b0       ?GetAnimFlags@idAnimState@@QBE?AUanimFlags_t@@XZ 100012b0 f   Actor.obj
 0001:00000310       ?GetType@idActor@@UBEPAVidTypeInfo@@XZ 10001310 f   Actor.obj
 0001:00000320       ?GetDefaultSurfaceType@idActor@@UBEHXZ 10001320 f   Actor.obj
 0001:00000330       ?ShutdownThreads@idActor@@QAEXXZ 10001330 f   Actor.obj
 0001:000003c0       ?GetScriptFunction@idActor@@QAEPBVfunction_t@@PBD@Z 100013c0 f   Actor.obj
 0001:00000410       ?SetEyeHeight@idActor@@QAEXM@Z 10001410 f   Actor.obj
 0001:00000420       ?EyeHeight@idActor@@QBEMXZ 10001420 f   Actor.obj
 0001:00000430       ?EyeOffset@idActor@@QBE?AVidVec3@@XZ 10001430 f   Actor.obj
 0001:00000480       ?GetEyePosition@idActor@@QBE?AVidVec3@@XZ 10001480 f   Actor.obj
 0001:00000510       ?StopRagdoll@idActor@@QAEXXZ 10001510 f   Actor.obj
 0001:00000530       ?UpdateAnimationControllers@idActor@@UAE_NXZ 10001530 f   Actor.obj
 0001:00000570       ?GetDeltaViewAngles@idActor@@QBEABVidAngles@@XZ 10001570 f   Actor.obj
 0001:00000580       ?SetWaitState@idActor@@QAEXPBD@Z 10001580 f   Actor.obj
 0001:00000590       ?ClearPain@idActor@@QAEXXZ 10001590 f   Actor.obj
 0001:000005a0       ?Event_EnableEyeFocus@idActor@@AAEXXZ 100015a0 f   Actor.obj
 0001:00000610       ?Event_EnableWalkIK@idActor@@AAEXXZ 10001610 f   Actor.obj
 0001:00000620       ?Event_DisableWalkIK@idActor@@AAEXXZ 10001620 f   Actor.obj
 0001:00000630       ?Event_EnableLegIK@idActor@@AAEXH@Z 10001630 f   Actor.obj
 0001:00000640       ?Event_DisableLegIK@idActor@@AAEXH@Z 10001640 f   Actor.obj
 0001:00000650       ?Event_PreventPain@idActor@@AAEXM@Z 10001650 f   Actor.obj
 0001:00000680       ?Event_DisablePain@idActor@@AAEXXZ 10001680 f   Actor.obj
 0001:00000690       ?Event_EnablePain@idActor@@AAEXXZ 10001690 f   Actor.obj
 0001:000006a0       ?Event_SetAnimPrefix@idActor@@AAEXPBD@Z 100016a0 f   Actor.obj
 0001:000006b0       ??_H@YGXPAXIHP6EPAX0@Z@Z   100016b0 f i Actor.obj
 0001:000006f0       ?Event_GetBlendFrames@idActor@@AAEXH@Z 100016f0 f   Actor.obj
 0001:00000750       ?Event_AnimDone@idActor@@AAEXHH@Z 10001750 f   Actor.obj
 0001:000007e0       ?Event_SetNextState@idActor@@AAEXPBD@Z 100017e0 f   Actor.obj
 0001:00000840       ?Event_SetState@idActor@@AAEXPBD@Z 10001840 f   Actor.obj
 0001:000008c0       ?Event_GetState@idActor@@AAEXXZ 100018c0 f   Actor.obj
 0001:000008f0       ??4idMat3@@QAEAAV0@ABV0@@Z 100018f0 f i Actor.obj
 0001:00000930       ??0?$idEntityPtr@VidEntity@@@@QAE@XZ 10001930 f i Actor.obj
 0001:00000930       ??0beamTarget_t@@QAE@XZ    10001930 f i Projectile.obj
 0001:00000930       ??0idAttachInfo@@QAE@XZ    10001930 f i Actor.obj
 0001:00000940       ??1idHashIndex@@QAE@XZ     10001940 f i Actor.obj
 0001:00000950       ??1idAnimState@@QAE@XZ     10001950 f   Actor.obj
 0001:000009b0       ?Save@idAnimState@@QBEXPAVidSaveGame@@@Z 100019b0 f   Actor.obj
 0001:00000a30       ?SetState@idAnimState@@QAEXPBDH@Z 10001a30 f   Actor.obj
 0001:00000ae0       ?UpdateState@idAnimState@@QAE_NXZ 10001ae0 f   Actor.obj
 0001:00000b30       ?CopyJointsFromBodyToHead@idActor@@IAEXXZ 10001b30 f   Actor.obj
 0001:00000e10       ?Save@idActor@@QBEXPAVidSaveGame@@@Z 10001e10 f   Actor.obj
 0001:00001300       ?Hide@idActor@@UAEXXZ      10002300 f   Actor.obj
 0001:000013c0       ?Show@idActor@@UAEXXZ      100023c0 f   Actor.obj
 0001:00001480       ?ProjectOverlay@idActor@@UAEXABVidVec3@@0MPBD@Z 10002480 f   Actor.obj
 0001:00001530       ?SetupBody@idActor@@QAEXXZ 10002530 f   Actor.obj
 0001:00001940       ?CheckBlink@idActor@@QAEXXZ 10002940 f   Actor.obj
 0001:00001a30       ?GetPhysicsToVisualTransform@idActor@@UAE_NAAVidVec3@@AAVidMat3@@@Z 10002a30 f   Actor.obj
 0001:00001ad0       ?ConstructScriptObject@idActor@@UAEPAVidThread@@XZ 10002ad0 f   Actor.obj
 0001:00001bf0       ?SetState@idActor@@QAEXPBVfunction_t@@@Z 10002bf0 f   Actor.obj
 0001:00001c70       ?SetState@idActor@@QAEXPBD@Z 10002c70 f   Actor.obj
 0001:00001cc0       ?UpdateScript@idActor@@QAEXXZ 10002cc0 f   Actor.obj
 0001:00001d60       ?GetViewPos@idActor@@UBEXAAVidVec3@@AAVidMat3@@@Z 10002d60 f   Actor.obj
 0001:00001de0       ?CheckFOV@idActor@@QBE_NABVidVec3@@@Z 10002de0 f   Actor.obj
 0001:00001fa0       ?GetAIAimTargets@idActor@@UAEXABVidVec3@@AAV2@1@Z 10002fa0 f   Actor.obj
 0001:000020e0       ?GetRenderView@idActor@@UAEPAUrenderView_s@@XZ 100030e0 f   Actor.obj
 0001:00002170       ?SetCombatModel@idActor@@QAEXXZ 10003170 f   Actor.obj
 0001:00002240       ?LinkCombat@idActor@@UAEXXZ 10003240 f   Actor.obj
 0001:000022c0       ?UnlinkCombat@idActor@@UAEXXZ 100032c0 f   Actor.obj
 0001:00002310       ?RemoveAttachments@idActor@@IAEXXZ 10003310 f   Actor.obj
 0001:000023a0       ?Teleport@idActor@@UAEXABVidVec3@@ABVidAngles@@PAVidEntity@@@Z 100033a0 f   Actor.obj
 0001:00002480       ?SetDeltaViewAngles@idActor@@QAEXABVidAngles@@@Z 10003480 f   Actor.obj
 0001:000024b0       ?HasEnemies@idActor@@QBE_NXZ 100034b0 f   Actor.obj
 0001:00002500       ?ClosestEnemyToPoint@idActor@@QAEPAV1@ABVidVec3@@@Z 10003500 f   Actor.obj
 0001:000025f0       ?EnemyWithMostHealth@idActor@@QAEPAV1@XZ 100035f0 f   Actor.obj
 0001:00002650       ?GetAASLocation@idActor@@UBEXPAVidAAS@@AAVidVec3@@AAH@Z 10003650 f   Actor.obj
 0001:00002720       ?SetAnimState@idActor@@QAEXHPBDH@Z 10003720 f   Actor.obj
 0001:00002830       ?InAnimState@idActor@@QBE_NHPBD@Z 10003830 f   Actor.obj
 0001:000028a0       ?WaitState@idActor@@QBEPBDXZ 100038a0 f   Actor.obj
 0001:000028c0       ?UpdateAnimState@idActor@@QAEXXZ 100038c0 f   Actor.obj
 0001:000028f0       ?GetAnim@idActor@@QAEHHPBD@Z 100038f0 f   Actor.obj
 0001:000029b0       ?SyncAnimChannels@idActor@@AAEXHHH@Z 100039b0 f   Actor.obj
 0001:00002c00       ?Gib@idActor@@MAEXABVidVec3@@PBD@Z 10003c00 f   Actor.obj
 0001:00002c90       ?SpawnGibs@idActor@@UAEXABVidVec3@@PBD@Z 10003c90 f   Actor.obj
 0001:00002cb0       ?GetDamageForLocation@idActor@@QAEHHH@Z 10003cb0 f   Actor.obj
 0001:00002d00       ?GetDamageGroup@idActor@@QAEPBDH@Z 10003d00 f   Actor.obj
 0001:00002d30       ?PlayFootStepSound@idActor@@AAEXXZ 10003d30 f   Actor.obj
 0001:00002de0       ?Event_DisableEyeFocus@idActor@@AAEXXZ 10003de0 f   Actor.obj
 0001:00002e40       ?Event_Footstep@idActor@@AAEXXZ 10003e40 f   Actor.obj
 0001:00002e50       ?Event_GetPainAnim@idActor@@AAEXXZ 10003e50 f   Actor.obj
 0001:00002e80       ?Event_StopAnim@idActor@@AAEXHH@Z 10003e80 f   Actor.obj
 0001:00002f70       ?Event_PlayAnim@idActor@@AAEXHPBD@Z 10003f70 f   Actor.obj
 0001:000032b0       ?Event_PlayCycle@idActor@@AAEXHPBD@Z 100042b0 f   Actor.obj
 0001:000035d0       ?Event_IdleAnim@idActor@@AAEXHPBD@Z 100045d0 f   Actor.obj
 0001:000039f0       ?Event_SetSyncedAnimWeight@idActor@@AAEXHHM@Z 100049f0 f   Actor.obj
 0001:00003ba0       ?Event_OverrideAnim@idActor@@AAEXH@Z 10004ba0 f   Actor.obj
 0001:00003d40       ?Event_EnableAnim@idActor@@AAEXHH@Z 10004d40 f   Actor.obj
 0001:00003e00       ?Event_SetBlendFrames@idActor@@AAEXHH@Z 10004e00 f   Actor.obj
 0001:00003ef0       ?Event_AnimState@idActor@@AAEXHPBDH@Z 10004ef0 f   Actor.obj
 0001:00003f90       ?Event_GetAnimState@idActor@@AAEXH@Z 10004f90 f   Actor.obj
 0001:00004000       ?Event_InAnimState@idActor@@AAEXHPBD@Z 10005000 f   Actor.obj
 0001:00004020       ?Event_FinishAction@idActor@@AAEXPBD@Z 10005020 f   Actor.obj
 0001:000040b0       ?Event_HasAnim@idActor@@AAEXHPBD@Z 100050b0 f   Actor.obj
 0001:000040f0       ?Event_CheckAnim@idActor@@AAEXHPBD@Z 100050f0 f   Actor.obj
 0001:00004150       ?Event_ChooseAnim@idActor@@AAEXHPBD@Z 10005150 f   Actor.obj
 0001:00004210       ?Event_AnimLength@idActor@@AAEXHPBD@Z 10005210 f   Actor.obj
 0001:00004310       ?Event_AnimDistance@idActor@@AAEXHPBD@Z 10005310 f   Actor.obj
 0001:00004500       ?Event_HasEnemies@idActor@@AAEXXZ 10005500 f   Actor.obj
 0001:00004510       ?Event_NextEnemy@idActor@@AAEXPAVidEntity@@@Z 10005510 f   Actor.obj
 0001:000045e0       ?Event_ClosestEnemyToPoint@idActor@@AAEXABVidVec3@@@Z 100055e0 f   Actor.obj
 0001:00004600       ?Event_StopSound@idActor@@AAEXHH@Z 10005600 f   Actor.obj
 0001:00004660       ?Event_GetHead@idActor@@AAEXXZ 10005660 f   Actor.obj
 0001:000046a0       ??1?$idList@PAVidAAS@@@@QAE@XZ 100056a0 f i Game_local.obj
 0001:000046a0       ??1?$idList@UjointAnimInfo_t@@@@QAE@XZ 100056a0 f i Anim.obj
 0001:000046a0       ??1?$idList@PAVidVarDefName@@@@QAE@XZ 100056a0 f i Script_Program.obj
 0001:000046a0       ??1?$idList@PAVidThread@@@@QAE@XZ 100056a0 f i Game_local.obj
 0001:000046a0       ??1?$idList@UidFXLocalAction@@@@QAE@XZ 100056a0 f i Fx.obj
 0001:000046a0       ??1?$idList@VidKeyValue@@@@QAE@XZ 100056a0 f i Actor.obj
 0001:000046a0       ??1?$idList@UcameraFrame_t@@@@QAE@XZ 100056a0 f i Camera.obj
 0001:000046a0       ??1?$idList@_N@@QAE@XZ     100056a0 f i BrittleFracture.obj
 0001:000046a0       ??1?$idList@VidAFPoseJointMod@@@@QAE@XZ 100056a0 f i Anim_Blend.obj
 0001:000046a0       ??1?$idList@PAVidPoolStr@@@@QAE@XZ 100056a0 f i idLib:Dict.obj
 0001:000046a0       ??1?$idList@UjointConversion_s@@@@QAE@XZ 100056a0 f i AF.obj
 0001:000046a0       ??1?$idList@PAVidAFTree@@@@QAE@XZ 100056a0 f i Physics_AF.obj
 0001:000046a0       ??1?$idList@PAVidVarDef@@@@QAE@XZ 100056a0 f i Script_Program.obj
 0001:000046a0       ??1?$idList@PAVidRoutingObstacle@@@@QAE@XZ 100056a0 f i AAS.obj
 0001:000046a0       ??1?$idList@PBVfunction_t@@@@QAE@XZ 100056a0 f i Script_Compiler.obj
 0001:000046a0       ??1?$idList@M@@QAE@XZ      100056a0 f i Actor.obj
 0001:000046a0       ??1?$idList@PAVidRenderModel@@@@QAE@XZ 100056a0 f i AFEntity.obj
 0001:000046a0       ??1?$idList@UaasLocation_t@@@@QAE@XZ 100056a0 f i Player.obj
 0001:000046a0       ??1?$idList@PAVidFixedWinding@@@@QAE@XZ 100056a0 f i BrittleFracture.obj
 0001:000046a0       ??1?$idList@V?$idEntityPtr@VidEntity@@@@@@QAE@XZ 100056a0 f i Entity.obj
 0001:000046a0       ??1?$idList@PAVidTypeDef@@@@QAE@XZ 100056a0 f i Script_Compiler.obj
 0001:000046a0       ??1?$idList@PAUjointMod_t@@@@QAE@XZ 100056a0 f i Anim_Blend.obj
 0001:000046a0       ??1?$idList@UparticleEmitter_s@@@@QAE@XZ 100056a0 f i AI.obj
 0001:000046a0       ??1?$idList@Usignal_t@@@@QAE@XZ 100056a0 f i Entity.obj
 0001:000046a0       ??1?$idList@UstaticPState_s@@@@QAE@XZ 100056a0 f i Physics_StaticMulti.obj
 0001:000046a0       ??1?$idList@VidBounds@@@@QAE@XZ 100056a0 f i Anim.obj
 0001:000046a0       ??1?$idList@UsurfaceEdge_s@@@@QAE@XZ 100056a0 f i idLib:MapFile.obj
 0001:000046a0       ??1?$idList@UcontactInfo_t@@@@QAE@XZ 100056a0 f i Physics_Base.obj
 0001:000046a0       ??1?$idList@PAVidMD5Anim@@@@QAE@XZ 100056a0 f i Anim.obj
 0001:000046a0       ??1?$idList@PAVidDict@@@@QAE@XZ 100056a0 f i Player.obj
 0001:000046a0       ??1?$idList@UjointInfo_t@@@@QAE@XZ 100056a0 f i Anim_Blend.obj
 0001:000046a0       ??1?$idList@PAVidAFConstraint@@@@QAE@XZ 100056a0 f i Physics_AF.obj
 0001:000046a0       ??1?$idList@PAVidAFBody@@@@QAE@XZ 100056a0 f i Physics_AF.obj
 0001:000046a0       ??1?$idList@VidVec3@@@@QAE@XZ 100056a0 f i Entity.obj
 0001:000046a0       ??1?$idList@W4jointHandle_t@@@@QAE@XZ 100056a0 f i Actor.obj
 0001:000046a0       ??1?$idList@PAVidClipModel@@@@QAE@XZ 100056a0 f i Physics_StaticMulti.obj
 0001:000046a0       ??1?$idList@PAVidMapBrushSide@@@@QAE@XZ 100056a0 f i idLib:MapFile.obj
 0001:000046a0       ??1?$idList@UframeCommand_t@@@@QAE@XZ 100056a0 f i Anim_Blend.obj
 0001:000046a0       ??1?$idList@VidJointQuat@@@@QAE@XZ 100056a0 f i Anim.obj
 0001:000046a0       ??1?$idList@VidDrawVert@@@@QAE@XZ 100056a0 f i idLib:MapFile.obj
 0001:000046a0       ??1?$idList@PAVidMapEntity@@@@QAE@XZ 100056a0 f i Game_local.obj
 0001:000046a0       ??1?$idList@PAVidEntity@@@@QAE@XZ 100056a0 f i AFEntity.obj
 0001:000046a0       ??1?$idList@H@@QAE@XZ      100056a0 f i AF.obj
 0001:000046a0       ??1?$idList@UbeamTarget_t@@@@QAE@XZ 100056a0 f i Projectile.obj
 0001:000046a0       ??1?$idList@UframeLookup_t@@@@QAE@XZ 100056a0 f i Anim_Blend.obj
 0001:000046a0       ??1?$idList@UAFCollision_s@@@@QAE@XZ 100056a0 f i Physics_AF.obj
 0001:000046a0       ??1?$idList@PBVidClass@@@@QAE@XZ 100056a0 f i SaveGame.obj
 0001:000046a0       ??1?$idList@PAVidMapPrimitive@@@@QAE@XZ 100056a0 f i Game_local.obj
 0001:000046a0       ??1?$idList@PAVidAnim@@@@QAE@XZ 100056a0 f i Anim_Blend.obj
 0001:000046a0       ??1?$idList@UcopyJoints_t@@@@QAE@XZ 100056a0 f i Actor.obj
 0001:000046a0       ??1?$idList@VidAngles@@@@QAE@XZ 100056a0 f i AI.obj
 0001:000046a0       ??1?$idList@VidAttachInfo@@@@QAE@XZ 100056a0 f i Actor.obj
 0001:000046a0       ??1?$idList@PAUshard_s@@@@QAE@XZ 100056a0 f i BrittleFracture.obj
 0001:000046a0       ??1?$idList@PAVidAFConstraint_Contact@@@@QAE@XZ 100056a0 f i Physics_AF.obj
 0001:000046d0       ??0idDict@@QAE@XZ          100056d0 f i Actor.obj
 0001:000047e0       ??1idDict@@QAE@XZ          100057e0 f i Actor.obj
 0001:00004860       ?FinishSetup@idActor@@AAEXXZ 10005860 f   Actor.obj
 0001:000048c0       ?LoadAF@idActor@@UAE_NXZ   100058c0 f   Actor.obj
 0001:000049d0       ?GetPhysicsToSoundTransform@idActor@@UAE_NAAVidVec3@@AAVidMat3@@@Z 100059d0 f   Actor.obj
 0001:00004b30       ?CanSee@idActor@@QBE_NPAVidEntity@@_N@Z 10005b30 f   Actor.obj
 0001:00004c40       ?StartRagdoll@idActor@@QAE_NXZ 10005c40 f   Actor.obj
 0001:00004f10       ?Damage@idActor@@UAEXPAVidEntity@@0ABVidVec3@@PBDMH@Z 10005f10 f   Actor.obj
 0001:00005110       ?Pain@idActor@@UAE_NPAVidEntity@@0HABVidVec3@@H@Z 10006110 f   Actor.obj
 0001:00005420       ?ClientReceiveEvent@idActor@@UAE_NHHABVidBitMsg@@@Z 10006420 f   Actor.obj
 0001:00005690       ??1?$idLinkList@VidEvent@@@@QAE@XZ 10006690 f i Event.obj
 0001:00005690       ??1?$idLinkList@VidActor@@@@QAE@XZ 10006690 f i Actor.obj
 0001:00005690       ??1?$idLinkList@VidEntity@@@@QAE@XZ 10006690 f i Entity.obj
 0001:000056a0       ?AddToEnd@?$idLinkList@VidActor@@@@QAEXAAV1@@Z 100066a0 f i Actor.obj
 0001:000056e0       ??1?$idList@VidStr@@@@QAE@XZ 100066e0 f i Actor.obj
 0001:00005720       ??0idActor@@QAE@XZ         10006720 f   Actor.obj
 0001:00005b20       ??1idActor@@UAE@XZ         10006b20 f   Actor.obj
 0001:00005e20       ?SetupHead@idActor@@AAEXXZ 10006e20 f   Actor.obj
 0001:000064d0       ?Restart@idActor@@UAEXXZ   100074d0 f   Actor.obj
 0001:000064e0       ?Restore@idActor@@QAEXPAVidRestoreGame@@@Z 100074e0 f   Actor.obj
 0001:00006f90       ?Attach@idActor@@QAEXPAVidEntity@@@Z 10007f90 f   Actor.obj
 0001:000074b0       ?SetupDamageGroups@idActor@@QAEXXZ 100084b0 f   Actor.obj
 0001:000079a0       ?CreateInstance@idActor@@SAPAVidClass@@XZ 100089a0 f   Actor.obj
 0001:00007a40       ??_GidActor@@UAEPAXI@Z     10008a40 f i Actor.obj
 0001:00007a40       ??_EidActor@@UAEPAXI@Z     10008a40 f i Actor.obj
 0001:00007a60       ?Spawn@idActor@@QAEXXZ     10008a60 f   Actor.obj
 0001:00008480       ?Start@idAF@@QAEXXZ        10009480 f   AF.obj
 0001:000084f0       ?Stop@idAF@@QAEXXZ         100094f0 f   AF.obj
 0001:00008510       ?Rest@idAF@@QAEXXZ         10009510 f   AF.obj
 0001:00008520       ?SetConstraintPosition@idAF@@QAEXPBDABVidVec3@@@Z 10009520 f   AF.obj
 0001:000086a0       ?SetWorldAxis@idAFBody@@QAEXABVidMat3@@@Z 100096a0 f i AF.obj
 0001:000086f0       ?Save@idAF@@QBEXPAVidSaveGame@@@Z 100096f0 f   AF.obj
 0001:00008790       ?SetupPose@idAF@@QAEXPAVidEntity@@H@Z 10009790 f   AF.obj
 0001:00008b80       ?ChangePose@idAF@@QAEXPAVidEntity@@H@Z 10009b80 f   AF.obj
 0001:00009050       ?EntitiesTouchingAF@idAF@@QBEHQAUafTouch_s@@@Z 1000a050 f   AF.obj
 0001:00009240       ?BodyForClipModelId@idAF@@QBEHH@Z 1000a240 f   AF.obj
 0001:00009270       ?GetPhysicsToVisualTransform@idAF@@QBEXAAVidVec3@@AAVidMat3@@@Z 1000a270 f   AF.obj
 0001:00009350       ?GetImpactInfo@idAF@@QAEXPAVidEntity@@HABVidVec3@@PAUimpactInfo_s@@@Z 1000a350 f   AF.obj
 0001:000093b0       ?ApplyImpulse@idAF@@QAEXPAVidEntity@@HABVidVec3@@1@Z 1000a3b0 f   AF.obj
 0001:00009410       ?AddForce@idAF@@QAEXPAVidEntity@@HABVidVec3@@1@Z 1000a410 f   AF.obj
 0001:00009470       ?LoadConstraint@idAF@@IAE_NPBVidDeclAF_Constraint@@@Z 1000a470 f   AF.obj
 0001:00009f30       ??4jointConversion_s@@QAEAAU0@ABU0@@Z 1000af30 f i AF.obj
 0001:00009fa0       ??H@YA?AVidStr@@PBDABV0@@Z 1000afa0 f i AF.obj
 0001:0000a090       ??0idAF@@QAE@XZ            1000b090 f   AF.obj
 0001:0000a1d0       ??1idAF@@QAE@XZ            1000b1d0 f   AF.obj
 0001:0000a280       ?GetBounds@idAF@@QBE?AVidBounds@@XZ 1000b280 f   AF.obj
 0001:0000a880       ?TestSolid@idAF@@IBE_NXZ   1000b880 f   AF.obj
 0001:0000aae0       ?SaveState@idAF@@QBEXAAVidDict@@@Z 1000bae0 f   AF.obj
 0001:0000ad20       ?LoadState@idAF@@QAEXABVidDict@@@Z 1000bd20 f   AF.obj
 0001:0000af00       ?AddBindConstraints@idAF@@QAEXXZ 1000bf00 f   AF.obj
 0001:0000b890       ?RemoveBindConstraints@idAF@@QAEXXZ 1000c890 f   AF.obj
 0001:0000b9d0       ?UpdateAnimation@idAF@@QAE_NXZ 1000c9d0 f   AF.obj
 0001:0000c2d0       ?StartFromCurrentPose@idAF@@QAEXH@Z 1000d2d0 f   AF.obj
 0001:0000c380       ?AddBody@idAF@@IAEXPAVidAFBody@@PBVidJointMat@@PBDW4AFJointModType_t@@@Z 1000d380 f   AF.obj
 0001:0000c790       ?SetBase@idAF@@IAEXPAVidAFBody@@PBVidJointMat@@@Z 1000d790 f   AF.obj
 0001:0000c850       ?LoadBody@idAF@@IAE_NPBVidDeclAF_Body@@PBVidJointMat@@@Z 1000d850 f   AF.obj
 0001:0000d230       ?Load@idAF@@QAE_NPAVidEntity@@PBD@Z 1000e230 f   AF.obj
 0001:0000da10       ?Restore@idAF@@QAEXPAVidRestoreGame@@@Z 1000ea10 f   AF.obj
 0001:0000db30       ?GetType@idMultiModelAF@@UBEPAVidTypeInfo@@XZ 1000eb30 f   AFEntity.obj
 0001:0000db40       ?Spawn@idMultiModelAF@@QAEXXZ 1000eb40 f   AFEntity.obj
 0001:0000db60       ?GetType@idChain@@UBEPAVidTypeInfo@@XZ 1000eb60 f   AFEntity.obj
 0001:0000db70       ?GetType@idAFAttachment@@UBEPAVidTypeInfo@@XZ 1000eb70 f   AFEntity.obj
 0001:0000db80       ?Spawn@idAFAttachment@@QAEXXZ 1000eb80 f   AFEntity.obj
 0001:0000dba0       ?ClearBody@idAFAttachment@@QAEXXZ 1000eba0 f   AFEntity.obj
 0001:0000dbc0       ?GetBody@idAFAttachment@@QBEPAVidEntity@@XZ 1000ebc0 f   AFEntity.obj
 0001:0000dbd0       ?Save@idAFAttachment@@QBEXPAVidSaveGame@@@Z 1000ebd0 f   AFEntity.obj
 0001:0000dc10       ?Hide@idAFAttachment@@UAEXXZ 1000ec10 f   AFEntity.obj
 0001:0000dc30       ?Show@idAFAttachment@@UAEXXZ 1000ec30 f   AFEntity.obj
 0001:0000dc50       ?Damage@idAFAttachment@@UAEXPAVidEntity@@0ABVidVec3@@PBDMH@Z 1000ec50 f   AFEntity.obj
 0001:0000dca0       ?AddDamageEffect@idAFAttachment@@UAEXABUtrace_s@@ABVidVec3@@PBD@Z 1000eca0 f   AFEntity.obj
 0001:0000dd00       ?GetImpactInfo@idAFAttachment@@UAEXPAVidEntity@@HABVidVec3@@PAUimpactInfo_s@@@Z 1000ed00 f   AFEntity.obj
 0001:0000dd40       ?ApplyImpulse@idAFAttachment@@UAEXPAVidEntity@@HABVidVec3@@1@Z 1000ed40 f   AFEntity.obj
 0001:0000dd80       ?AddForce@idAFAttachment@@UAEXPAVidEntity@@HABVidVec3@@1@Z 1000ed80 f   AFEntity.obj
 0001:0000ddc0       ?PlayIdleAnim@idAFAttachment@@QAEXH@Z 1000edc0 f   AFEntity.obj
 0001:0000de10       ?Think@idAFAttachment@@UAEXXZ 1000ee10 f   AFEntity.obj
 0001:0000de30       ?SetCombatModel@idAFAttachment@@QAEXXZ 1000ee30 f   AFEntity.obj
 0001:0000dec0       ?LinkCombat@idAFAttachment@@UAEXXZ 1000eec0 f   AFEntity.obj
 0001:0000df00       ?UnlinkCombat@idAFAttachment@@UAEXXZ 1000ef00 f   AFEntity.obj
 0001:0000df10       ?GetType@idAFEntity_Base@@UBEPAVidTypeInfo@@XZ 1000ef10 f   AFEntity.obj
 0001:0000df20       ??1idAFEntity_Base@@UAE@XZ 1000ef20 f   AFEntity.obj
 0001:0000dfa0       ?Save@idAFEntity_Base@@QBEXPAVidSaveGame@@@Z 1000efa0 f   AFEntity.obj
 0001:0000e000       ?Restore@idAFEntity_Base@@QAEXPAVidRestoreGame@@@Z 1000f000 f   AFEntity.obj
 0001:0000e070       ?Think@idAFEntity_WithAttachedHead@@UAEXXZ 1000f070 f   AFEntity.obj
 0001:0000e070       ?Think@idAFEntity_Base@@UAEXXZ 1000f070 f   AFEntity.obj
 0001:0000e0a0       ?BodyForClipModelId@idAFEntity_Base@@QBEHH@Z 1000f0a0 f   AFEntity.obj
 0001:0000e0b0       ?AddBindConstraints@idAFEntity_Base@@QAEXXZ 1000f0b0 f   AFEntity.obj
 0001:0000e0c0       ?RemoveBindConstraints@idAFEntity_Base@@QAEXXZ 1000f0c0 f   AFEntity.obj
 0001:0000e0d0       ?GetImpactInfo@idAFEntity_Base@@UAEXPAVidEntity@@HABVidVec3@@PAUimpactInfo_s@@@Z 1000f0d0 f   AFEntity.obj
 0001:0000e0f0       ?ApplyImpulse@idAFEntity_Base@@UAEXPAVidEntity@@HABVidVec3@@1@Z 1000f0f0 f   AFEntity.obj
 0001:0000e150       ?AddForce@idAFEntity_Base@@UAEXPAVidEntity@@HABVidVec3@@1@Z 1000f150 f   AFEntity.obj
 0001:0000e1b0       ?GetPhysicsToVisualTransform@idAFEntity_Base@@UAE_NAAVidVec3@@AAVidMat3@@@Z 1000f1b0 f   AFEntity.obj
 0001:0000e1e0       ?UpdateAnimationControllers@idAFEntity_Base@@UAE_NXZ 1000f1e0 f   AFEntity.obj
 0001:0000e200       ?SetCombatModel@idAFEntity_Base@@QAEXXZ 1000f200 f   AFEntity.obj
 0001:0000e290       ?SetCombatContents@idAFEntity_Base@@QAEX_N@Z 1000f290 f   AFEntity.obj
 0001:0000e2e0       ?LinkCombat@idAFEntity_Base@@UAEXXZ 1000f2e0 f   AFEntity.obj
 0001:0000e320       ?UnlinkCombat@idAFEntity_Base@@UAEXXZ 1000f320 f   AFEntity.obj
 0001:0000e330       ?FreeModelDef@idAFEntity_Base@@UAEXXZ 1000f330 f   AFEntity.obj
 0001:0000e350       ?ShowEditingDialog@idAFEntity_Base@@UAEXXZ 1000f350 f   AFEntity.obj
 0001:0000e370       ?Event_SetConstraintPosition@idAFEntity_Base@@IAEXPBDABVidVec3@@@Z 1000f370 f   AFEntity.obj
 0001:0000e380       ?GetType@idAFEntity_Gibbable@@UBEPAVidTypeInfo@@XZ 1000f380 f   AFEntity.obj
 0001:0000e390       ??1idAFEntity_Gibbable@@UAE@XZ 1000f390 f   AFEntity.obj
 0001:0000e400       ?Save@idAFEntity_Gibbable@@QBEXPAVidSaveGame@@@Z 1000f400 f   AFEntity.obj
 0001:0000e430       ?Event_Gib@idAFEntity_WithAttachedHead@@AAEXPBD@Z 1000f430 f   AFEntity.obj
 0001:0000e430       ?Event_Gib@idAFEntity_Gibbable@@IAEXPBD@Z 1000f430 f   AFEntity.obj
 0001:0000e460       ?GetType@idAFEntity_Generic@@UBEPAVidTypeInfo@@XZ 1000f460 f   AFEntity.obj
 0001:0000e470       ?Save@idAFEntity_Generic@@QBEXPAVidSaveGame@@@Z 1000f470 f   AFEntity.obj
 0001:0000e490       ?Restore@idAFEntity_Generic@@QAEXPAVidRestoreGame@@@Z 1000f490 f   AFEntity.obj
 0001:0000e4b0       ?Think@idAFEntity_Generic@@UAEXXZ 1000f4b0 f   AFEntity.obj
 0001:0000e4b0       ?ClientPredictionThink@idAFEntity_Generic@@UAEXXZ 1000f4b0 f   AFEntity.obj
 0001:0000e500       ?GetType@idAFEntity_WithAttachedHead@@UBEPAVidTypeInfo@@XZ 1000f500 f   AFEntity.obj
 0001:0000e510       ?WriteToSnapshot@idAFEntity_Generic@@UBEXAAVidBitMsgDelta@@@Z 1000f510 f   AFEntity.obj
 0001:0000e510       ?WriteToSnapshot@idTrigger_Hurt@@UBEXAAVidBitMsgDelta@@@Z 1000f510 f   Trigger.obj
 0001:0000e510       ?WriteToSnapshot@idAFEntity_WithAttachedHead@@UBEXAAVidBitMsgDelta@@@Z 1000f510 f   AFEntity.obj
 0001:0000e540       ?GetType@idAFEntity_Vehicle@@UBEPAVidTypeInfo@@XZ 1000f540 f   AFEntity.obj
 0001:0000e550       ??1idAFEntity_Vehicle@@UAE@XZ 1000f550 f i AFEntity.obj
 0001:0000e560       ?GetSteerAngle@idAFEntity_Vehicle@@IAEMXZ 1000f560 f   AFEntity.obj
 0001:0000e5f0       ?GetType@idAFEntity_VehicleSimple@@UBEPAVidTypeInfo@@XZ 1000f5f0 f   AFEntity.obj
 0001:0000e600       ??1idAFEntity_VehicleSimple@@UAE@XZ 1000f600 f   AFEntity.obj
 0001:0000e670       ?GetType@idAFEntity_VehicleFourWheels@@UBEPAVidTypeInfo@@XZ 1000f670 f   AFEntity.obj
 0001:0000e680       ?GetType@idAFEntity_VehicleSixWheels@@UBEPAVidTypeInfo@@XZ 1000f680 f   AFEntity.obj
 0001:0000e690       ?GetType@idAFEntity_SteamPipe@@UBEPAVidTypeInfo@@XZ 1000f690 f   AFEntity.obj
 0001:0000e6a0       ??1idAFEntity_SteamPipe@@UAE@XZ 1000f6a0 f   AFEntity.obj
 0001:0000e720       ?GetType@idAFEntity_ClawFourFingers@@UBEPAVidTypeInfo@@XZ 1000f720 f   AFEntity.obj
 0001:0000e730       ?Save@idAFEntity_ClawFourFingers@@QBEXPAVidSaveGame@@@Z 1000f730 f   AFEntity.obj
 0001:0000e760       ?Restore@idAFEntity_ClawFourFingers@@QAEXPAVidRestoreGame@@@Z 1000f760 f   AFEntity.obj
 0001:0000e7d0       ?Event_SetFingerAngle@idAFEntity_ClawFourFingers@@AAEXM@Z 1000f7d0 f   AFEntity.obj
 0001:0000e820       ?Event_StopFingers@idAFEntity_ClawFourFingers@@AAEXXZ 1000f820 f   AFEntity.obj
 0001:0000e850       ?Next@?$idLinkList@VidEntity@@@@QBEPAVidEntity@@XZ 1000f850 f i AFEntity.obj
 0001:0000e870       ??4idBounds@@QAEAAV0@ABV0@@Z 1000f870 f i AFEntity.obj
 0001:0000e8a0       ?Present@idMultiModelAF@@UAEXXZ 1000f8a0 f   AFEntity.obj
 0001:0000e9d0       ??4traceModelPoly_t@@QAEAAU0@ABU0@@Z 1000f9d0 f i AFEntity.obj
 0001:0000ea40       ?CreateInstance@idAFAttachment@@SAPAVidClass@@XZ 1000fa40 f   AFEntity.obj
 0001:0000eb10       ??1idAFAttachment@@UAE@XZ  1000fb10 f   AFEntity.obj
 0001:0000eb90       ?SetBody@idAFAttachment@@QAEXPAVidEntity@@PBDW4jointHandle_t@@@Z 1000fb90 f   AFEntity.obj
 0001:0000ec10       ?Restore@idAFAttachment@@QAEXPAVidRestoreGame@@@Z 1000fc10 f   AFEntity.obj
 0001:0000ec60       ?Spawn@idAFEntity_Base@@QAEXXZ 1000fc60 f   AFEntity.obj
 0001:0000ed10       ?SaveState@idAFEntity_Base@@QBEXAAVidDict@@@Z 1000fd10 f   AFEntity.obj
 0001:0000ede0       ?Collide@idAFEntity_Base@@UAE_NABUtrace_s@@ABVidVec3@@@Z 1000fde0 f   AFEntity.obj
 0001:0000efc0       ??_GidAFEntity_Gibbable@@UAEPAXI@Z 1000ffc0 f i AFEntity.obj
 0001:0000efc0       ??_EidAFEntity_Gibbable@@UAEPAXI@Z 1000ffc0 f i AFEntity.obj
 0001:0000efe0       ?InitSkeletonModel@idAFEntity_Gibbable@@IAEXXZ 1000ffe0 f   AFEntity.obj
 0001:0000f0c0       ??4renderEntity_s@@QAEAAU0@ABU0@@Z 100100c0 f i AFEntity.obj
 0001:0000f280       ?Damage@idAFEntity_Gibbable@@UAEXPAVidEntity@@0ABVidVec3@@PBDMH@Z 10010280 f   AFEntity.obj
 0001:0000f300       ?Gib@idAFEntity_Gibbable@@MAEXABVidVec3@@PBD@Z 10010300 f   AFEntity.obj
 0001:0000f480       ??_GidAFEntity_Generic@@UAEPAXI@Z 10010480 f i AFEntity.obj
 0001:0000f480       ??_EidAFEntity_Generic@@UAEPAXI@Z 10010480 f i AFEntity.obj
 0001:0000f4b0       ?Spawn@idAFEntity_Generic@@QAEXXZ 100104b0 f   AFEntity.obj
 0001:0000f540       ?Event_Activate@idAFEntity_Generic@@AAEXPAVidEntity@@@Z 10010540 f   AFEntity.obj
 0001:0000f540       ?Event_Activate@idAFEntity_WithAttachedHead@@AAEXPAVidEntity@@@Z 10010540 f   AFEntity.obj
 0001:0000f690       ??1idAFEntity_WithAttachedHead@@UAE@XZ 10010690 f   AFEntity.obj
 0001:0000f770       ?Save@idAFEntity_WithAttachedHead@@QBEXPAVidSaveGame@@@Z 10010770 f   AFEntity.obj
 0001:0000f790       ?Restore@idAFEntity_WithAttachedHead@@QAEXPAVidRestoreGame@@@Z 10010790 f   AFEntity.obj
 0001:0000f7b0       ?LinkCombat@idAFEntity_WithAttachedHead@@UAEXXZ 100107b0 f   AFEntity.obj
 0001:0000f820       ?UnlinkCombat@idAFEntity_WithAttachedHead@@UAEXXZ 10010820 f   AFEntity.obj
 0001:0000f870       ?Hide@idAFEntity_WithAttachedHead@@UAEXXZ 10010870 f   AFEntity.obj
 0001:0000f8e0       ?Show@idAFEntity_WithAttachedHead@@UAEXXZ 100108e0 f   AFEntity.obj
 0001:0000f950       ?ProjectOverlay@idAFEntity_WithAttachedHead@@UAEXABVidVec3@@0MPBD@Z 10010950 f   AFEntity.obj
 0001:0000f9e0       ?Gib@idAFEntity_WithAttachedHead@@MAEXABVidVec3@@PBD@Z 100109e0 f   AFEntity.obj
 0001:0000fa60       ?Spawn@idAFEntity_Vehicle@@QAEXXZ 10010a60 f   AFEntity.obj
 0001:0000fbc0       ?Use@idAFEntity_Vehicle@@QAEXPAVidPlayer@@@Z 10010bc0 f   AFEntity.obj
 0001:0000fd20       ??_GidAFEntity_VehicleSimple@@UAEPAXI@Z 10010d20 f i AFEntity.obj
 0001:0000fd20       ??_EidAFEntity_VehicleSimple@@UAEPAXI@Z 10010d20 f i AFEntity.obj
 0001:0000fd40       ?Think@idAFEntity_VehicleSimple@@UAEXXZ 10010d40 f   AFEntity.obj
 0001:00010240       ?Spawn@idAFEntity_VehicleFourWheels@@QAEXXZ 10011240 f   AFEntity.obj
 0001:00010400       ?Think@idAFEntity_VehicleFourWheels@@UAEXXZ 10011400 f   AFEntity.obj
 0001:000108d0       ?Spawn@idAFEntity_VehicleSixWheels@@QAEXXZ 100118d0 f   AFEntity.obj
 0001:00010aa0       ?Think@idAFEntity_VehicleSixWheels@@UAEXXZ 10011aa0 f   AFEntity.obj
 0001:00011010       ??_EidAFEntity_SteamPipe@@UAEPAXI@Z 10012010 f i AFEntity.obj
 0001:00011010       ??_GidAFEntity_SteamPipe@@UAEPAXI@Z 10012010 f i AFEntity.obj
 0001:00011030       ?InitSteamRenderEntity@idAFEntity_SteamPipe@@AAEXXZ 10012030 f   AFEntity.obj
 0001:000111f0       ?Think@idAFEntity_SteamPipe@@UAEXXZ 100121f0 f   AFEntity.obj
 0001:000113c0       ?Spawn@idAFEntity_ClawFourFingers@@QAEXXZ 100123c0 f   AFEntity.obj
 0001:00011450       ?AF_UpdateEntities@idGameEdit@@UAEXPBD@Z 10012450 f   AFEntity.obj
 0001:00011550       ?AF_UndoChanges@idGameEdit@@UAEXXZ 10012550 f   AFEntity.obj
 0001:00011760       ??H@YA?AVidStr@@ABV0@0@Z   10012760 f i AFEntity.obj
 0001:00011830       ??0idMultiModelAF@@QAE@XZ  10012830 f i AFEntity.obj
 0001:000118c0       ??1idMultiModelAF@@UAE@XZ  100128c0 f   AFEntity.obj
 0001:000119c0       ?SetModelForId@idMultiModelAF@@IAEXHABVidStr@@@Z 100129c0 f   AFEntity.obj
 0001:00011c00       ??4idTraceModel@@QAEAAV0@ABV0@@Z 10012c00 f i AFEntity.obj
 0001:00011dc0       ??_EidAFAttachment@@UAEPAXI@Z 10012dc0 f i AFEntity.obj
 0001:00011dc0       ??_GidAFAttachment@@UAEPAXI@Z 10012dc0 f i AFEntity.obj
 0001:00011de0       ??0idAFEntity_Base@@QAE@XZ 10012de0 f   AFEntity.obj
 0001:00011ec0       ?LoadAF@idAFEntity_Base@@UAE_NXZ 10012ec0 f   AFEntity.obj
 0001:00012050       ?DropAFs@idAFEntity_Base@@SAXPAVidEntity@@PBDPAV?$idList@PAVidEntity@@@@@Z 10013050 f   AFEntity.obj
 0001:00012490       ??0idAFEntity_Gibbable@@QAE@XZ 10013490 f   AFEntity.obj
 0001:000124c0       ?Restore@idAFEntity_Gibbable@@QAEXPAVidRestoreGame@@@Z 100134c0 f   AFEntity.obj
 0001:00012510       ?Spawn@idAFEntity_Gibbable@@QAEXXZ 10013510 f   AFEntity.obj
 0001:00012530       ?Present@idAFEntity_Gibbable@@UAEXXZ 10013530 f   AFEntity.obj
 0001:000125e0       ?SpawnGibs@idAFEntity_Gibbable@@UAEXABVidVec3@@PBD@Z 100135e0 f   AFEntity.obj
 0001:00012a40       ??_EidAFEntity_WithAttachedHead@@UAEPAXI@Z 10013a40 f i AFEntity.obj
 0001:00012a40       ??_GidAFEntity_WithAttachedHead@@UAEPAXI@Z 10013a40 f i AFEntity.obj
 0001:00012a60       ?SetupHead@idAFEntity_WithAttachedHead@@QAEXXZ 10013a60 f   AFEntity.obj
 0001:00012e10       ??0idAFEntity_VehicleSimple@@QAE@XZ 10013e10 f   AFEntity.obj
 0001:00012e70       ?Spawn@idAFEntity_VehicleSimple@@QAEXXZ 10013e70 f   AFEntity.obj
 0001:00013230       ??0idAFEntity_VehicleFourWheels@@QAE@XZ 10014230 f   AFEntity.obj
 0001:000132d0       ??0idAFEntity_VehicleSixWheels@@QAE@XZ 100142d0 f   AFEntity.obj
 0001:000133a0       ??0idAFEntity_SteamPipe@@QAE@XZ 100143a0 f   AFEntity.obj
 0001:00013430       ?Spawn@idAFEntity_SteamPipe@@QAEXXZ 10014430 f   AFEntity.obj
 0001:00013590       ??_GidAFEntity_ClawFourFingers@@UAEPAXI@Z 10014590 f i AFEntity.obj
 0001:00013590       ??_GidAFEntity_Base@@UAEPAXI@Z 10014590 f i AFEntity.obj
 0001:00013590       ??_EidAFEntity_VehicleFourWheels@@UAEPAXI@Z 10014590 f i AFEntity.obj
 0001:00013590       ??_GidAFEntity_VehicleFourWheels@@UAEPAXI@Z 10014590 f i AFEntity.obj
 0001:00013590       ??_EidAFEntity_Base@@UAEPAXI@Z 10014590 f i AFEntity.obj
 0001:00013590       ??_GidAFEntity_Vehicle@@UAEPAXI@Z 10014590 f i AFEntity.obj
 0001:00013590       ??_EidAFEntity_Vehicle@@UAEPAXI@Z 10014590 f i AFEntity.obj
 0001:00013590       ??_EidAFEntity_ClawFourFingers@@UAEPAXI@Z 10014590 f i AFEntity.obj
 0001:00013590       ??_GidAFEntity_VehicleSixWheels@@UAEPAXI@Z 10014590 f i AFEntity.obj
 0001:00013590       ??_EidAFEntity_VehicleSixWheels@@UAEPAXI@Z 10014590 f i AFEntity.obj
 0001:000135b0       ?AF_SpawnEntity@idGameEdit@@UAE_NPBD@Z 100145b0 f   AFEntity.obj
 0001:000139a0       ?AF_CreateMesh@idGameEdit@@UAEPAVidRenderModel@@ABVidDict@@AAVidVec3@@AAVidMat3@@AA_N@Z 100149a0 f   AFEntity.obj
 0001:00014f90       ?CreateInstance@idMultiModelAF@@SAPAVidClass@@XZ 10015f90 f   AFEntity.obj
 0001:00015030       ??_EidMultiModelAF@@UAEPAXI@Z 10016030 f i AFEntity.obj
 0001:00015030       ??_GidMultiModelAF@@UAEPAXI@Z 10016030 f i AFEntity.obj
 0001:00015030       ??_EidChain@@UAEPAXI@Z     10016030 f i AFEntity.obj
 0001:00015030       ??_GidChain@@UAEPAXI@Z     10016030 f i AFEntity.obj
 0001:00015050       ?CreateInstance@idChain@@SAPAVidClass@@XZ 10016050 f   AFEntity.obj
 0001:00015100       ?BuildChain@idChain@@IAEXABVidStr@@ABVidVec3@@MMMH_N@Z 10016100 f   AFEntity.obj
 0001:00015a60       ?Spawn@idChain@@QAEXXZ     10016a60 f   AFEntity.obj
 0001:00015ce0       ?CreateInstance@idAFEntity_Base@@SAPAVidClass@@XZ 10016ce0 f   AFEntity.obj
 0001:00015d80       ?CreateInstance@idAFEntity_Gibbable@@SAPAVidClass@@XZ 10016d80 f   AFEntity.obj
 0001:00015e40       ?CreateInstance@idAFEntity_Generic@@SAPAVidClass@@XZ 10016e40 f   AFEntity.obj
 0001:00015f10       ?CreateInstance@idAFEntity_WithAttachedHead@@SAPAVidClass@@XZ 10016f10 f   AFEntity.obj
 0001:00015fe0       ?Spawn@idAFEntity_WithAttachedHead@@QAEXXZ 10016fe0 f   AFEntity.obj
 0001:00016100       ?CreateInstance@idAFEntity_Vehicle@@SAPAVidClass@@XZ 10017100 f   AFEntity.obj
 0001:000161e0       ?CreateInstance@idAFEntity_VehicleSimple@@SAPAVidClass@@XZ 100171e0 f   AFEntity.obj
 0001:00016280       ?CreateInstance@idAFEntity_VehicleFourWheels@@SAPAVidClass@@XZ 10017280 f   AFEntity.obj
 0001:00016320       ?CreateInstance@idAFEntity_VehicleSixWheels@@SAPAVidClass@@XZ 10017320 f   AFEntity.obj
 0001:000163c0       ?CreateInstance@idAFEntity_SteamPipe@@SAPAVidClass@@XZ 100173c0 f   AFEntity.obj
 0001:00016460       ?Restore@idAFEntity_SteamPipe@@QAEXPAVidRestoreGame@@@Z 10017460 f   AFEntity.obj
 0001:00016470       ?CreateInstance@idAFEntity_ClawFourFingers@@SAPAVidClass@@XZ 10017470 f   AFEntity.obj
 0001:00016530       ?GetType@idBrittleFracture@@UBEPAVidTypeInfo@@XZ 10017530 f   BrittleFracture.obj
 0001:00016540       ??0idVec3@@QAE@XZ          10017540 f i Actor.obj
 0001:00016540       ??0idVec2@@QAE@XZ          10017540 f i BrittleFracture.obj
 0001:00016550       ?Killed@idBrittleFracture@@UAEXPAVidEntity@@0HABVidVec3@@H@Z 10017550 f   BrittleFracture.obj
 0001:00016590       ?Event_Activate@idBrittleFracture@@AAEXPAVidEntity@@@Z 10017590 f   BrittleFracture.obj
 0001:000165d0       ?ClientPredictionThink@idBrittleFracture@@UAEXXZ 100175d0 f   BrittleFracture.obj
 0001:000165d0       ?ClientPredictionThink@idItem@@UAEXXZ 100175d0 f   Item.obj
 0001:000165f0       ?Clear@idWinding@@UAEXXZ   100175f0 f i BrittleFracture.obj
 0001:00016610       ??1idFixedWinding@@UAE@XZ  10017610 f i BrittleFracture.obj
 0001:00016640       ?Clear@idFixedWinding@@UAEXXZ 10017640 f i BrittleFracture.obj
 0001:00016650       ?Save@idBrittleFracture@@QBEXPAVidSaveGame@@@Z 10017650 f   BrittleFracture.obj
 0001:00016990       ?UpdateRenderEntity@idBrittleFracture@@ABE_NPAUrenderEntity_s@@PBUrenderView_s@@@Z 10017990 f   BrittleFracture.obj
 0001:00017820       ?ModelCallback@idBrittleFracture@@CA_NPAUrenderEntity_s@@PBUrenderView_s@@@Z 10018820 f   BrittleFracture.obj
 0001:00017860       ?DropShard@idBrittleFracture@@AAEXPAUshard_s@@ABVidVec3@@1MH@Z 10018860 f   BrittleFracture.obj
 0001:00017de0       ?DropFloatingIslands@idBrittleFracture@@AAEXABVidVec3@@0H@Z 10018de0 f   BrittleFracture.obj
 0001:00018010       ??_EidWinding@@UAEPAXI@Z   10019010 f i BrittleFracture.obj
 0001:00018010       ??_GidWinding@@UAEPAXI@Z   10019010 f i BrittleFracture.obj
 0001:00018050       ??_GidFixedWinding@@UAEPAXI@Z 10019050 f i BrittleFracture.obj
 0001:00018050       ??_EidFixedWinding@@UAEPAXI@Z 10019050 f i BrittleFracture.obj
 0001:00018090       ??0idBrittleFracture@@QAE@XZ 10019090 f   BrittleFracture.obj
 0001:000181f0       ??1shard_s@@QAE@XZ         100191f0 f i BrittleFracture.obj
 0001:000182d0       ??0shard_s@@QAE@XZ         100192d0 f i BrittleFracture.obj
 0001:00018380       ??4idFixedWinding@@QAEAAV0@ABV0@@Z 10019380 f i BrittleFracture.obj
 0001:00018430       ?Present@idBrittleFracture@@UAEXXZ 10019430 f   BrittleFracture.obj
 0001:00018570       ?ProjectDecal@idBrittleFracture@@QAEXABVidVec3@@0HPBD@Z 10019570 f   BrittleFracture.obj
 0001:00018fd0       ?Shatter@idBrittleFracture@@AAEXABVidVec3@@0H@Z 10019fd0 f   BrittleFracture.obj
 0001:000192f0       ?AddDamageEffect@idBrittleFracture@@UAEXABUtrace_s@@ABVidVec3@@PBD@Z 1001a2f0 f   BrittleFracture.obj
 0001:00019320       ?FindNeighbours@idBrittleFracture@@AAEXXZ 1001a320 f   BrittleFracture.obj
 0001:0001a020       ?Event_Touch@idBrittleFracture@@AAEXPAVidEntity@@PAUtrace_s@@@Z 1001b020 f   BrittleFracture.obj
 0001:0001a100       ?ClientReceiveEvent@idBrittleFracture@@UAE_NHHABVidBitMsg@@@Z 1001b100 f   BrittleFracture.obj
 0001:0001a220       ?CreateInstance@idBrittleFracture@@SAPAVidClass@@XZ 1001b220 f   BrittleFracture.obj
 0001:0001a2c0       ?Restore@idBrittleFracture@@QAEXPAVidRestoreGame@@@Z 1001b2c0 f   BrittleFracture.obj
 0001:0001a9a0       ?AddShard@idBrittleFracture@@AAEXPAVidClipModel@@AAVidFixedWinding@@@Z 1001b9a0 f   BrittleFracture.obj
 0001:0001ace0       ?RemoveShard@idBrittleFracture@@AAEXH@Z 1001bce0 f   BrittleFracture.obj
 0001:0001ad80       ?Think@idBrittleFracture@@UAEXXZ 1001bd80 f   BrittleFracture.obj
 0001:0001aff0       ?ApplyImpulse@idBrittleFracture@@UAEXPAVidEntity@@HABVidVec3@@1@Z 1001bff0 f   BrittleFracture.obj
 0001:0001b060       ?AddForce@idBrittleFracture@@UAEXPAVidEntity@@HABVidVec3@@1@Z 1001c060 f   BrittleFracture.obj
 0001:0001b0d0       ?Fracture_r@idBrittleFracture@@AAEXAAVidFixedWinding@@@Z 1001c0d0 f   BrittleFracture.obj
 0001:0001b7b0       ?CreateFractures@idBrittleFracture@@AAEXPBVidRenderModel@@@Z 1001c7b0 f   BrittleFracture.obj
 0001:0001ba00       ??1idBrittleFracture@@UAE@XZ 1001ca00 f   BrittleFracture.obj
 0001:0001bb50       ?Spawn@idBrittleFracture@@QAEXXZ 1001cb50 f   BrittleFracture.obj
 0001:0001bf50       ??_GidBrittleFracture@@UAEPAXI@Z 1001cf50 f i BrittleFracture.obj
 0001:0001bf50       ??_EidBrittleFracture@@UAEPAXI@Z 1001cf50 f i BrittleFracture.obj
 0001:0001bf70       ?CreateInstance@idCamera@@SAPAVidClass@@XZ 1001cf70 f   Camera.obj
 0001:0001bf90       ?GetType@idCamera@@UBEPAVidTypeInfo@@XZ 1001cf90 f   Camera.obj
 0001:0001bfa0       ??1idCamera@@UAE@XZ        1001cfa0 f   Camera.obj
 0001:0001c010       ?GetRenderView@idCamera@@UAEPAUrenderView_s@@XZ 1001d010 f   Camera.obj
 0001:0001c030       ?ClientReceiveEvent@idCamera@@UAE_NHHABVidBitMsg@@@Z 1001d030 f   Camera.obj
 0001:0001c0b0       ?GetType@idCameraView@@UBEPAVidTypeInfo@@XZ 1001d0b0 f   Camera.obj
 0001:0001c0c0       ?Save@idCameraView@@QBEXPAVidSaveGame@@@Z 1001d0c0 f   Camera.obj
 0001:0001c100       ?Restore@idCameraView@@QAEXPAVidRestoreGame@@@Z 1001d100 f   Camera.obj
 0001:0001c140       ?GetType@idCameraAnim@@UBEPAVidTypeInfo@@XZ 1001d140 f   Camera.obj
 0001:0001c150       ?Event_Disable@idTrigger@@IAEXXZ 1001d150 f   Trigger.obj
 0001:0001c150       ?Event_Stop@idCameraAnim@@AAEXXZ 1001d150 f   Camera.obj
 0001:0001c160       ?Event_SetCallback@idCameraAnim@@AAEXXZ 1001d160 f   Camera.obj
 0001:0001c1a0       ?CreateInstance@idCameraView@@SAPAVidClass@@XZ 1001d1a0 f   Camera.obj
 0001:0001c270       ??_GidCameraView@@UAEPAXI@Z 1001d270 f i Camera.obj
 0001:0001c270       ??_EidCamera@@UAEPAXI@Z    1001d270 f i Camera.obj
 0001:0001c270       ??_GidCamera@@UAEPAXI@Z    1001d270 f i Camera.obj
 0001:0001c270       ??_EidCameraView@@UAEPAXI@Z 1001d270 f i Camera.obj
 0001:0001c290       ?Event_Activate@idCameraView@@IAEXPAVidEntity@@@Z 1001d290 f   Camera.obj
 0001:0001c350       ?Stop@idCameraView@@UAEXXZ 1001d350 f   Camera.obj
 0001:0001c3a0       ?Spawn@idCameraView@@QAEXXZ 1001d3a0 f   Camera.obj
 0001:0001c450       ?GetViewParms@idCameraView@@UAEXPAUrenderView_s@@@Z 1001d450 f   Camera.obj
 0001:0001c5f0       ?Save@idCameraAnim@@QBEXPAVidSaveGame@@@Z 1001d5f0 f   Camera.obj
 0001:0001c660       ?Start@idCameraAnim@@AAEXXZ 1001d660 f   Camera.obj
 0001:0001c720       ?Stop@idCameraAnim@@EAEXXZ 1001d720 f   Camera.obj
 0001:0001c7d0       ?Think@idCameraAnim@@EAEXXZ 1001d7d0 f   Camera.obj
 0001:0001c890       ?GetViewParms@idCameraAnim@@UAEXPAUrenderView_s@@@Z 1001d890 f   Camera.obj
 0001:0001cf90       ?Event_Activate@idCameraAnim@@AAEXPAVidEntity@@@Z 1001df90 f   Camera.obj
 0001:0001cfe0       ?Event_Start@idCameraAnim@@AAEXXZ 1001dfe0 f   Camera.obj
 0001:0001cff0       ?Event_SetAttachments@idCameraView@@IAEXXZ 1001dff0 f   Camera.obj
 0001:0001d090       ??0idCameraAnim@@QAE@XZ    1001e090 f   Camera.obj
 0001:0001d140       ??1idCameraAnim@@UAE@XZ    1001e140 f   Camera.obj
 0001:0001d200       ?CreateInstance@idCameraAnim@@SAPAVidClass@@XZ 1001e200 f   Camera.obj
 0001:0001d2a0       ??_GidCameraAnim@@UAEPAXI@Z 1001e2a0 f i Camera.obj
 0001:0001d2a0       ??_EidCameraAnim@@UAEPAXI@Z 1001e2a0 f i Camera.obj
 0001:0001d2c0       ?LoadAnim@idCameraAnim@@AAEXXZ 1001e2c0 f   Camera.obj
 0001:0001d9a0       ?Restore@idCameraAnim@@QAEXPAVidRestoreGame@@@Z 1001e9a0 f   Camera.obj
 0001:0001da10       ?Spawn@idCameraAnim@@QAEXXZ 1001ea10 f   Camera.obj
 0001:0001dab0       ?CreateInstance@idEntity@@SAPAVidClass@@XZ 1001eab0 f   Entity.obj
 0001:0001dad0       ?GetType@idEntity@@UBEPAVidTypeInfo@@XZ 1001ead0 f   Entity.obj
 0001:0001dae0       ??_GidClass@@UAEPAXI@Z     1001eae0 f i Entity.obj
 0001:0001dae0       ??_EidClass@@UAEPAXI@Z     1001eae0 f i Entity.obj
 0001:0001db00       ?IsEventSender@idEntity@@IBE_NXZ 1001eb00 f   Entity.obj
 0001:0001db30       ?IsEventReceiver@idEntity@@IBE_NXZ 1001eb30 f   Entity.obj
 0001:0001db60       ?DoDormantTests@idEntity@@AAE_NXZ 1001eb60 f   Entity.obj
 0001:0001dbe0       ?CheckDormant@idEntity@@QAE_NXZ 1001ebe0 f   Entity.obj
 0001:0001dc30       ?GetColor@idEntity@@UBEXAAVidVec3@@@Z 1001ec30 f   Entity.obj
 0001:0001dc60       ?FreeModelDef@idEntity@@UAEXXZ 1001ec60 f   Entity.obj
 0001:0001dc90       ?IsHidden@idEntity@@QBE_NXZ 1001ec90 f   Entity.obj
 0001:0001dca0       ?GetRenderEntity@idEntity@@UAEPAUrenderEntity_s@@XZ 1001eca0 f   Entity.obj
 0001:0001dcb0       ?GetModelDefHandle@idEntity@@UAEHXZ 1001ecb0 f   Entity.obj
 0001:0001dcc0       ?ModelCallback@idEntity@@SA_NPAUrenderEntity_s@@PBUrenderView_s@@@Z 1001ecc0 f   Entity.obj
 0001:0001dd20       ?SetSoundVolume@idEntity@@QAEXM@Z 1001ed20 f   Entity.obj
 0001:0001dd30       ?GetListenerId@idEntity@@QBEHXZ 1001ed30 f   Entity.obj
 0001:0001dd40       ?GetSoundEmitter@idEntity@@QBEPAVidSoundEmitter@@XZ 1001ed40 f   Entity.obj
 0001:0001dd50       ?FreeSoundEmitter@idEntity@@QAEX_N@Z 1001ed50 f   Entity.obj
 0001:0001dd80       ?IsBound@idEntity@@QBE_NXZ 1001ed80 f   Entity.obj
 0001:0001dd90       ?GetBindMaster@idEntity@@QBEPAV1@XZ 1001ed90 f   Entity.obj
 0001:0001dda0       ?GetBindJoint@idEntity@@QBE?AW4jointHandle_t@@XZ 1001eda0 f   Entity.obj
 0001:0001ddb0       ?GetBindBody@idEntity@@QBEHXZ 1001edb0 f   Entity.obj
 0001:0001ddc0       ?GetTeamMaster@idEntity@@QBEPAV1@XZ 1001edc0 f   Entity.obj
 0001:0001ddd0       ?GetNextTeamEntity@idEntity@@QBEPAV1@XZ 1001edd0 f   Entity.obj
 0001:0001dde0       ?QuitTeam@idEntity@@AAEXXZ 1001ede0 f   Entity.obj
 0001:0001de70       ?SetPhysics@idEntity@@QAEXPAVidPhysics@@@Z 1001ee70 f   Entity.obj
 0001:0001df10       ?RestorePhysics@idEntity@@QAEXPAVidPhysics@@@Z 1001ef10 f   Entity.obj
 0001:0001df20       ?GetPhysics@idEntity@@QBEPAVidPhysics@@XZ 1001ef20 f   Entity.obj
 0001:0001df30       ?GetImpactInfo@idEntity@@UAEXPAV1@HABVidVec3@@PAUimpactInfo_s@@@Z 1001ef30 f   Entity.obj
 0001:0001df50       ?ApplyImpulse@idEntity@@UAEXPAV1@HABVidVec3@@1@Z 1001ef50 f   Entity.obj
 0001:0001df70       ?AddForce@idEntity@@UAEXPAV1@HABVidVec3@@1@Z 1001ef70 f   Entity.obj
 0001:0001df90       ?ActivatePhysics@idEntity@@UAEXPAV1@@Z 1001ef90 f   Entity.obj
 0001:0001dfa0       ?IsAtRest@idEntity@@UBE_NXZ 1001efa0 f   Entity.obj
 0001:0001dfb0       ?GetRestStartTime@idEntity@@UBEHXZ 1001efb0 f   Entity.obj
 0001:0001dfc0       ?AddContactEntity@idEntity@@UAEXPAV1@@Z 1001efc0 f   Entity.obj
 0001:0001dfd0       ?RemoveContactEntity@idEntity@@UAEXPAV1@@Z 1001efd0 f   Entity.obj
 0001:0001dfe0       ?ApplyImpulse@idPhysics_Base@@UAEXHABVidVec3@@0@Z 1001efe0 f   Physics_Base.obj
 0001:0001dfe0       ?AddForce@idPhysics_StaticMulti@@UAEXHABVidVec3@@0@Z 1001efe0 f   Physics_StaticMulti.obj
 0001:0001dfe0       ?DamageFeedback@idEntity@@UAEXPAV1@0AAH@Z 1001efe0 f   Entity.obj
 0001:0001dfe0       ?ApplyImpulse@idPhysics_StaticMulti@@UAEXHABVidVec3@@0@Z 1001efe0 f   Physics_StaticMulti.obj
 0001:0001dfe0       ?AddForce@idPhysics_Base@@UAEXHABVidVec3@@0@Z 1001efe0 f   Physics_Base.obj
 0001:0001dfe0       ?AddForce@idPhysics_Static@@UAEXHABVidVec3@@0@Z 1001efe0 f   Physics_Static.obj
 0001:0001dfe0       ?ApplyImpulse@idPhysics_Static@@UAEXHABVidVec3@@0@Z 1001efe0 f   Physics_Static.obj
 0001:0001dff0       ?Pain@idEntity@@UAE_NPAV1@0HABVidVec3@@H@Z 1001eff0 f   Entity.obj
 0001:0001e000       ?Killed@idEntity@@UAEXPAV1@0HABVidVec3@@H@Z 1001f000 f   Entity.obj
 0001:0001e010       ?CanPlayChatterSounds@idEntity@@UBE_NXZ 1001f010 f   Entity.obj
 0001:0001e010       ?NetworkSyncTarget@idFuncEmitter@@UBE_NXZ 1001f010 f   Misc.obj
 0001:0001e010       ?ShouldConstructScriptObjectAtSpawn@idEntity@@UBE_NXZ 1001f010 f   Entity.obj
 0001:0001e010       ?IsAtRest@idPhysics_Base@@UBE_NXZ 1001f010 f   Physics_Base.obj
 0001:0001e010       ?IsPushable@idPhysics_Base@@UBE_NXZ 1001f010 f   Physics_Base.obj
 0001:0001e010       ?NetworkSyncTarget@idStaticEntity@@UBE_NXZ 1001f010 f   Misc.obj
 0001:0001e010       ?IsAtRest@idPhysics_Static@@UBE_NXZ 1001f010 f   Physics_Static.obj
 0001:0001e010       ?NetworkSyncTarget@idAnimatedEntity@@UBE_NXZ 1001f010 f   Entity.obj
 0001:0001e010       ?IsAtRest@idPhysics_StaticMulti@@UBE_NXZ 1001f010 f   Physics_StaticMulti.obj
 0001:0001e010       ?NetworkSyncTarget@idLight@@UBE_NXZ 1001f010 f   Light.obj
 0001:0001e020       ?TriggerGuis@idEntity@@QAEXXZ 1001f020 f   Entity.obj
 0001:0001e050       ?Event_SetOwner@idEntity@@AAEXPAV1@@Z 1001f050 f   Entity.obj
 0001:0001e0a0       ?Event_GetShaderParm@idEntity@@AAEXH@Z 1001f0a0 f   Entity.obj
 0001:0001e0e0       ?Event_SetColor@idEntity@@AAEXMMM@Z 1001f0e0 f   Entity.obj
 0001:0001e110       ?Event_GetColor@idEntity@@AAEXXZ 1001f110 f   Entity.obj
 0001:0001e130       ?Event_IsHidden@idEntity@@AAEXXZ 1001f130 f   Entity.obj
 0001:0001e150       ?Event_FadeSound@idEntity@@AAEXHMM@Z 1001f150 f   Entity.obj
 0001:0001e180       ?Event_GetWorldOrigin@idEntity@@AAEXXZ 1001f180 f   Entity.obj
 0001:0001e1a0       ?Event_SetLinearVelocity@idEntity@@AAEXABVidVec3@@@Z 1001f1a0 f   Entity.obj
 0001:0001e1c0       ?Event_GetLinearVelocity@idEntity@@AAEXXZ 1001f1c0 f   Entity.obj
 0001:0001e1e0       ?Event_SetAngularVelocity@idEntity@@AAEXABVidVec3@@@Z 1001f1e0 f   Entity.obj
 0001:0001e200       ?Event_GetAngularVelocity@idEntity@@AAEXXZ 1001f200 f   Entity.obj
 0001:0001e220       ?Event_SetGuiFloat@idEntity@@AAEXPBDM@Z 1001f220 f   Entity.obj
 0001:0001e290       ?Event_SetKey@idEntity@@AAEXPBD0@Z 1001f290 f   Entity.obj
 0001:0001e2a0       ?Event_GetIntKey@idEntity@@AAEXPBD@Z 1001f2a0 f   Entity.obj
 0001:0001e2d0       ?Event_GetFloatKey@idEntity@@AAEXPBD@Z 1001f2d0 f   Entity.obj
 0001:0001e300       ?Event_GetVectorKey@idEntity@@AAEXPBD@Z 1001f300 f   Entity.obj
 0001:0001e330       ?Event_DistanceTo@idEntity@@AAEXPAV1@@Z 1001f330 f   Entity.obj
 0001:0001e420       ?Event_DistanceToPoint@idEntity@@AAEXABVidVec3@@@Z 1001f420 f   Entity.obj
 0001:0001e4d0       ?Event_StartFx@idEntity@@AAEXPBD@Z 1001f4d0 f   Entity.obj
 0001:0001e4f0       ?Event_WaitFrame@idEntity@@AAEXXZ 1001f4f0 f   Entity.obj
 0001:0001e510       ?Event_Wait@idEntity@@AAEXM@Z 1001f510 f   Entity.obj
 0001:0001e550       ?Event_HasFunction@idEntity@@AAEXPBD@Z 1001f550 f   Entity.obj
 0001:0001e580       ?Event_CallFunction@idEntity@@AAEXPBD@Z 1001f580 f   Entity.obj
 0001:0001e640       ?Event_SetNeverDormant@idEntity@@AAEXH@Z 1001f640 f   Entity.obj
 0001:0001e670       ?WriteBindToSnapshot@idEntity@@QBEXAAVidBitMsgDelta@@@Z 1001f670 f   Entity.obj
 0001:0001e6f0       ?WriteHiddenToSnapshot@idEntity@@QBEXAAVidBitMsgDelta@@@Z 1001f6f0 f   Entity.obj
 0001:0001e710       ?ServerReceiveEvent@idEntity@@UAE_NHHABVidBitMsg@@@Z 1001f710 f   Entity.obj
 0001:0001e720       ?GetType@idAnimatedEntity@@UBEPAVidTypeInfo@@XZ 1001f720 f   Entity.obj
 0001:0001e730       ?Save@idAnimatedEntity@@QBEXPAVidSaveGame@@@Z 1001f730 f   Entity.obj
 0001:0001e740       ?Restore@idAnimatedEntity@@QAEXPAVidRestoreGame@@@Z 1001f740 f   Entity.obj
 0001:0001e7c0       ?GetAnimator@idAnimatedEntity@@UAEPAVidAnimator@@XZ 1001f7c0 f   Entity.obj
 0001:0001e7d0       ?Event_GetJointHandle@idAnimatedEntity@@AAEXPBD@Z 1001f7d0 f   Entity.obj
 0001:0001e7f0       ?Event_ClearAllJoints@idAnimatedEntity@@AAEXXZ 1001f7f0 f   Entity.obj
 0001:0001e800       ?Event_ClearJoint@idAnimatedEntity@@AAEXW4jointHandle_t@@@Z 1001f800 f   Entity.obj
 0001:0001e810       ?Event_SetJointPos@idAnimatedEntity@@AAEXW4jointHandle_t@@W4jointModTransform_t@@ABVidVec3@@@Z 1001f810 f   Entity.obj
 0001:0001e820       ?Event_SetJointAngle@idAnimatedEntity@@AAEXW4jointHandle_t@@W4jointModTransform_t@@ABVidAngles@@@Z 1001f820 f   Entity.obj
 0001:0001e8a0       ?UpdateGuiParms@@YAXPAVidUserInterface@@PBVidDict@@@Z 1001f8a0 f   Entity.obj
 0001:0001e960       ?ParseSpawnArgsToRefSound@idGameEdit@@UAEXPBVidDict@@PAUrefSound_t@@@Z 1001f960 f   Entity.obj
 0001:0001ebe0       ?UpdateChangeableSpawnArgs@idEntity@@UAEXPBVidDict@@@Z 1001fbe0 f   Entity.obj
 0001:0001ec50       ?FixupLocalizedStrings@idEntity@@AAEXXZ 1001fc50 f   Entity.obj
 0001:0001ecc0       ?Save@idEntity@@QBEXPAVidSaveGame@@@Z 1001fcc0 f   Entity.obj
 0001:0001ef20       ?GetEntityDefName@idEntity@@QBEPBDXZ 1001ff20 f   Entity.obj
 0001:0001ef50       ?SetName@idEntity@@QAEXPBD@Z 1001ff50 f   Entity.obj
 0001:0001f000       ?IsActive@idEntity@@QBE_NXZ 10020000 f   Entity.obj
 0001:0001f010       ?BecomeInactive@idEntity@@QAEXH@Z 10020010 f   Entity.obj
 0001:0001f0c0       ?GetColor@idEntity@@UBEXAAVidVec4@@@Z 100200c0 f   Entity.obj
 0001:0001f0f0       ?UpdateModelTransform@idEntity@@QAEXXZ 100200f0 f   Entity.obj
 0001:0001f370       ?UpdatePVSAreas@idEntity@@AAEXXZ 10020370 f   Entity.obj
 0001:0001f4d0       ?UpdatePVSAreas@idEntity@@QAEXABVidVec3@@@Z 100204d0 f   Entity.obj
 0001:0001f540       ?GetNumPVSAreas@idEntity@@QAEHXZ 10020540 f   Entity.obj
 0001:0001f560       ?GetPVSAreas@idEntity@@QAEPBHXZ 10020560 f   Entity.obj
 0001:0001f580       ?PhysicsTeamInPVS@idEntity@@QAE_NUpvsHandle_s@@@Z 10020580 f   Entity.obj
 0001:0001f640       ?Present@idEntity@@UAEXXZ  10020640 f   Entity.obj
 0001:0001f6d0       ?UpdateSound@idEntity@@QAEXXZ 100206d0 f   Entity.obj
 0001:0001f7f0       ?Unbind@idEntity@@QAEXXZ   100207f0 f   Entity.obj
 0001:0001f950       ?RemoveBinds@idEntity@@AAEXXZ 10020950 f   Entity.obj
 0001:0001f9a0       ?ConvertLocalToWorldTransform@idEntity@@QAEXAAVidVec3@@AAVidMat3@@@Z 100209a0 f   Entity.obj
 0001:0001fb00       ?GetMasterPosition@idEntity@@QBE_NAAVidVec3@@AAVidMat3@@@Z 10020b00 f   Entity.obj
 0001:0001fde0       ?JoinTeam@idEntity@@QAEXPAV1@@Z 10020de0 f   Entity.obj
 0001:0001ff00       ?GetFloorPos@idEntity@@QBE_NMAAVidVec3@@@Z 10020f00 f   Entity.obj
 0001:00020020       ?CanDamage@idEntity@@UBE_NABVidVec3@@AAV2@@Z 10021020 f   Entity.obj
 0001:000203a0       ?Damage@idEntity@@UAEXPAV1@0ABVidVec3@@PBDMH@Z 100213a0 f   Entity.obj
 0001:00020490       ?ConstructScriptObject@idEntity@@UAEPAVidThread@@XZ 10021490 f   Entity.obj
 0001:00020540       ?DeconstructScriptObject@idEntity@@UAEXXZ 10021540 f   Entity.obj
 0001:000205f0       ?ClearSignalThread@idEntity@@QAEXW4signalNum_t@@PAVidThread@@@Z 100215f0 f   Entity.obj
 0001:00020690       ?Signal@idEntity@@QAEXW4signalNum_t@@@Z 10021690 f   Entity.obj
 0001:00020740       ?FindTargets@idEntity@@QAEXXZ 10021740 f   Entity.obj
 0001:00020820       ?RemoveNullTargets@idEntity@@QAEXXZ 10021820 f   Entity.obj
 0001:000208b0       ?TouchTriggers@idEntity@@QBE_NXZ 100218b0 f   Entity.obj
 0001:00020a90       ?Event_GetName@idEntity@@AAEXXZ 10021a90 f   Entity.obj
 0001:00020aa0       ?Event_SetName@idEntity@@AAEXPBD@Z 10021aa0 f   Entity.obj
 0001:00020ab0       ?Event_FindTargets@idEntity@@AAEXXZ 10021ab0 f   Entity.obj
 0001:00020ac0       ?Event_NumTargets@idEntity@@AAEXXZ 10021ac0 f   Entity.obj
 0001:00020ae0       ?Event_GetTarget@idEntity@@AAEXM@Z 10021ae0 f   Entity.obj
 0001:00020b50       ?Event_RandomTarget@idEntity@@AAEXPBD@Z 10021b50 f   Entity.obj
 0001:00020c80       ?Event_GetAngles@idEntity@@AAEXXZ 10021c80 f   Entity.obj
 0001:00020cd0       ?Event_SetSize@idEntity@@AAEXABVidVec3@@0@Z 10021cd0 f   Entity.obj
 0001:00020d20       ?Event_GetSize@idEntity@@AAEXXZ 10021d20 f   Entity.obj
 0001:00020d90       ?Event_GetMins@idEntity@@AAEXXZ 10021d90 f   Entity.obj
 0001:00020db0       ?Event_GetMaxs@idEntity@@AAEXXZ 10021db0 f   Entity.obj
 0001:00020dd0       ?Event_Touches@idEntity@@AAEXPAV1@@Z 10021dd0 f   Entity.obj
 0001:00020e90       ?Event_GetNextKey@idEntity@@AAEXPBD0@Z 10021e90 f   Entity.obj
 0001:00020ee0       ?Event_GetKey@idEntity@@AAEXPBD@Z 10021ee0 f   Entity.obj
 0001:00020f10       ?Event_GetEntityKey@idEntity@@AAEXPBD@Z 10021f10 f   Entity.obj
 0001:00020f80       ?Event_RestorePosition@idEntity@@AAEXXZ 10021f80 f   Entity.obj
 0001:000210d0       ?WriteColorToSnapshot@idEntity@@QBEXAAVidBitMsgDelta@@@Z 100220d0 f   Entity.obj
 0001:00021120       ?ReadColorFromSnapshot@idEntity@@QAEXABVidBitMsgDelta@@@Z 10022120 f   Entity.obj
 0001:00021170       ?WriteGUIToSnapshot@idEntity@@QBEXAAVidBitMsgDelta@@@Z 10022170 f   Entity.obj
 0001:000211f0       ?ReadGUIFromSnapshot@idEntity@@QAEXABVidBitMsgDelta@@@Z 100221f0 f   Entity.obj
 0001:00021240       ?ServerSendEvent@idEntity@@QAEXHPBVidBitMsg@@_NH@Z 10022240 f   Entity.obj
 0001:000213c0       ?ClientSendEvent@idEntity@@QBEXHPBVidBitMsg@@@Z 100223c0 f   Entity.obj
 0001:000214f0       ?ReadHiddenFromSnapshot@idEntity@@QAEXABVidBitMsgDelta@@@Z 100224f0 f   Entity.obj
 0001:00021560       ?DynamicNetworkSync@idEntity@@QAEXPBD@Z 10022560 f   Entity.obj
 0001:000215b0       ?GetJointWorldTransform@idAnimatedEntity@@QAE_NW4jointHandle_t@@HAAVidVec3@@AAVidMat3@@@Z 100225b0 f   Entity.obj
 0001:000215f0       ?GetJointTransformForAnim@idAnimatedEntity@@QBE_NW4jointHandle_t@@HHAAVidVec3@@AAVidMat3@@@Z 100225f0 f   Entity.obj
 0001:00021760       ?UpdateDamageEffects@idAnimatedEntity@@QAEXXZ 10022760 f   Entity.obj
 0001:00021a90       ?Event_GetJointPos@idAnimatedEntity@@AAEXW4jointHandle_t@@@Z 10022a90 f   Entity.obj
 0001:00021b10       ?Event_GetJointAngle@idAnimatedEntity@@AAEXW4jointHandle_t@@@Z 10022b10 f   Entity.obj
 0001:00021bb0       ?GetCurrentFirstDerivative@?$idCurve@VidVec3@@@@UBE?AVidVec3@@M@Z 10022bb0 f i Entity.obj
 0001:00021bb0       ?GetCurrentSecondDerivative@?$idCurve@VidVec3@@@@UBE?AVidVec3@@M@Z 10022bb0 f i Entity.obj
 0001:00021be0       ?RemoveIndex@?$idCurve@VidVec3@@@@UAEXH@Z 10022be0 f i Entity.obj
 0001:00021c70       ?Clear@?$idCurve@VidVec3@@@@UAEXXZ 10022c70 f i Entity.obj
 0001:00021cc0       ?GetCurrentValue@?$idCurve@VidVec3@@@@UBE?AVidVec3@@M@Z 10022cc0 f i Entity.obj
 0001:00021dd0       ?IsDone@?$idCurve@VidVec3@@@@UBE_NM@Z 10022dd0 f i Entity.obj
 0001:00021e00       ??1?$idCurve_Spline@VidVec3@@@@UAE@XZ 10022e00 f i Entity.obj
 0001:00021e80       ??_E?$idCurve@VidVec3@@@@UAEPAXI@Z 10022e80 f i Entity.obj
 0001:00021e80       ??_G?$idCurve@VidVec3@@@@UAEPAXI@Z 10022e80 f i Entity.obj
 0001:00021f10       ??1?$idCurve_NonUniformBSpline@VidVec3@@@@UAE@XZ 10022f10 f i Entity.obj
 0001:00021f20       ?Right@idStr@@QBE?AV1@H@Z  10022f20 f i Entity.obj
 0001:00021fa0       ?ParseSpawnArgsToRenderEntity@idGameEdit@@UAEXPBVidDict@@PAUrenderEntity_s@@@Z 10022fa0 f   Entity.obj
 0001:000224c0       ??0idEntity@@QAE@XZ        100234c0 f   Entity.obj
 0001:00022740       ?BecomeActive@idEntity@@QAEXH@Z 10023740 f   Entity.obj
 0001:00022820       ?UpdateModel@idEntity@@QAEXXZ 10023820 f   Entity.obj
 0001:00022860       ?UpdateVisuals@idEntity@@QAEXXZ 10023860 f   Entity.obj
 0001:000228b0       ?ProjectOverlay@idEntity@@UAEXABVidVec3@@0MPBD@Z 100238b0 f   Entity.obj
 0001:00022f00       ?GetRenderView@idEntity@@UAEPAUrenderView_s@@XZ 10023f00 f   Entity.obj
 0001:00023070       ?StartSoundShader@idEntity@@QAE_NPBVidSoundShader@@HH_NPAH@Z 10024070 f   Entity.obj
 0001:000231f0       ?StopSound@idEntity@@QAEXH_N@Z 100241f0 f   Entity.obj
 0001:000232a0       ?InitBind@idEntity@@AAE_NPAV1@@Z 100242a0 f   Entity.obj
 0001:00023320       ?FinishBind@idEntity@@AAEXXZ 10024320 f   Entity.obj
 0001:00023380       ?Bind@idEntity@@QAEXPAV1@_N@Z 10024380 f   Entity.obj
 0001:000233e0       ?BindToJoint@idEntity@@QAEXPAV1@PBD_N@Z 100243e0 f   Entity.obj
 0001:000234a0       ?BindToJoint@idEntity@@QAEXPAV1@W4jointHandle_t@@_N@Z 100244a0 f   Entity.obj
 0001:00023500       ?BindToBody@idEntity@@QAEXPAV1@H_N@Z 10024500 f   Entity.obj
 0001:00023580       ?GetLocalCoordinates@idEntity@@QBE?AVidVec3@@ABV2@@Z 10024580 f   Entity.obj
 0001:00023660       ?GetWorldVector@idEntity@@QBE?AVidVec3@@ABV2@@Z 10024660 f   Entity.obj
 0001:00023790       ?GetWorldCoordinates@idEntity@@QBE?AVidVec3@@ABV2@@Z 10024790 f   Entity.obj
 0001:000238d0       ?InitDefaultPhysics@idEntity@@AAEXABVidVec3@@ABVidMat3@@@Z 100248d0 f   Entity.obj
 0001:00023ce0       ?UpdateFromPhysics@idEntity@@AAEX_N@Z 10024ce0 f   Entity.obj
 0001:00023db0       ?SetOrigin@idEntity@@QAEXABVidVec3@@@Z 10024db0 f   Entity.obj
 0001:00023e10       ?SetAxis@idEntity@@QAEXABVidMat3@@@Z 10024e10 f   Entity.obj
 0001:00023ef0       ?Event_SetAngles@idEntity@@AAEXABVidAngles@@@Z 10024ef0 f   Entity.obj
 0001:00023ef0       ?SetAngles@idEntity@@QAEXABVidAngles@@@Z 10024ef0 f   Entity.obj
 0001:00023f20       ?GetPhysicsToSoundTransform@idEntity@@UAE_NAAVidVec3@@AAVidMat3@@@Z 10024f20 f   Entity.obj
 0001:00024000       ?AddDamageEffect@idEntity@@UAEXABUtrace_s@@ABVidVec3@@PBD@Z 10025000 f   Entity.obj
 0001:000241e0       ?ActivateTargets@idEntity@@QBEXPAV1@@Z 100251e0 f   Entity.obj
 0001:00024340       ?Teleport@idEntity@@UAEXABVidVec3@@ABVidAngles@@PAV1@@Z 10025340 f   Entity.obj
 0001:000243d0       ?Event_ActivateTargets@idEntity@@AAEXPAV1@@Z 100253d0 f   Entity.obj
 0001:000243e0       ?Event_BindToJoint@idEntity@@AAEXPAV1@PBDM@Z 100253e0 f   Entity.obj
 0001:00024460       ?Event_RemoveBinds@idEntity@@AAEXXZ 10025460 f   Entity.obj
 0001:000244b0       ?Event_Bind@idEntity@@AAEXPAV1@@Z 100254b0 f   Entity.obj
 0001:00024510       ?Event_BindPosition@idEntity@@AAEXPAV1@@Z 10025510 f   Entity.obj
 0001:00024570       ?Event_Unbind@idEntity@@AAEXXZ 10025570 f   Entity.obj
 0001:000245c0       ?Event_SpawnBind@idEntity@@AAEXXZ 100255c0 f   Entity.obj
 0001:00024840       ?Event_SetModel@idEntity@@AAEXPBD@Z 10025840 f   Entity.obj
 0001:000248b0       ?Event_SetSkin@idEntity@@AAEXPBD@Z 100258b0 f   Entity.obj
 0001:00024930       ?Event_SetShaderParms@idEntity@@AAEXMMMM@Z 10025930 f   Entity.obj
 0001:000249c0       ?Event_Hide@idEntity@@AAEXXZ 100259c0 f   Entity.obj
 0001:000249f0       ?Event_Show@idEntity@@AAEXXZ 100259f0 f   Entity.obj
 0001:00024a20       ?Event_StartSoundShader@idEntity@@AAEXPBDH@Z 10025a20 f   Entity.obj
 0001:00024a70       ?Event_StopSound@idEntity@@AAEXHH@Z 10025a70 f   Entity.obj
 0001:00024a90       ?Event_SetWorldOrigin@idEntity@@AAEXABVidVec3@@@Z 10025a90 f   Entity.obj
 0001:00024ac0       ?Event_SetOrigin@idEntity@@AAEXABVidVec3@@@Z 10025ac0 f   Entity.obj
 0001:00024ad0       ?Event_GetOrigin@idEntity@@AAEXXZ 10025ad0 f   Entity.obj
 0001:00024b10       ?Event_SetGuiParm@idEntity@@AAEXPBD0@Z 10025b10 f   Entity.obj
 0001:00024bd0       ?Event_UpdateCameraTarget@idEntity@@AAEXXZ 10025bd0 f   Entity.obj
 0001:00024e10       ?ReadBindFromSnapshot@idEntity@@QAEXABVidBitMsgDelta@@@Z 10025e10 f   Entity.obj
 0001:00024ea0       ?UpdateAnimation@idAnimatedEntity@@QAEXXZ 10025ea0 f   Entity.obj
 0001:00024f50       ?AddLocalDamageEffect@idAnimatedEntity@@QAEXW4jointHandle_t@@ABVidVec3@@11PBVidDeclEntityDef@@PBVidMaterial@@@Z 10025f50 f   Entity.obj
 0001:000254d0       ?AddValue@?$idCurve@VidVec3@@@@UAEHMABVidVec3@@@Z 100264d0 f i Entity.obj
 0001:000259d0       ?SetBoundaryType@?$idCurve_Spline@VidVec3@@@@UAEXW4boundary_t@1@@Z 100269d0 f i Entity.obj
 0001:000259e0       ?SetCloseTime@?$idCurve_Spline@VidVec3@@@@UAEXM@Z 100269e0 f i Entity.obj
 0001:000259f0       ?GetCloseTime@?$idCurve_Spline@VidVec3@@@@UAEMXZ 100269f0 f i Entity.obj
 0001:00025a10       ?IsDone@?$idCurve_Spline@VidVec3@@@@UBE_NM@Z 10026a10 f i Entity.obj
 0001:00025a40       ?Spawn@idEntity@@QAEXXZ    10026a40 f   Entity.obj
 0001:00025f50       ?SetShaderParm@idEntity@@QAEXHM@Z 10026f50 f   Entity.obj
 0001:00025f90       ?SetColor@idEntity@@UAEXMMM@Z 10026f90 f   Entity.obj
 0001:00026000       ?SetColor@idEntity@@UAEXABVidVec3@@@Z 10027000 f   Entity.obj
 0001:00026070       ?SetColor@idEntity@@UAEXABVidVec4@@@Z 10027070 f   Entity.obj
 0001:000260e0       ?SetModel@idEntity@@UAEXPBD@Z 100270e0 f   Entity.obj
 0001:000261f0       ?SetSkin@idEntity@@QAEXPBVidDeclSkin@@@Z 100271f0 f   Entity.obj
 0001:00026250       ?Hide@idEntity@@UAEXXZ     10027250 f   Entity.obj
 0001:00026280       ?Show@idEntity@@UAEXXZ     10027280 f   Entity.obj
 0001:000262a0       ?StartSound@idEntity@@QAE_NPBDHH_NPAH@Z 100272a0 f   Entity.obj
 0001:00026320       ?RunPhysics@idEntity@@QAE_NXZ 10027320 f   Entity.obj
 0001:00026600       ?SetSignal@idEntity@@QAEXW4signalNum_t@@PAVidThread@@PBVfunction_t@@@Z 10027600 f   Entity.obj
 0001:00026840       ?HandleGuiCommands@idEntity@@QAE_NPAV1@PBD@Z 10027840 f   Entity.obj
 0001:000271c0       ?Event_SetShaderParm@idEntity@@AAEXHM@Z 100281c0 f   Entity.obj
 0001:00027280       ?Event_StartSound@idEntity@@AAEXPBDHH@Z 10028280 f   Entity.obj
 0001:000272c0       ?ClientPredictionThink@idEntity@@UAEXXZ 100282c0 f   Entity.obj
 0001:000272c0       ?Think@idMultiModelAF@@UAEXXZ 100282c0 f   AFEntity.obj
 0001:000272c0       ?Think@idEntity@@UAEXXZ    100282c0 f   Entity.obj
 0001:000272e0       ?ClientReceiveEvent@idEntity@@UAE_NHHABVidBitMsg@@@Z 100282e0 f   Entity.obj
 0001:000274b0       ?ClientPredictionThink@idAnimatedEntity@@UAEXXZ 100284b0 f   Entity.obj
 0001:000274d0       ?Think@idAnimatedEntity@@UAEXXZ 100284d0 f   Entity.obj
 0001:000274f0       ?SetModel@idAnimatedEntity@@UAEXPBD@Z 100284f0 f   Entity.obj
 0001:00027590       ?AddDamageEffect@idAnimatedEntity@@UAEXABUtrace_s@@ABVidVec3@@PBD@Z 10028590 f   Entity.obj
 0001:00027c80       ?ClientReceiveEvent@idAnimatedEntity@@UAE_NHHABVidBitMsg@@@Z 10028c80 f   Entity.obj
 0001:00027dc0       ?GetCurrentValue@?$idCurve_CatmullRomSpline@VidVec3@@@@UBE?AVidVec3@@M@Z 10028dc0 f i Entity.obj
 0001:00028370       ?GetCurrentFirstDerivative@?$idCurve_CatmullRomSpline@VidVec3@@@@UBE?AVidVec3@@M@Z 10029370 f i Entity.obj
 0001:00028a60       ?GetCurrentSecondDerivative@?$idCurve_CatmullRomSpline@VidVec3@@@@UBE?AVidVec3@@M@Z 10029a60 f i Entity.obj
 0001:00029140       ?GetOrder@?$idCurve_BSpline@VidVec3@@@@UBEHXZ 1002a140 f i Entity.obj
 0001:00029150       ?SetOrder@?$idCurve_BSpline@VidVec3@@@@UAEXH@Z 1002a150 f i Entity.obj
 0001:00029160       ?Basis@?$idCurve_BSpline@VidVec3@@@@IBEMHHM@Z 1002a160 f i Entity.obj
 0001:00029720       ?GetCurrentValue@?$idCurve_BSpline@VidVec3@@@@UBE?AVidVec3@@M@Z 1002a720 f i Entity.obj
 0001:00029fd0       ?GetCurrentFirstDerivative@?$idCurve_BSpline@VidVec3@@@@UBE?AVidVec3@@M@Z 1002afd0 f i Entity.obj
 0001:0002ae50       ?GetCurrentSecondDerivative@?$idCurve_BSpline@VidVec3@@@@UBE?AVidVec3@@M@Z 1002be50 f i Entity.obj
 0001:0002c8c0       ??_E?$idCurve_BSpline@VidVec3@@@@UAEPAXI@Z 1002d8c0 f i Entity.obj
 0001:0002c8c0       ??_E?$idCurve_CatmullRomSpline@VidVec3@@@@UAEPAXI@Z 1002d8c0 f i Entity.obj
 0001:0002c8c0       ??_E?$idCurve_NonUniformBSpline@VidVec3@@@@UAEPAXI@Z 1002d8c0 f i Entity.obj
 0001:0002c8c0       ??_G?$idCurve_CatmullRomSpline@VidVec3@@@@UAEPAXI@Z 1002d8c0 f i Entity.obj
 0001:0002c8c0       ??_G?$idCurve_BSpline@VidVec3@@@@UAEPAXI@Z 1002d8c0 f i Entity.obj
 0001:0002c8c0       ??_G?$idCurve_NonUniformBSpline@VidVec3@@@@UAEPAXI@Z 1002d8c0 f i Entity.obj
 0001:0002c8e0       ??1idEntity@@UAE@XZ        1002d8e0 f   Entity.obj
 0001:0002cbe0       ?Restore@idEntity@@QAEXPAVidRestoreGame@@@Z 1002dbe0 f   Entity.obj
 0001:0002d100       ??0idAnimatedEntity@@QAE@XZ 1002e100 f   Entity.obj
 0001:0002d170       ??1idAnimatedEntity@@UAE@XZ 1002e170 f   Entity.obj
 0001:0002d1f0       ?GetCurrentValue@?$idCurve_NonUniformBSpline@VidVec3@@@@UBE?AVidVec3@@M@Z 1002e1f0 f i Entity.obj
 0001:0002d7b0       ?GetCurrentFirstDerivative@?$idCurve_NonUniformBSpline@VidVec3@@@@UBE?AVidVec3@@M@Z 1002e7b0 f i Entity.obj
 0001:0002dfd0       ?GetCurrentSecondDerivative@?$idCurve_NonUniformBSpline@VidVec3@@@@UBE?AVidVec3@@M@Z 1002efd0 f i Entity.obj
 0001:0002ea80       ?RemoveIndex@?$idCurve_NURBS@VidVec3@@@@UAEXH@Z 1002fa80 f i Entity.obj
 0001:0002eb40       ?Clear@?$idCurve_NURBS@VidVec3@@@@UAEXXZ 1002fb40 f i Entity.obj
 0001:0002eba0       ?GetCurrentValue@?$idCurve_NURBS@VidVec3@@@@UBE?AVidVec3@@M@Z 1002fba0 f i Entity.obj
 0001:0002f200       ?GetCurrentFirstDerivative@?$idCurve_NURBS@VidVec3@@@@UBE?AVidVec3@@M@Z 10030200 f i Entity.obj
 0001:0002fdd0       ?GetCurrentSecondDerivative@?$idCurve_NURBS@VidVec3@@@@UBE?AVidVec3@@M@Z 10030dd0 f i Entity.obj
 0001:00031240       ??1?$idCurve_NURBS@VidVec3@@@@UAE@XZ 10032240 f i Entity.obj
 0001:000312a0       ?AddValue@?$idCurve_NURBS@VidVec3@@@@UAEHMABVidVec3@@M@Z 100322a0 f i Entity.obj
 0001:00031930       ?AddValue@?$idCurve_NURBS@VidVec3@@@@UAEHMABVidVec3@@@Z 10032930 f i Entity.obj
 0001:00031fc0       ??_G?$idCurve_NURBS@VidVec3@@@@UAEPAXI@Z 10032fc0 f i Entity.obj
 0001:00031fc0       ??_E?$idCurve_NURBS@VidVec3@@@@UAEPAXI@Z 10032fc0 f i Entity.obj
 0001:00031fe0       ?GetSpline@idEntity@@QBEPAV?$idCurve_Spline@VidVec3@@@@XZ 10032fe0 f   Entity.obj
 0001:00032300       ?CreateInstance@idAnimatedEntity@@SAPAVidClass@@XZ 10033300 f   Entity.obj
 0001:000323a0       ??_EidAnimatedEntity@@UAEPAXI@Z 100333a0 f i Entity.obj
 0001:000323a0       ??_GidAnimatedEntity@@UAEPAXI@Z 100333a0 f i Entity.obj
 0001:000323c0       ?GetType@idEntityFx@@UBEPAVidTypeInfo@@XZ 100333c0 f   Fx.obj
 0001:000323d0       ?CleanUpSingleAction@idEntityFx@@IAEXABUidFXSingleAction@@AAUidFXLocalAction@@@Z 100333d0 f   Fx.obj
 0001:00032440       ?ApplyFade@idEntityFx@@IAEXABUidFXSingleAction@@AAUidFXLocalAction@@HH@Z 10033440 f   Fx.obj
 0001:000325c0       ?GetType@idTeleporter@@UBEPAVidTypeInfo@@XZ 100335c0 f   Fx.obj
 0001:000325d0       ?Save@idEntityFx@@QBEXPAVidSaveGame@@@Z 100335d0 f   Fx.obj
 0001:00032740       ?Joint@idEntityFx@@QAEPBDXZ 10033740 f   Fx.obj
 0001:00032760       ?CleanUp@idEntityFx@@IAEXXZ 10033760 f   Fx.obj
 0001:000327c0       ?Start@idEntityFx@@QAEXH@Z 100337c0 f   Fx.obj
 0001:00032830       ?Duration@idEntityFx@@QAE?BHXZ 10033830 f   Fx.obj
 0001:00032880       ?Event_ClearFx@idEntityFx@@IAEXXZ 10033880 f   Fx.obj
 0001:00032a20       ?WriteToSnapshot@idEntityFx@@UBEXAAVidBitMsgDelta@@@Z 10033a20 f   Fx.obj
 0001:00032aa0       ?Event_DoAction@idTeleporter@@AAEXPAVidEntity@@@Z 10033aa0 f   Fx.obj
 0001:00032b50       ??4renderLight_s@@QAEAAU0@ABU0@@Z 10033b50 f i Fx.obj
 0001:00032ce0       ?Run@idEntityFx@@QAEXH@Z   10033ce0 f   Fx.obj
 0001:000338c0       ??0idEntityFx@@QAE@XZ      100348c0 f   Fx.obj
 0001:00033950       ??1idEntityFx@@UAE@XZ      10034950 f   Fx.obj
 0001:000339f0       ?Think@idEntityFx@@UAEXXZ  100349f0 f   Fx.obj
 0001:00033a30       ?StartFx@idEntityFx@@SAPAV1@PBDPBVidVec3@@PBVidMat3@@PAVidEntity@@_N@Z 10034a30 f   Fx.obj
 0001:00033cc0       ?ClientPredictionThink@idEntityFx@@UAEXXZ 10034cc0 f   Fx.obj
 0001:00033cf0       ??4idFXLocalAction@@QAEAAU0@ABU0@@Z 10034cf0 f i Fx.obj
 0001:00033d90       ?CreateInstance@idEntityFx@@SAPAVidClass@@XZ 10034d90 f   Fx.obj
 0001:00033e30       ?CreateInstance@idTeleporter@@SAPAVidClass@@XZ 10034e30 f   Fx.obj
 0001:00033ee0       ??_EidEntityFx@@UAEPAXI@Z  10034ee0 f i Fx.obj
 0001:00033ee0       ??_GidTeleporter@@UAEPAXI@Z 10034ee0 f i Fx.obj
 0001:00033ee0       ??_EidTeleporter@@UAEPAXI@Z 10034ee0 f i Fx.obj
 0001:00033ee0       ??_GidEntityFx@@UAEPAXI@Z  10034ee0 f i Fx.obj
 0001:00033f00       ?Restore@idEntityFx@@QAEXPAVidRestoreGame@@@Z 10034f00 f   Fx.obj
 0001:000341d0       ?Setup@idEntityFx@@QAEXPBD@Z 100351d0 f   Fx.obj
 0001:00034490       ?Spawn@idEntityFx@@QAEXXZ  10035490 f   Fx.obj
 0001:000345d0       ?Event_Trigger@idEntityFx@@IAEXPAVidEntity@@@Z 100355d0 f   Fx.obj
 0001:000346e0       ?ReadFromSnapshot@idEntityFx@@UAEXABVidBitMsgDelta@@@Z 100356e0 f   Fx.obj
 0001:000347f0       ??1idClip@@QAE@XZ          100357f0 f i Game_local.obj
 0001:00034840       _GetGameAPI                10035840 f   Game_local.obj
 0001:00034920       ?GetPersistentPlayerInfo@idGameLocal@@UAEABVidDict@@H@Z 10035920 f   Game_local.obj
 0001:00034980       ?SetPersistentPlayerInfo@idGameLocal@@UAEXHABVidDict@@@Z 10035980 f   Game_local.obj
 0001:000349a0       ?Printf@idGameLocal@@QBAXPBDZZ 100359a0 f   Game_local.obj
 0001:000349e0       ?Warning@idGameLocal@@QBAXPBDZZ 100359e0 f   Game_local.obj
 0001:00034a40       ?Error@idGameLocal@@QBAXPBDZZ 10035a40 f   Game_local.obj
 0001:00034aa0       ?gameError@@YAXPBDZZ       10035aa0 f   Game_local.obj
 0001:00034ae0       ?SetLocalClient@idGameLocal@@UAEXH@Z 10035ae0 f   Game_local.obj
 0001:00034af0       ?GetUserInfo@idGameLocal@@UAEPBVidDict@@H@Z 10035af0 f   Game_local.obj
 0001:00034b30       ?InitScriptForMap@idGameLocal@@AAEXXZ 10035b30 f   Game_local.obj
 0001:00034c10       ?GetClientByNum@idGameLocal@@QBEPAVidPlayer@@H@Z 10035c10 f   Game_local.obj
 0001:00034c30       ?GetNextClientNum@idGameLocal@@QBEHH@Z 10035c30 f   Game_local.obj
 0001:00034c90       ?GetLocalPlayer@idGameLocal@@QBEPAVidPlayer@@XZ 10035c90 f   Game_local.obj
 0001:00034ce0       ?GetClientPVS@idGameLocal@@AAE?AUpvsHandle_s@@PAVidPlayer@@W4pvsType_t@@@Z 10035ce0 f   Game_local.obj
 0001:00034d40       ?SetupPlayerPVS@idGameLocal@@AAEXXZ 10035d40 f   Game_local.obj
 0001:00034f10       ?InPlayerPVS@idGameLocal@@QBE_NPAVidEntity@@@Z 10035f10 f   Game_local.obj
 0001:00034f60       ?InPlayerConnectedArea@idGameLocal@@QBE_NPAVidEntity@@@Z 10035f60 f   Game_local.obj
 0001:00034fb0       ?GetGravity@idGameLocal@@QBEABVidVec3@@XZ 10035fb0 f   Game_local.obj
 0001:00034fc0       ?Draw@idGameLocal@@UAE_NH@Z 10035fc0 f   Game_local.obj
 0001:00035000       ?HandleESC@idGameLocal@@UAE?AW4escReply_t@@PAPAVidUserInterface@@@Z 10036000 f   Game_local.obj
 0001:00035090       ?StartMenu@idGameLocal@@UAEPAVidUserInterface@@XZ 10036090 f   Game_local.obj
 0001:000350b0       ?HandleGuiCommands@idGameLocal@@UAEPBDPBD@Z 100360b0 f   Game_local.obj
 0001:000350d0       ?CallFrameCommand@idGameLocal@@QAEXPAVidEntity@@PBVfunction_t@@@Z 100360d0 f   Game_local.obj
 0001:00035100       ?SpawnEntityType@idGameLocal@@QAEPAVidEntity@@ABVidTypeInfo@@PBVidDict@@_N@Z 10036100 f   Game_local.obj
 0001:000351e0       ?FindEntityDefByIndex@idGameLocal@@QBEPBVidDeclEntityDef@@H_N@Z 100361e0 f   Game_local.obj
 0001:00035200       ?FindEntityDef@idGameLocal@@QBEPBVidDeclEntityDef@@PBD_N@Z 10036200 f   Game_local.obj
 0001:00035260       ?FindEntityDefDict@idGameLocal@@QBEPBVidDict@@PBD_N@Z 10036260 f   Game_local.obj
 0001:00035280       ?GameState@idGameLocal@@QBE?AW4gameState_t@@XZ 10036280 f   Game_local.obj
 0001:00035290       ?GetTraceEntity@idGameLocal@@QBEPAVidEntity@@ABUtrace_s@@@Z 10036290 f   Game_local.obj
 0001:000352d0       ?GetCamera@idGameLocal@@QBEPAVidCamera@@XZ 100362d0 f   Game_local.obj
 0001:000352e0       ?LocationForPoint@idGameLocal@@QAEPAVidLocationEntity@@ABVidVec3@@@Z 100362e0 f   Game_local.obj
 0001:00035340       ?sortSpawnPoints@idGameLocal@@CAHPBX0@Z 10036340 f   Game_local.obj
 0001:00035390       ?SetGlobalMaterial@idGameLocal@@QAEXPBVidMaterial@@@Z 10036390 f   Game_local.obj
 0001:000353a0       ?GetGlobalMaterial@idGameLocal@@QAEPBVidMaterial@@XZ 100363a0 f   Game_local.obj
 0001:000353b0       ?GetSpawnId@idGameLocal@@QBEHPBVidEntity@@@Z 100363b0 f   Game_local.obj
 0001:000353d0       ?ThrottleUserInfo@idGameLocal@@UAEXXZ 100363d0 f   Game_local.obj
 0001:000353e0       ?GetTimeGroupTime@idGameLocal@@EAEHH@Z 100363e0 f   Game_local.obj
 0001:000353f0       ?GetBestGameType@idGameLocal@@EAEXPBD0QAD@Z 100363f0 f   Game_local.obj
 0001:00035420       ?GetClientStats@idGameLocal@@UAEXHPADH@Z 10036420 f   Game_local.obj
 0001:00035430       ?SwitchTeam@idGameLocal@@UAEXHH@Z 10036430 f   Game_local.obj
 0001:00035480       ??$idDeclAllocator@VidDeclModelDef@@@@YAPAVidDecl@@XZ 10036480 f i Game_local.obj
 0001:000354e0       ??$idListDecls_f@$04@@YAXABVidCmdArgs@@@Z 100364e0 f i Game_local.obj
 0001:00035500       ??$idPrintDecls_f@$04@@YAXABVidCmdArgs@@@Z 10036500 f i Game_local.obj
 0001:00035520       ??$ArgCompletion_Decl@$04@idCmdSystem@@SAXABVidCmdArgs@@P6AXPBD@Z@Z 10036520 f i Game_local.obj
 0001:00035540       ?Shutdown@?$idBlockAlloc@UentityNetEvent_s@@$0CA@@@QAEXXZ 10036540 f i Game_local.obj
 0001:00035590       ?Shutdown@?$idBlockAlloc@Usnapshot_s@@$0EA@@@QAEXXZ 10036590 f i Game_local.obj
 0001:000355e0       ?Left@idStr@@QBE?AV1@H@Z   100365e0 f i Game_local.obj
 0001:00035610       ?Argv@idCmdArgs@@QBEPBDH@Z 10036610 f i Game_local.obj
 0001:00035630       ?ArgCompletion_Boolean@idCmdSystem@@SAXABVidCmdArgs@@P6AXPBD@Z@Z 10036630 f i Game_local.obj
 0001:00035690       ??_EidCVar@@UAEPAXI@Z      10036690 f i Game_local.obj
 0001:00035690       ??_GidCVar@@UAEPAXI@Z      10036690 f i Game_local.obj
 0001:000356b0       ??1idDecl@@UAE@XZ          100366b0 f i Game_local.obj
 0001:000356c0       ?SetDefaultText@idDecl@@UAE_NXZ 100366c0 f i Game_local.obj
 0001:000356d0       ?DefaultDefinition@idDecl@@UBEPBDXZ 100366d0 f i Game_local.obj
 0001:000356e0       ?ReadFloat@idRestoreGame@@QAEXAAM@Z 100366e0 f i SaveGame.obj
 0001:000356e0       ?Parse@idDecl@@UAE_NPBDH@Z 100366e0 f i Game_local.obj
 0001:000356f0       ?FreeData@idDecl@@UAEXXZ   100366f0 f i Game_local.obj
 0001:00035700       ?Size@idDecl@@UBEIXZ       10036700 f i Game_local.obj
 0001:00035710       ?List@idDecl@@UBEXXZ       10036710 f i Game_local.obj
 0001:00035720       ?Print@idDecl@@UBEXXZ      10036720 f i Game_local.obj
 0001:00035730       ??_EidDecl@@UAEPAXI@Z      10036730 f i Game_local.obj
 0001:00035730       ??_GidDecl@@UAEPAXI@Z      10036730 f i Game_local.obj
 0001:00035750       ??1idGame@@UAE@XZ          10036750 f i Game_local.obj
 0001:00035760       ??_EidGame@@UAEPAXI@Z      10036760 f i Game_local.obj
 0001:00035760       ??_GidGame@@UAEPAXI@Z      10036760 f i Game_local.obj
 0001:00035780       ??1mpChatLine_s@@QAE@XZ    10036780 f i Game_local.obj
 0001:00035780       ??1idToken@@QAE@XZ         10036780 f i Actor.obj
 0001:00035780       ??1idStr@@QAE@XZ           10036780 f i Actor.obj
 0001:00035790       ?DPrintf@idGameLocal@@QBAXPBDZZ 10036790 f   Game_local.obj
 0001:000357f0       ?DWarning@idGameLocal@@QBAXPBDZZ 100367f0 f   Game_local.obj
 0001:00035860       ?SetUserInfo@idGameLocal@@UAEPBVidDict@@HABV2@_N1@Z 10036860 f   Game_local.obj
 0001:00035a70       ?GetClientByName@idGameLocal@@QBEPAVidPlayer@@PBD@Z 10036a70 f   Game_local.obj
 0001:00035b10       ?GetClientByCmdArgs@idGameLocal@@QBEPAVidPlayer@@ABVidCmdArgs@@@Z 10036b10 f   Game_local.obj
 0001:00035c70       ?UpdateGravity@idGameLocal@@AAEXXZ 10036c70 f   Game_local.obj
 0001:00035d40       ?CalcFov@idGameLocal@@QBEXMAAM0@Z 10036d40 f   Game_local.obj
 0001:00035f60       ?GetMapName@idGameLocal@@QBEPBDXZ 10036f60 f   Game_local.obj
 0001:00035f70       ?CallObjectFrameCommand@idGameLocal@@QAEXPAVidEntity@@PBD@Z 10036f70 f   Game_local.obj
 0001:00035ff0       ?ShowTargets@idGameLocal@@AAEXXZ 10036ff0 f   Game_local.obj
 0001:00036a80       ?NumAAS@idGameLocal@@QBEHXZ 10037a80 f   Game_local.obj
 0001:00036a90       ?GetAAS@idGameLocal@@QBEPAVidAAS@@H@Z 10037a90 f   Game_local.obj
 0001:00036ae0       ?GetAAS@idGameLocal@@QBEPAVidAAS@@PBD@Z 10037ae0 f   Game_local.obj
 0001:00036b60       ?SetAASAreaState@idGameLocal@@QAEXABVidBounds@@H_N@Z 10037b60 f   Game_local.obj
 0001:00036bb0       ?CheatsOk@idGameLocal@@QAE_N_N@Z 10037bb0 f   Game_local.obj
 0001:00036c30       ?UnregisterEntity@idGameLocal@@QAEXPAVidEntity@@@Z 10037c30 f   Game_local.obj
 0001:00036cc0       ?SpawnEntityDef@idGameLocal@@QAE_NABVidDict@@PAPAVidEntity@@_N@Z 10037cc0 f   Game_local.obj
 0001:00036f40       ?InhibitEntitySpawn@idGameLocal@@AAE_NAAVidDict@@@Z 10037f40 f   Game_local.obj
 0001:00037060       ?ArgCompletion_EntityName@idGameLocal@@SAXABVidCmdArgs@@P6AXPBD@Z@Z 10038060 f   Game_local.obj
 0001:000370b0       ?FindEntityUsingDef@idGameLocal@@QBEPAVidEntity@@PAV2@PBD@Z 100380b0 f   Game_local.obj
 0001:00037120       ?FindTraceEntity@idGameLocal@@QBEPAVidEntity@@VidVec3@@0ABVidTypeInfo@@PBV2@@Z 10038120 f   Game_local.obj
 0001:000372a0       ?EntitiesWithinRadius@idGameLocal@@QBEHVidVec3@@MPAPAVidEntity@@H@Z 100382a0 f   Game_local.obj
 0001:000373d0       ?KillBox@idGameLocal@@QAEXPAVidEntity@@_N@Z 100383d0 f   Game_local.obj
 0001:00037540       ?RequirementMet@idGameLocal@@QAE_NPAVidEntity@@ABVidStr@@H@Z 10038540 f   Game_local.obj
 0001:000375a0       ?AlertAI@idGameLocal@@QAEXPAVidEntity@@@Z 100385a0 f   Game_local.obj
 0001:000375f0       ?GetAlertEntity@idGameLocal@@QAEPAVidActor@@XZ 100385f0 f   Game_local.obj
 0001:00037630       ?SetCamera@idGameLocal@@QAEXPAVidCamera@@@Z 10038630 f   Game_local.obj
 0001:00037940       ?SkipCinematic@idGameLocal@@QAE_NXZ 10038940 f   Game_local.obj
 0001:00037a80       ?SpreadLocations@idGameLocal@@QAEXXZ 10038a80 f   Game_local.obj
 0001:00037c50       ?SetPortalState@idGameLocal@@QAEXHH@Z 10038c50 f   Game_local.obj
 0001:00037cf0       ?RandomizeInitialSpawns@idGameLocal@@AAEXXZ 10038cf0 f   Game_local.obj
 0001:00037f20       ?SelectInitialSpawnPoint@idGameLocal@@QAEPAVidEntity@@PAVidPlayer@@@Z 10038f20 f   Game_local.obj
 0001:00038180       ?UpdateServerInfoFlags@idGameLocal@@AAEXXZ 10039180 f   Game_local.obj
 0001:00038340       ??1?$idBlockAlloc@Usnapshot_s@@$0EA@@@QAE@XZ 10039340 f i Game_local.obj
 0001:00038350       ??$idDeclAllocator@VidDecl@@@@YAPAVidDecl@@XZ 10039350 f i Game_local.obj
 0001:00038370       ??1selectedTypeInfo_s@@QAE@XZ 10039370 f i Game_local.obj
 0001:00038380       ??H@YA?AVidStr@@ABV0@PBD@Z 10039380 f i Game_local.obj
 0001:00038470       ??1idMapEntity@@QAE@XZ     10039470 f i Game_local.obj
 0001:00038550       ??1idMultiplayerGame@@QAE@XZ 10039550 f i Game_local.obj
 0001:000385d0       ??1idEventQueue@@QAE@XZ    100395d0 f i Game_local.obj
 0001:000385e0       ??_F?$idList@H@@QAEXXZ     100395e0 f i Game_local.obj
 0001:000385e0       ??_F?$idList@Usignal_t@@@@QAEXXZ 100395e0 f i Entity.obj
 0001:00038600       ?SaveGame@idGameLocal@@UAEXPAVidFile@@@Z 10039600 f   Game_local.obj
 0001:00038c40       ?SetServerInfo@idGameLocal@@UAEXABVidDict@@@Z 10039c40 f   Game_local.obj
 0001:00038cd0       ?NextMap@idGameLocal@@QAE_NXZ 10039cd0 f   Game_local.obj
 0001:000390a0       ?SpawnPlayerAs@idGameLocal@@AAEXHPBD@Z 1003a0a0 f   Game_local.obj
 0001:00039350       ?ChangeClassNow@idGameLocal@@QAE_NHPBD@Z 1003a350 f   Game_local.obj
 0001:000393d0       ?SortActiveEntityList@idGameLocal@@AAEXXZ 1003a3d0 f   Game_local.obj
 0001:00039680       ?RunDebugInfo@idGameLocal@@AAEXXZ 1003a680 f   Game_local.obj
 0001:0003a120       ?RegisterEntity@idGameLocal@@QAEXPAVidEntity@@@Z 1003b120 f   Game_local.obj
 0001:0003a250       ?SpawnMapEntities@idGameLocal@@AAEXXZ 1003b250 f   Game_local.obj
 0001:0003a560       ?RemoveEntityFromHash@idGameLocal@@QAE_NPBDPAVidEntity@@@Z 1003b560 f   Game_local.obj
 0001:0003a690       ?FindEntity@idGameLocal@@QBEPAVidEntity@@PBD@Z 1003b690 f   Game_local.obj
 0001:0003a740       ?RadiusPushClipModel@idGameLocal@@QAEXABVidVec3@@MPBVidClipModel@@@Z 1003b740 f   Game_local.obj
 0001:0003a970       ?NeedRestart@idGameLocal@@QAE_NXZ 1003b970 f   Game_local.obj
 0001:0003ac00       ?Clear@idGameLocal@@AAEXXZ 1003bc00 f   Game_local.obj
 0001:0003af20       ?MapPopulate@idGameLocal@@AAEXXZ 1003bf20 f   Game_local.obj
 0001:0003af80       ?SpawnPlayer@idGameLocal@@UAEXH@Z 1003bf80 f   Game_local.obj
 0001:0003af90       ?RunFrame@idGameLocal@@UAE?AUgameReturn_t@@PBVusercmd_t@@@Z 1003bf90 f   Game_local.obj
 0001:0003b780       ?AddEntityToHash@idGameLocal@@QAEXPBDPAVidEntity@@@Z 1003c780 f   Game_local.obj
 0001:0003b830       ?GetTargets@idGameLocal@@QBEHABVidDict@@AAV?$idList@V?$idEntityPtr@VidEntity@@@@@@PBD@Z 1003c830 f   Game_local.obj
 0001:0003baa0       ?RadiusPush@idGameLocal@@QAEXABVidVec3@@MMPBVidEntity@@1M_N@Z 1003caa0 f   Game_local.obj
 0001:0003bd80       ?ProjectDecal@idGameLocal@@QAEXABVidVec3@@0M_NMPBDM@Z 1003cd80 f   Game_local.obj
 0001:0003c9a0       ?BloodSplat@idGameLocal@@QAEXABVidVec3@@0MPBD@Z 1003d9a0 f   Game_local.obj
 0001:0003cbf0       ??1idMapFile@@QAE@XZ       1003dbf0 f i Game_local.obj
 0001:0003ccb0       ?Init@idGameLocal@@UAEXXZ  1003dcb0 f   Game_local.obj
 0001:0003d410       ?LoadMap@idGameLocal@@QAEXPBDH@Z 1003e410 f   Game_local.obj
 0001:0003da40       ?InitFromNewMap@idGameLocal@@UAEXPBDPAVidRenderWorld@@PAVidSoundWorld@@_N3H@Z 1003ea40 f   Game_local.obj
 0001:0003db10       ?InitFromSaveGame@idGameLocal@@UAE_NPBDPAVidRenderWorld@@PAVidSoundWorld@@PAVidFile@@@Z 1003eb10 f   Game_local.obj
 0001:0003e3a0       ?DumpOggSounds@idGameLocal@@AAEXXZ 1003f3a0 f   Game_local.obj
 0001:0003f260       ?GetShakeSounds@idGameLocal@@AAEXPBVidDict@@@Z 10040260 f   Game_local.obj
 0001:0003f6c0       ?CacheDictionaryMedia@idGameLocal@@UAEXPBVidDict@@@Z 100406c0 f   Game_local.obj
 0001:0003fd80       ?GetLevelMap@idGameLocal@@QAEPAVidMapFile@@XZ 10040d80 f   Game_local.obj
 0001:0003ff20       ?RadiusDamage@idGameLocal@@QAEXABVidVec3@@PAVidEntity@@111PBDM@Z 10040f20 f   Game_local.obj
 0001:00040560       ??1?$idList@UselectedTypeInfo_s@@@@QAE@XZ 10041560 f i Game_local.obj
 0001:000405a0       ?Shutdown@idGameLocal@@UAEXXZ 100415a0 f   Game_local.obj
 0001:00040760       ??1idEditEntities@@QAE@XZ  10041760 f i Game_local.obj
 0001:000407f0       ?Shutdown@?$idBlockAlloc@UentityState_s@@$0BAA@@@QAEXXZ 100417f0 f i Game_local.obj
 0001:00040850       ??1?$idBlockAlloc@UentityState_s@@$0BAA@@@QAE@XZ 10041850 f i Game_local.obj
 0001:00040860       ??1idGameLocal@@UAE@XZ     10041860 f i Game_local.obj
 0001:00040b60       ??0idGameLocal@@QAE@XZ     10041b60 f   Game_local.obj
 0001:00041160       ??_EidGameLocal@@UAEPAXI@Z 10042160 f i Game_local.obj
 0001:00041160       ??_GidGameLocal@@UAEPAXI@Z 10042160 f i Game_local.obj
 0001:00041180       ?MapClear@idGameLocal@@AAEX_N@Z 10042180 f   Game_local.obj
 0001:00041310       ?MapShutdown@idGameLocal@@UAEXXZ 10042310 f   Game_local.obj
 0001:00041400       ?LocalMapRestart@idGameLocal@@QAEXXZ 10042400 f   Game_local.obj
 0001:000415a0       ?MapRestart@idGameLocal@@QAEXXZ 100425a0 f   Game_local.obj
 0001:00041880       ?MapRestart_f@idGameLocal@@SAXABVidCmdArgs@@@Z 10042880 f   Game_local.obj
 0001:000418d0       ?NextMap_f@idGameLocal@@SAXABVidCmdArgs@@@Z 100428d0 f   Game_local.obj
 0001:00041910       ?ServerClientConnect@idGameLocal@@UAEXHPBD@Z 10042910 f   Game_network.obj
 0001:00041980       ?NetworkEventWarning@idGameLocal@@AAAXPBUentityNetEvent_s@@PBDZZ 10042980 f   Game_network.obj
 0001:00041a00       ?Init@idEventQueue@@QAEXXZ 10042a00 f   Game_network.obj
 0001:00041a10       ?Alloc@?$idBlockAlloc@UentityNetEvent_s@@$0CA@@@QAEPAUentityNetEvent_s@@XZ 10042a10 f i Game_network.obj
 0001:00041a90       ?Alloc@?$idBlockAlloc@Usnapshot_s@@$0EA@@@QAEPAUsnapshot_s@@XZ 10042a90 f i Game_network.obj
 0001:00041b10       ?InitAsyncNetwork@idGameLocal@@AAEXXZ 10042b10 f   Game_network.obj
 0001:00041c40       ?ClientRemapDecl@idGameLocal@@QAEHW4declType_t@@H@Z 10042c40 f   Game_network.obj
 0001:00041cf0       ?ServerAllowClient@idGameLocal@@UAE?AW4allowReply_t@@HPBD00QAD@Z 10042cf0 f   Game_network.obj
 0001:00041e70       ?ServerWriteInitialReliableMessages@idGameLocal@@UAEXH@Z 10042e70 f   Game_network.obj
 0001:000420d0       ?FreeSnapshotsOlderThanSequence@idGameLocal@@AAEXHH@Z 100430d0 f   Game_network.obj
 0001:00042180       ?ApplySnapshot@idGameLocal@@AAE_NHH@Z 10043180 f   Game_network.obj
 0001:00042280       ?ServerSendChatMessage@idGameLocal@@QAEXHPBD0@Z 10043280 f   Game_network.obj
 0001:00042340       ?ClientShowSnapshot@idGameLocal@@ABEXH@Z 10043340 f   Game_network.obj
 0001:000427e0       ?UpdateLagometer@idGameLocal@@AAEXHH@Z 100437e0 f   Game_network.obj
 0001:00042950       ?ClientApplySnapshot@idGameLocal@@UAE_NHH@Z 10043950 f   Game_network.obj
 0001:00042950       ?ServerApplySnapshot@idGameLocal@@UAE_NHH@Z 10043950 f   Game_network.obj
 0001:00042960       ?ClientPrediction@idGameLocal@@UAE?AUgameReturn_t@@HPBVusercmd_t@@_N@Z 10043960 f   Game_network.obj
 0001:00042ab0       ?Alloc@idEventQueue@@QAEPAUentityNetEvent_s@@XZ 10043ab0 f   Game_network.obj
 0001:00042ad0       ?Shutdown@idEventQueue@@QAEXXZ 10043ad0 f   Game_network.obj
 0001:00042af0       ?Enqueue@idEventQueue@@QAEXPAUentityNetEvent_s@@W4outOfOrderBehaviour_t@1@@Z 10043af0 f   Game_network.obj
 0001:00042c20       ??$ArgCompletion_Integer@$0A@$02@idCmdSystem@@SAXABVidCmdArgs@@P6AXPBD@Z@Z 10043c20 f i Game_network.obj
 0001:00042c60       ?InitClientDeclRemap@idGameLocal@@AAEXH@Z 10043c60 f   Game_network.obj
 0001:00042e50       ?ServerSendDeclRemapToClient@idGameLocal@@AAEXHW4declType_t@@H@Z 10043e50 f   Game_network.obj
 0001:000430b0       ?ServerRemapDecl@idGameLocal@@QAEHHW4declType_t@@H@Z 100440b0 f   Game_network.obj
 0001:00043110       ?ServerClientBegin@idGameLocal@@UAEXH@Z 10044110 f   Game_network.obj
 0001:00043240       ?ServerClientDisconnect@idGameLocal@@UAEXH@Z 10044240 f   Game_network.obj
 0001:00043360       ?SaveEntityNetworkEvent@idGameLocal@@QAEXPBVidEntity@@HPBVidBitMsg@@@Z 10044360 f   Game_network.obj
 0001:00043410       ?ServerProcessEntityNetworkEventQueue@idGameLocal@@AAEXXZ 10044410 f   Game_network.obj
 0001:00043520       ?ServerProcessReliableMessage@idGameLocal@@UAEXHABVidBitMsg@@@Z 10044520 f   Game_network.obj
 0001:000437e0       ?ClientProcessEntityNetworkEventQueue@idGameLocal@@AAEXXZ 100447e0 f   Game_network.obj
 0001:00043900       ?ClientProcessReliableMessage@idGameLocal@@UAEXHABVidBitMsg@@@Z 10044900 f   Game_network.obj
 0001:00044230       ??0element_s@?$idBlockAlloc@UentityState_s@@$0BAA@@@QAE@XZ 10045230 f i Game_network.obj
 0001:00044240       ?Tokenize@idGameLocal@@AAEXAAV?$idList@VidStr@@@@PBD@Z 10045240 f   Game_network.obj
 0001:00044600       ?DownloadRequest@idGameLocal@@UAE_NPBD00QAD@Z 10045600 f   Game_network.obj
 0001:00044a40       ?Alloc@?$idBlockAlloc@UentityState_s@@$0BAA@@@QAEPAUentityState_s@@XZ 10045a40 f i Game_network.obj
 0001:00044b20       ?ServerWriteSnapshot@idGameLocal@@UAEXHHAAVidBitMsg@@PAEH@Z 10045b20 f   Game_network.obj
 0001:00044ff0       ?ClientReadSnapshot@idGameLocal@@UAEXHHHHHHABVidBitMsg@@@Z 10045ff0 f   Game_network.obj
 0001:00045db0       ?ShutdownAsyncNetwork@idGameLocal@@AAEXXZ 10046db0 f   Game_network.obj
 0001:00045e40       ?GetType@idCursor3D@@UBEPAVidTypeInfo@@XZ 10046e40 f   GameEdit.obj
 0001:00045e50       ??1idCursor3D@@UAE@XZ      10046e50 f   GameEdit.obj
 0001:00045eb0       ?FindEntityDefDict@idGameEdit@@UBEPBVidDict@@PBD_N@Z 10046eb0 f   GameEdit.obj
 0001:00045ec0       ?SpawnEntityDef@idGameEdit@@UAEXABVidDict@@PAPAVidEntity@@@Z 10046ec0 f   GameEdit.obj
 0001:00045ee0       ?FindEntity@idGameEdit@@UBEPAVidEntity@@PBD@Z 10046ee0 f   GameEdit.obj
 0001:00045ef0       ?GetUniqueEntityName@idGameEdit@@UBEPBDPBD@Z 10046ef0 f   GameEdit.obj
 0001:00045f60       ?EntitySetOrigin@idGameEdit@@UAEXPAVidEntity@@ABVidVec3@@@Z 10046f60 f   GameEdit.obj
 0001:00045f80       ?EntitySetAxis@idGameEdit@@UAEXPAVidEntity@@ABVidMat3@@@Z 10046f80 f   GameEdit.obj
 0001:00045fa0       ?EntitySetColor@idGameEdit@@UAEXPAVidEntity@@VidVec3@@@Z 10046fa0 f   GameEdit.obj
 0001:00045fc0       ?EntityTranslate@idGameEdit@@UAEXPAVidEntity@@ABVidVec3@@@Z 10046fc0 f   GameEdit.obj
 0001:00045fe0       ?EntityGetSpawnArgs@idGameEdit@@UBEPBVidDict@@PAVidEntity@@@Z 10046fe0 f   GameEdit.obj
 0001:00046000       ?EntityUpdateChangeableSpawnArgs@idGameEdit@@UAEXPAVidEntity@@PBVidDict@@@Z 10047000 f   GameEdit.obj
 0001:00046020       ?EntityUpdateVisuals@idGameEdit@@UAEXPAVidEntity@@@Z 10047020 f   GameEdit.obj
 0001:00046030       ?EntitySetModel@idGameEdit@@UAEXPAVidEntity@@PBD@Z 10047030 f   GameEdit.obj
 0001:00046060       ?EntityStopSound@idGameEdit@@UAEXPAVidEntity@@@Z 10047060 f   GameEdit.obj
 0001:00046080       ?EntityDelete@idGameEdit@@UAEXPAVidEntity@@@Z 10047080 f   GameEdit.obj
 0001:000460a0       ?PlayerIsValid@idGameEdit@@UBE_NXZ 100470a0 f   GameEdit.obj
 0001:000460c0       ?MapGetEntityDict@idGameEdit@@UBEPBVidDict@@PBD@Z 100470c0 f   GameEdit.obj
 0001:000460f0       ?MapSetEntityKeyVal@idGameEdit@@UBEXPBD00@Z 100470f0 f   GameEdit.obj
 0001:00046130       ?MapRemoveEntity@idGameEdit@@UBEXPBD@Z 10047130 f   GameEdit.obj
 0001:00046160       ??_EidGameEdit@@UAEPAXI@Z  10047160 f i GameEdit.obj
 0001:00046160       ??_GidGameEdit@@UAEPAXI@Z  10047160 f i GameEdit.obj
 0001:00046180       ??0idCursor3D@@QAE@XZ      10047180 f   GameEdit.obj
 0001:000461f0       ??_EidCursor3D@@UAEPAXI@Z  100471f0 f i GameEdit.obj
 0001:000461f0       ??_GidCursor3D@@UAEPAXI@Z  100471f0 f i GameEdit.obj
 0001:00046210       ?Present@idCursor3D@@UAEXXZ 10047210 f   GameEdit.obj
 0001:00046330       ?Clear@idDragEntity@@QAEXXZ 10047330 f   GameEdit.obj
 0001:00046390       ?SetSelected@idDragEntity@@QAEXPAVidEntity@@@Z 10047390 f   GameEdit.obj
 0001:000463d0       ?DeleteSelected@idDragEntity@@QAEXXZ 100473d0 f   GameEdit.obj
 0001:00046420       ?UnbindSelected@idDragEntity@@QAEXXZ 10047420 f   GameEdit.obj
 0001:00046550       ?ClearSelectedEntities@idEditEntities@@QAEXXZ 10047550 f   GameEdit.obj
 0001:000465a0       ??0selectedTypeInfo_s@@QAE@XZ 100475a0 f i GameEdit.obj
 0001:000465c0       ?GetSelectedEntities@idGameEdit@@UAEHQAPAVidEntity@@H@Z 100475c0 f   GameEdit.obj
 0001:00046610       ?TriggerSelected@idGameEdit@@UAEXXZ 10047610 f   GameEdit.obj
 0001:00046680       ?ClearEntitySelection@idGameEdit@@UAEXXZ 10047680 f   GameEdit.obj
 0001:00046710       ?EntityGetOrigin@idGameEdit@@UBEXPAVidEntity@@AAVidVec3@@@Z 10047710 f   GameEdit.obj
 0001:00046750       ?EntityGetAxis@idGameEdit@@UBEXPAVidEntity@@AAVidMat3@@@Z 10047750 f   GameEdit.obj
 0001:000467b0       ?EntityChangeSpawnArgs@idGameEdit@@UAEXPAVidEntity@@PBVidDict@@@Z 100477b0 f   GameEdit.obj
 0001:00046820       ?PlayerGetOrigin@idGameEdit@@UBEXAAVidVec3@@@Z 10047820 f   GameEdit.obj
 0001:00046860       ?PlayerGetAxis@idGameEdit@@UBEXAAVidMat3@@@Z 10047860 f   GameEdit.obj
 0001:000468c0       ?PlayerGetViewAngles@idGameEdit@@UBEXAAVidAngles@@@Z 100478c0 f   GameEdit.obj
 0001:000468f0       ?PlayerGetEyePosition@idGameEdit@@UBEXAAVidVec3@@@Z 100478f0 f   GameEdit.obj
 0001:00046930       ?MapSave@idGameEdit@@UBEXPBD@Z 10047930 f   GameEdit.obj
 0001:00046960       ?MapCopyDictToEntity@idGameEdit@@UBEXPBDPBVidDict@@@Z 10047960 f   GameEdit.obj
 0001:000469d0       ?MapGetUniqueMatchingKeyVals@idGameEdit@@UBEHPBDQAPBDH@Z 100479d0 f   GameEdit.obj
 0001:00046a50       ?MapGetEntitiesMatchingClassWithString@idGameEdit@@UBEHPBD0QAPBDH@Z 10047a50 f   GameEdit.obj
 0001:00046c60       ?MapEntityTranslate@idGameEdit@@UBEXPBDABVidVec3@@@Z 10047c60 f   GameEdit.obj
 0001:00046cf0       ??0idMapEntity@@QAE@XZ     10047cf0 f i GameEdit.obj
 0001:00046e30       ?CreateInstance@idCursor3D@@SAPAVidClass@@XZ 10047e30 f   GameEdit.obj
 0001:00046ed0       ??0idDragEntity@@QAE@XZ    10047ed0 f   GameEdit.obj
 0001:00046f30       ??1idDragEntity@@QAE@XZ    10047f30 f   GameEdit.obj
 0001:00046fb0       ?BindSelected@idDragEntity@@QAEXXZ 10047fb0 f   GameEdit.obj
 0001:000473e0       ?RemoveSelectedEntity@idEditEntities@@QAEXPAVidEntity@@@Z 100483e0 f   GameEdit.obj
 0001:00047460       ?EntityIsSelectable@idEditEntities@@QAE_NPAVidEntity@@PAVidVec4@@PAVidStr@@@Z 10048460 f   GameEdit.obj
 0001:000475b0       ?MapAddEntity@idGameEdit@@UBEXPBVidDict@@@Z 100485b0 f   GameEdit.obj
 0001:00047630       ??4selectedTypeInfo_s@@QAEAAU0@ABU0@@Z 10048630 f i GameEdit.obj
 0001:00047680       ?Update@idDragEntity@@QAEXPAVidPlayer@@@Z 10048680 f   GameEdit.obj
 0001:00048130       ?AddSelectedEntity@idEditEntities@@QAEXPAVidEntity@@@Z 10049130 f   GameEdit.obj
 0001:00048280       ?AddSelectedEntity@idGameEdit@@UAEXPAVidEntity@@@Z 10049280 f   GameEdit.obj
 0001:000482a0       ??0idEditEntities@@QAE@XZ  100492a0 f   GameEdit.obj
 0001:00048330       ?SelectEntity@idEditEntities@@QAE_NABVidVec3@@0PBVidEntity@@@Z 10049330 f   GameEdit.obj
 0001:000484a0       ?DisplayEntities@idEditEntities@@QAEXXZ 100494a0 f   GameEdit.obj
 0001:0004a700       ?floor@@YAMM@Z             1004b700 f i IK.obj
 0001:0004a720       ??1idIK@@UAE@XZ            1004b720 f   IK.obj
 0001:0004a730       ?Save@idIK@@QBEXPAVidSaveGame@@@Z 1004b730 f   IK.obj
 0001:0004a7b0       ?ClearJointMods@idIK@@UAEXXZ 1004b7b0 f   IK.obj
 0001:0004a7c0       ?Save@idIK_Walk@@QBEXPAVidSaveGame@@@Z 1004b7c0 f   IK.obj
 0001:0004aa90       ?ClearJointMods@idIK_Walk@@UAEXXZ 1004ba90 f   IK.obj
 0001:0004ab30       ?EnableAll@idIK_Walk@@QAEXXZ 1004bb30 f   IK.obj
 0001:0004ab50       ?DisableAll@idIK_Walk@@QAEXXZ 1004bb50 f   IK.obj
 0001:0004ab60       ?EnableLeg@idIK_Walk@@QAEXH@Z 1004bb60 f   IK.obj
 0001:0004ab80       ?DisableLeg@idIK_Walk@@QAEXH@Z 1004bb80 f   IK.obj
 0001:0004aba0       ??_GidIK@@UAEPAXI@Z        1004bba0 f i IK.obj
 0001:0004aba0       ??_EidIK@@UAEPAXI@Z        1004bba0 f i IK.obj
 0001:0004abc0       ?Restore@idIK@@QAEXPAVidRestoreGame@@@Z 1004bbc0 f   IK.obj
 0001:0004ad10       ?IsInitialized@idIK@@QBE_NXZ 1004bd10 f   IK.obj
 0001:0004ad30       ?Init@idIK@@UAE_NPAVidEntity@@PBDABVidVec3@@@Z 1004bd30 f   IK.obj
 0001:0004ae70       ?SolveTwoBones@idIK@@QAE_NABVidVec3@@00MMAAV2@@Z 1004be70 f   IK.obj
 0001:0004b260       ?GetBoneAxis@idIK@@QAEMABVidVec3@@00AAVidMat3@@@Z 1004c260 f   IK.obj
 0001:0004b4b0       ??1idIK_Walk@@UAE@XZ       1004c4b0 f   IK.obj
 0001:0004b510       ?Restore@idIK_Walk@@QAEXPAVidRestoreGame@@@Z 1004c510 f   IK.obj
 0001:0004b7b0       ??0idIK_Walk@@QAE@XZ       1004c7b0 f   IK.obj
 0001:0004ba10       ??_EidIK_Walk@@UAEPAXI@Z   1004ca10 f i IK.obj
 0001:0004ba10       ??_GidIK_Walk@@UAEPAXI@Z   1004ca10 f i IK.obj
 0001:0004ba30       ?Init@idIK_Walk@@UAE_NPAVidEntity@@PBDABVidVec3@@@Z 1004ca30 f   IK.obj
 0001:0004c650       ?Evaluate@idIK_Walk@@UAEXXZ 1004d650 f   IK.obj
 0001:0004e430       ?GetType@idItem@@UBEPAVidTypeInfo@@XZ 1004f430 f   Item.obj
 0001:0004e440       ??1idItem@@UAE@XZ          1004f440 f   Item.obj
 0001:0004e4b0       ?Save@idItem@@QBEXPAVidSaveGame@@@Z 1004f4b0 f   Item.obj
 0001:0004e540       ?Restore@idItem@@QAEXPAVidRestoreGame@@@Z 1004f540 f   Item.obj
 0001:0004e5e0       ?WriteToSnapshot@idItem@@UBEXAAVidBitMsgDelta@@@Z 1004f5e0 f   Item.obj
 0001:0004e600       ?ReadFromSnapshot@idItem@@UAEXABVidBitMsgDelta@@@Z 1004f600 f   Item.obj
 0001:0004e630       ?Event_Touch@idItem@@AAEXPAVidEntity@@PAUtrace_s@@@Z 1004f630 f   Item.obj
 0001:0004e670       ?Event_Respawn@idItem@@AAEXXZ 1004f670 f   Item.obj
 0001:0004e700       ?GetType@idItemPowerup@@UBEPAVidTypeInfo@@XZ 1004f700 f   Item.obj
 0001:0004e710       ?Save@idItemPowerup@@QBEXPAVidSaveGame@@@Z 1004f710 f   Item.obj
 0001:0004e740       ?Restore@idItemPowerup@@QAEXPAVidRestoreGame@@@Z 1004f740 f   Item.obj
 0001:0004e770       ?GiveToPlayer@idItemPowerup@@UAE_NPAVidPlayer@@@Z 1004f770 f   Item.obj
 0001:0004e7b0       ?GetType@idObjective@@UBEPAVidTypeInfo@@XZ 1004f7b0 f   Item.obj
 0001:0004e7c0       ?Save@idObjective@@QBEXPAVidSaveGame@@@Z 1004f7c0 f   Item.obj
 0001:0004e7e0       ?Restore@idObjective@@QAEXPAVidRestoreGame@@@Z 1004f7e0 f   Item.obj
 0001:0004e810       ?Spawn@idObjective@@QAEXXZ 1004f810 f   Item.obj
 0001:0004e830       ?GetType@idVideoCDItem@@UBEPAVidTypeInfo@@XZ 1004f830 f   Item.obj
 0001:0004e840       ?GetType@idPDAItem@@UBEPAVidTypeInfo@@XZ 1004f840 f   Item.obj
 0001:0004e850       ?GetType@idMoveableItem@@UBEPAVidTypeInfo@@XZ 1004f850 f   Item.obj
 0001:0004e860       ?Save@idMoveableItem@@QBEXPAVidSaveGame@@@Z 1004f860 f   Item.obj
 0001:0004e8b0       ?Restore@idMoveableItem@@QAEXPAVidRestoreGame@@@Z 1004f8b0 f   Item.obj
 0001:0004e900       ?Think@idMoveableItem@@UAEXXZ 1004f900 f   Item.obj
 0001:0004ea10       ?WriteToSnapshot@idMoveableItem@@UBEXAAVidBitMsgDelta@@@Z 1004fa10 f   Item.obj
 0001:0004ea30       ?GetType@idMoveablePDAItem@@UBEPAVidTypeInfo@@XZ 1004fa30 f   Item.obj
 0001:0004ea40       ?GetType@idItemRemover@@UBEPAVidTypeInfo@@XZ 1004fa40 f   Item.obj
 0001:0004ea50       ?GetType@idObjectiveComplete@@UBEPAVidTypeInfo@@XZ 1004fa50 f   Item.obj
 0001:0004ea60       ?Save@idObjectiveComplete@@QBEXPAVidSaveGame@@@Z 1004fa60 f   Item.obj
 0001:0004ea60       ?Save@idTarget_Tip@@QBEXPAVidSaveGame@@@Z 1004fa60 f   Target.obj
 0001:0004ea80       ?Event_GetPlayerPos@idObjectiveComplete@@AAEXXZ 1004fa80 f   Item.obj
 0001:0004eb10       ?Event_HideObjective@idObjectiveComplete@@AAEXPAVidEntity@@@Z 1004fb10 f   Item.obj
 0001:0004ecb0       ??0idItem@@QAE@XZ          1004fcb0 f   Item.obj
 0001:0004ed20       ?UpdateRenderEntity@idItem@@ABE_NPAUrenderEntity_s@@PBUrenderView_s@@@Z 1004fd20 f   Item.obj
 0001:0004efb0       ?ModelCallback@idItem@@CA_NPAUrenderEntity_s@@PBUrenderView_s@@@Z 1004ffb0 f   Item.obj
 0001:0004eff0       ?Think@idItem@@UAEXXZ      1004fff0 f   Item.obj
 0001:0004f0d0       ?Spawn@idItem@@QAEXXZ      100500d0 f   Item.obj
 0001:0004f450       ?GiveToPlayer@idItem@@UAE_NPAVidPlayer@@@Z 10050450 f   Item.obj
 0001:0004f4b0       ?Pickup@idItem@@UAE_NPAVidPlayer@@@Z 100504b0 f   Item.obj
 0001:0004f6e0       ?Event_Trigger@idItem@@AAEXPAVidEntity@@@Z 100506e0 f   Item.obj
 0001:0004f760       ?Event_RespawnFx@idItem@@AAEXXZ 10050760 f   Item.obj
 0001:0004f7b0       ?Spawn@idItemPowerup@@QAEXXZ 100507b0 f   Item.obj
 0001:0004f830       ?Event_GetPlayerPos@idObjective@@AAEXXZ 10050830 f   Item.obj
 0001:0004f8c0       ?Event_HideObjective@idObjective@@AAEXPAVidEntity@@@Z 100508c0 f   Item.obj
 0001:0004fa40       ??_GidPDAItem@@UAEPAXI@Z   10050a40 f i Item.obj
 0001:0004fa40       ??_GidVideoCDItem@@UAEPAXI@Z 10050a40 f i Item.obj
 0001:0004fa40       ??_GidObjective@@UAEPAXI@Z 10050a40 f i Item.obj
 0001:0004fa40       ??_EidItem@@UAEPAXI@Z      10050a40 f i Item.obj
 0001:0004fa40       ??_GidItemPowerup@@UAEPAXI@Z 10050a40 f i Item.obj
 0001:0004fa40       ??_EidVideoCDItem@@UAEPAXI@Z 10050a40 f i Item.obj
 0001:0004fa40       ??_EidObjective@@UAEPAXI@Z 10050a40 f i Item.obj
 0001:0004fa40       ??_GidItem@@UAEPAXI@Z      10050a40 f i Item.obj
 0001:0004fa40       ??_EidPDAItem@@UAEPAXI@Z   10050a40 f i Item.obj
 0001:0004fa40       ??_EidItemPowerup@@UAEPAXI@Z 10050a40 f i Item.obj
 0001:0004fa60       ?Event_GiveVideoCD@idVideoCDItem@@AAEXPAVidPlayer@@@Z 10050a60 f   Item.obj
 0001:0004fbb0       ??0idMoveableItem@@QAE@XZ  10050bb0 f   Item.obj
 0001:0004fc10       ??1idMoveableItem@@UAE@XZ  10050c10 f   Item.obj
 0001:0004fc90       ?Pickup@idMoveableItem@@UAE_NPAVidPlayer@@@Z 10050c90 f   Item.obj
 0001:0004fcc0       ?ReadFromSnapshot@idMoveableItem@@UAEXABVidBitMsgDelta@@@Z 10050cc0 f   Item.obj
 0001:0004fcf0       ?Gib@idMoveableItem@@AAEXABVidVec3@@PBD@Z 10050cf0 f   Item.obj
 0001:0004fda0       ?Event_Gib@idMoveableItem@@AAEXPBD@Z 10050da0 f   Item.obj
 0001:0004fdc0       ?Event_GivePDA@idMoveablePDAItem@@QAEXPAVidPlayer@@@Z 10050dc0 f   Item.obj
 0001:0004fdc0       ?Event_GivePDA@idPDAItem@@AAEXPAVidPlayer@@@Z 10050dc0 f   Item.obj
 0001:0004fe60       ?GiveToPlayer@idMoveablePDAItem@@UAE_NPAVidPlayer@@@Z 10050e60 f   Item.obj
 0001:0004fe60       ?GiveToPlayer@idPDAItem@@UAE_NPAVidPlayer@@@Z 10050e60 f   Item.obj
 0001:0004fe70       ?CreateInstance@idItemRemover@@SAPAVidClass@@XZ 10050e70 f   Item.obj
 0001:0004ff20       ?Event_Trigger@idItemRemover@@AAEXPAVidEntity@@@Z 10050f20 f   Item.obj
 0001:0004ff80       ?CreateInstance@idObjectiveComplete@@SAPAVidClass@@XZ 10050f80 f   Item.obj
 0001:00050040       ?Spawn@idObjectiveComplete@@QAEXXZ 10051040 f   Item.obj
 0001:00050070       ?Event_Trigger@idObjectiveComplete@@AAEXPAVidEntity@@@Z 10051070 f   Item.obj
 0001:000501d0       ?CreateInstance@idItem@@SAPAVidClass@@XZ 100511d0 f   Item.obj
 0001:00050270       ?Present@idItem@@UAEXXZ    10051270 f   Item.obj
 0001:00050300       ?GetAttributes@idItem@@QAEXAAVidDict@@@Z 10051300 f   Item.obj
 0001:000503f0       ?ClientReceiveEvent@idItem@@UAE_NHHABVidBitMsg@@@Z 100513f0 f   Item.obj
 0001:00050480       ?CreateInstance@idItemPowerup@@SAPAVidClass@@XZ 10051480 f   Item.obj
 0001:00050530       ?CreateInstance@idObjective@@SAPAVidClass@@XZ 10051530 f   Item.obj
 0001:000505f0       ?Event_CamShot@idObjective@@AAEXXZ 100515f0 f   Item.obj
 0001:00050860       ?Event_Trigger@idObjective@@AAEXPAVidEntity@@@Z 10051860 f   Item.obj
 0001:00050c30       ?CreateInstance@idVideoCDItem@@SAPAVidClass@@XZ 10051c30 f   Item.obj
 0001:00050ce0       ?GiveToPlayer@idVideoCDItem@@UAE_NPAVidPlayer@@@Z 10051ce0 f   Item.obj
 0001:00050cf0       ?ClientReceiveEvent@idVideoCDItem@@UAE_NHHABVidBitMsg@@@Z 10051cf0 f   Item.obj
 0001:00050d50       ?CreateInstance@idPDAItem@@SAPAVidClass@@XZ 10051d50 f   Item.obj
 0001:00050e00       ?ClientReceiveEvent@idPDAItem@@UAE_NHHABVidBitMsg@@@Z 10051e00 f   Item.obj
 0001:00050e00       ?ClientReceiveEvent@idMoveablePDAItem@@UAE_NHHABVidBitMsg@@@Z 10051e00 f   Item.obj
 0001:00050e60       ?CreateInstance@idMoveableItem@@SAPAVidClass@@XZ 10051e60 f   Item.obj
 0001:00050f00       ?Spawn@idMoveableItem@@QAEXXZ 10051f00 f   Item.obj
 0001:00051430       ?DropItem@idMoveableItem@@SAPAVidEntity@@PBDABVidVec3@@ABVidMat3@@1HH@Z 10052430 f   Item.obj
 0001:000516e0       ?CreateInstance@idMoveablePDAItem@@SAPAVidClass@@XZ 100526e0 f   Item.obj
 0001:00051790       ??_GidMoveablePDAItem@@UAEPAXI@Z 10052790 f i Item.obj
 0001:00051790       ??_GidMoveableItem@@UAEPAXI@Z 10052790 f i Item.obj
 0001:00051790       ??_EidMoveablePDAItem@@UAEPAXI@Z 10052790 f i Item.obj
 0001:00051790       ??_EidMoveableItem@@UAEPAXI@Z 10052790 f i Item.obj
 0001:000517b0       ?ClientReceiveEvent@idObjectiveComplete@@UAE_NHHABVidBitMsg@@@Z 100527b0 f   Item.obj
 0001:000517f0       ?Event_DropToFloor@idItem@@AAEXXZ 100527f0 f   Item.obj
 0001:000518b0       ?ClientReceiveEvent@idObjective@@UAE_NHHABVidBitMsg@@@Z 100528b0 f   Item.obj
 0001:000518f0       ?DropItems@idMoveableItem@@SAXPAVidAnimatedEntity@@PBDPAV?$idList@PAVidEntity@@@@@Z 100528f0 f   Item.obj
 0001:00051f00       ?GetType@idLight@@UBEPAVidTypeInfo@@XZ 10052f00 f   Light.obj
 0001:00051f10       ?UpdateChangeableSpawnArgs@idLight@@UAEXPBVidDict@@@Z 10052f10 f   Light.obj
 0001:00051fa0       ?Fade@idLight@@QAEXABVidVec4@@M@Z 10052fa0 f   Light.obj
 0001:00052020       ?FadeOut@idLight@@QAEXM@Z  10053020 f   Light.obj
 0001:00052040       ?PresentLightDefChange@idLight@@AAEXXZ 10053040 f   Light.obj
 0001:00052080       ?PresentModelDefChange@idLight@@AAEXXZ 10053080 f   Light.obj
 0001:000520d0       ?FreeLightDef@idLight@@UAEXXZ 100530d0 f   Light.obj
 0001:00052100       ?Event_GetLightParm@idLight@@AAEXH@Z 10053100 f   Light.obj
 0001:00052140       ?Event_FadeOut@idLight@@AAEXM@Z 10053140 f   Light.obj
 0001:00052170       ?ParseSpawnArgsToRenderLight@idGameEdit@@UAEXPBVidDict@@PAUrenderLight_s@@@Z 10053170 f   Light.obj
 0001:00052cc0       ??1idLight@@UAE@XZ         10053cc0 f   Light.obj
 0001:00052d40       ?Save@idLight@@QBEXPAVidSaveGame@@@Z 10053d40 f   Light.obj
 0001:00052e50       ?SetLightLevel@idLight@@QAEXXZ 10053e50 f   Light.obj
 0001:00052f50       ?GetColor@idLight@@UBEXAAVidVec3@@@Z 10053f50 f   Light.obj
 0001:00052f80       ?GetColor@idLight@@UBEXAAVidVec4@@@Z 10053f80 f   Light.obj
 0001:00052fb0       ?SetColor@idLight@@UAEXMMM@Z 10053fb0 f   Light.obj
 0001:00052fe0       ?SetColor@idLight@@UAEXABVidVec4@@@Z 10053fe0 f   Light.obj
 0001:00053020       ?SetShader@idLight@@QAEXPBD@Z 10054020 f   Light.obj
 0001:00053080       ?SetLightParm@idLight@@QAEXHM@Z 10054080 f   Light.obj
 0001:000530f0       ?SetLightParms@idLight@@QAEXMMMM@Z 100540f0 f   Light.obj
 0001:000531c0       ?SetRadiusXYZ@idLight@@QAEXMMM@Z 100541c0 f   Light.obj
 0001:00053220       ?SetRadius@idLight@@QAEXM@Z 10054220 f   Light.obj
 0001:00053280       ?On@idLight@@QAEXXZ        10054280 f   Light.obj
 0001:000532f0       ?Off@idLight@@QAEXXZ       100542f0 f   Light.obj
 0001:00053340       ?FadeIn@idLight@@QAEXM@Z   10054340 f   Light.obj
 0001:000533b0       ?BecomeBroken@idLight@@QAEXPAVidEntity@@@Z 100543b0 f   Light.obj
 0001:00053700       ?Present@idLight@@UAEXXZ   10054700 f   Light.obj
 0001:00053960       ?Think@idLight@@UAEXXZ     10054960 f   Light.obj
 0001:00053a30       ?GetPhysicsToSoundTransform@idLight@@UAE_NAAVidVec3@@AAVidMat3@@@Z 10054a30 f   Light.obj
 0001:00053b90       ?SaveState@idLight@@QAEXPAVidDict@@@Z 10054b90 f   Light.obj
 0001:00053c20       ?ShowEditingDialog@idLight@@UAEXXZ 10054c20 f   Light.obj
 0001:00053c50       ?Event_SetShader@idLight@@AAEXPBD@Z 10054c50 f   Light.obj
 0001:00053c70       ?Event_SetLightParm@idLight@@AAEXHM@Z 10054c70 f   Light.obj
 0001:00053ca0       ?Event_SetLightParms@idLight@@AAEXMMMM@Z 10054ca0 f   Light.obj
 0001:00053ce0       ?Event_SetRadiusXYZ@idLight@@AAEXMMM@Z 10054ce0 f   Light.obj
 0001:00053d10       ?Event_SetRadius@idLight@@AAEXM@Z 10054d10 f   Light.obj
 0001:00053d20       ?Event_Hide@idLight@@AAEXXZ 10054d20 f   Light.obj
 0001:00053dc0       ?Event_Show@idLight@@AAEXXZ 10054dc0 f   Light.obj
 0001:00053e20       ?Event_On@idLight@@AAEXXZ  10054e20 f   Light.obj
 0001:00053e40       ?Event_Off@idLight@@AAEXXZ 10054e40 f   Light.obj
 0001:00053e90       ?Event_ToggleOnOff@idLight@@AAEXPAVidEntity@@@Z 10054e90 f   Light.obj
 0001:00053f10       ?Event_SetSoundHandles@idLight@@AAEXXZ 10054f10 f   Light.obj
 0001:00053fb0       ?Event_FadeIn@idLight@@AAEXM@Z 10054fb0 f   Light.obj
 0001:00053fd0       ?WriteToSnapshot@idLight@@UBEXAAVidBitMsgDelta@@@Z 10054fd0 f   Light.obj
 0001:00054140       ?ReadFromSnapshot@idLight@@UAEXABVidBitMsgDelta@@@Z 10055140 f   Light.obj
 0001:00054330       ?ClientReceiveEvent@idLight@@UAE_NHHABVidBitMsg@@@Z 10055330 f   Light.obj
 0001:00054350       ??0idLight@@QAE@XZ         10055350 f   Light.obj
 0001:000544c0       ??_GidLight@@UAEPAXI@Z     100554c0 f i Light.obj
 0001:000544c0       ??_EidLight@@UAEPAXI@Z     100554c0 f i Light.obj
 0001:000544e0       ?Restore@idLight@@QAEXPAVidRestoreGame@@@Z 100554e0 f   Light.obj
 0001:00054660       ?Spawn@idLight@@QAEXXZ     10055660 f   Light.obj
 0001:00054d80       ?Killed@idLight@@UAEXPAVidEntity@@0HABVidVec3@@H@Z 10055d80 f   Light.obj
 0001:00054d90       ?CreateInstance@idLight@@SAPAVidClass@@XZ 10055d90 f   Light.obj
 0001:00054e30       ?GetType@idSpawnableEntity@@UBEPAVidTypeInfo@@XZ 10055e30 f   Misc.obj
 0001:00054e40       ?GetType@idPlayerStart@@UBEPAVidTypeInfo@@XZ 10055e40 f   Misc.obj
 0001:00054e50       ?Spawn@idPlayerStart@@QAEXXZ 10055e50 f   Misc.obj
 0001:00054e60       ?Save@idPlayerStart@@QBEXPAVidSaveGame@@@Z 10055e60 f   Misc.obj
 0001:00054e80       ?Restore@idPlayerStart@@QAEXPAVidRestoreGame@@@Z 10055e80 f   Misc.obj
 0001:00054ea0       ?GetType@idActivator@@UBEPAVidTypeInfo@@XZ 10055ea0 f   Misc.obj
 0001:00054eb0       ?Restore@idActivator@@QAEXPAVidRestoreGame@@@Z 10055eb0 f   Misc.obj
 0001:00054ee0       ?Think@idActivator@@UAEXXZ 10055ee0 f   Misc.obj
 0001:00054f20       ?Event_Trigger@idTrigger_Touch@@AAEXPAVidEntity@@@Z 10055f20 f   Trigger.obj
 0001:00054f20       ?Event_Activate@idActivator@@AAEXPAVidEntity@@@Z 10055f20 f   Misc.obj
 0001:00054f40       ?GetType@idPathCorner@@UBEPAVidTypeInfo@@XZ 10055f40 f   Misc.obj
 0001:00054f50       ?GetType@idDamagable@@UBEPAVidTypeInfo@@XZ 10055f50 f   Misc.obj
 0001:00054f60       ?GetType@idExplodable@@UBEPAVidTypeInfo@@XZ 10055f60 f   Misc.obj
 0001:00054f70       ?Spawn@idExplodable@@QAEXXZ 10055f70 f   Misc.obj
 0001:00054f90       ?GetType@idSpring@@UBEPAVidTypeInfo@@XZ 10055f90 f   Misc.obj
 0001:00054fa0       ?Spawn@idSpring@@QAEXXZ    10055fa0 f   Misc.obj
 0001:000550a0       ??0idForceField@@QAE@XZ    100560a0 f i Misc.obj
 0001:000550f0       ??1idForceField@@UAE@XZ    100560f0 f i Misc.obj
 0001:00055140       ?GetType@idForceField@@UBEPAVidTypeInfo@@XZ 10056140 f   Misc.obj
 0001:00055150       ?Think@idCursor3D@@UAEXXZ  10056150 f   GameEdit.obj
 0001:00055150       ?Think@idForceField@@UAEXXZ 10056150 f   Misc.obj
 0001:00055180       ?Save@idForceField@@QBEXPAVidSaveGame@@@Z 10056180 f   Misc.obj
 0001:000551a0       ?Restore@idForceField@@QAEXPAVidRestoreGame@@@Z 100561a0 f   Misc.obj
 0001:000551c0       ?Event_Toggle@idForceField@@AAEXXZ 100561c0 f   Misc.obj
 0001:000551e0       ?Event_Activate@idForceField@@AAEXPAVidEntity@@@Z 100561e0 f   Misc.obj
 0001:00055230       ?GetType@idAnimated@@UBEPAVidTypeInfo@@XZ 10056230 f   Misc.obj
 0001:00055240       ?GetType@idStaticEntity@@UBEPAVidTypeInfo@@XZ 10056240 f   Misc.obj
 0001:00055250       ??0idStaticEntity@@QAE@XZ  10056250 f   Misc.obj
 0001:000552c0       ?Save@idStaticEntity@@QBEXPAVidSaveGame@@@Z 100562c0 f   Misc.obj
 0001:00055340       ?Restore@idStaticEntity@@QAEXPAVidRestoreGame@@@Z 10056340 f   Misc.obj
 0001:000553b0       ?ShowEditingDialog@idStaticEntity@@UAEXXZ 100563b0 f   Misc.obj
 0001:000553d0       ?Think@idStaticEntity@@UAEXXZ 100563d0 f   Misc.obj
 0001:00055510       ?Fade@idStaticEntity@@QAEXABVidVec4@@M@Z 10056510 f   Misc.obj
 0001:00055590       ?Hide@idStaticEntity@@UAEXXZ 10056590 f   Misc.obj
 0001:000555b0       ?WriteToSnapshot@idStaticEntity@@UBEXAAVidBitMsgDelta@@@Z 100565b0 f   Misc.obj
 0001:000555f0       ?GetType@idFuncEmitter@@UBEPAVidTypeInfo@@XZ 100565f0 f   Misc.obj
 0001:00055600       ?Save@idFuncEmitter@@QBEXPAVidSaveGame@@@Z 10056600 f   Misc.obj
 0001:00055620       ?Restore@idFuncEmitter@@QAEXPAVidRestoreGame@@@Z 10056620 f   Misc.obj
 0001:00055640       ?GetType@idFuncSplat@@UBEPAVidTypeInfo@@XZ 10056640 f   Misc.obj
 0001:00055650       ?GetType@idFuncSmoke@@UBEPAVidTypeInfo@@XZ 10056650 f   Misc.obj
 0001:00055660       ?Save@idFuncSmoke@@QBEXPAVidSaveGame@@@Z 10056660 f   Misc.obj
 0001:000556a0       ?Restore@idFuncSmoke@@QAEXPAVidRestoreGame@@@Z 100566a0 f   Misc.obj
 0001:000556e0       ?Event_Activate@idFuncSmoke@@QAEXPAVidEntity@@@Z 100566e0 f   Misc.obj
 0001:00055720       ?Think@idFuncSmoke@@UAEXXZ 10056720 f   Misc.obj
 0001:00055830       ?GetType@idTextEntity@@UBEPAVidTypeInfo@@XZ 10056830 f   Misc.obj
 0001:00055840       ?Restore@idTextEntity@@QAEXPAVidRestoreGame@@@Z 10056840 f   Misc.obj
 0001:00055870       ?GetType@idVacuumSeparatorEntity@@UBEPAVidTypeInfo@@XZ 10056870 f   Misc.obj
 0001:00055880       ?Save@idVacuumSeparatorEntity@@QBEXPAVidSaveGame@@@Z 10056880 f   Misc.obj
 0001:000558c0       ?Restore@idVacuumSeparatorEntity@@QAEXPAVidRestoreGame@@@Z 100568c0 f   Misc.obj
 0001:00055900       ?Event_Activate@idVacuumSeparatorEntity@@QAEXPAVidEntity@@@Z 10056900 f   Misc.obj
 0001:00055920       ?GetType@idLocationSeparatorEntity@@UBEPAVidTypeInfo@@XZ 10056920 f   Misc.obj
 0001:00055930       ?GetType@idVacuumEntity@@UBEPAVidTypeInfo@@XZ 10056930 f   Misc.obj
 0001:00055940       ?GetType@idLocationEntity@@UBEPAVidTypeInfo@@XZ 10056940 f   Misc.obj
 0001:00055950       ?GetType@idBeam@@UBEPAVidTypeInfo@@XZ 10056950 f   Misc.obj
 0001:00055960       ?Spawn@idBeam@@QAEXXZ      10056960 f   Misc.obj
 0001:000559c0       ?SetBeamTarget@idBeam@@QAEXABVidVec3@@@Z 100569c0 f   Misc.obj
 0001:00055a20       ?Event_Activate@idBeam@@AAEXPAVidEntity@@@Z 10056a20 f   Misc.obj
 0001:00055a50       ?GetType@idLiquid@@UBEPAVidTypeInfo@@XZ 10056a50 f   Misc.obj
 0001:00055a60       ?GetType@idShaking@@UBEPAVidTypeInfo@@XZ 10056a60 f   Misc.obj
 0001:00055a70       ??0idShaking@@QAE@XZ       10056a70 f   Misc.obj
 0001:00055ad0       ?Save@idShaking@@QBEXPAVidSaveGame@@@Z 10056ad0 f   Misc.obj
 0001:00055b00       ?Restore@idShaking@@QAEXPAVidRestoreGame@@@Z 10056b00 f   Misc.obj
 0001:00055b40       ?GetType@idEarthQuake@@UBEPAVidTypeInfo@@XZ 10056b40 f   Misc.obj
 0001:00055b50       ??0idEarthQuake@@QAE@XZ    10056b50 f   Misc.obj
 0001:00055ba0       ?Save@idEarthQuake@@QBEXPAVidSaveGame@@@Z 10056ba0 f   Misc.obj
 0001:00055c30       ?Restore@idEarthQuake@@QAEXPAVidRestoreGame@@@Z 10056c30 f   Misc.obj
 0001:00055cd0       ?Think@idEarthQuake@@UAEXXZ 10056cd0 f   Misc.obj
 0001:00055dc0       ?GetType@idFuncPortal@@UBEPAVidTypeInfo@@XZ 10056dc0 f   Misc.obj
 0001:00055dd0       ?Save@idFuncPortal@@QBEXPAVidSaveGame@@@Z 10056dd0 f   Misc.obj
 0001:00055e00       ?Restore@idFuncPortal@@QAEXPAVidRestoreGame@@@Z 10056e00 f   Misc.obj
 0001:00055e50       ?Event_Activate@idFuncPortal@@AAEXPAVidEntity@@@Z 10056e50 f   Misc.obj
 0001:00055e80       ?GetType@idFuncAASPortal@@UBEPAVidTypeInfo@@XZ 10056e80 f   Misc.obj
 0001:00055e90       ?Save@idFuncAASObstacle@@QBEXPAVidSaveGame@@@Z 10056e90 f   Misc.obj
 0001:00055e90       ?Save@idActivator@@QBEXPAVidSaveGame@@@Z 10056e90 f   Misc.obj
 0001:00055e90       ?Save@idFuncAASPortal@@QBEXPAVidSaveGame@@@Z 10056e90 f   Misc.obj
 0001:00055eb0       ?Restore@idFuncAASPortal@@QAEXPAVidRestoreGame@@@Z 10056eb0 f   Misc.obj
 0001:00055ef0       ?Event_Activate@idFuncAASPortal@@AAEXPAVidEntity@@@Z 10056ef0 f   Misc.obj
 0001:00055f30       ?GetType@idFuncAASObstacle@@UBEPAVidTypeInfo@@XZ 10056f30 f   Misc.obj
 0001:00055f40       ?Restore@idFuncAASObstacle@@QAEXPAVidRestoreGame@@@Z 10056f40 f   Misc.obj
 0001:00055f80       ?Event_Activate@idFuncAASObstacle@@AAEXPAVidEntity@@@Z 10056f80 f   Misc.obj
 0001:00055fc0       ?GetType@idFuncRadioChatter@@UBEPAVidTypeInfo@@XZ 10056fc0 f   Misc.obj
 0001:00055fd0       ?Save@idFuncRadioChatter@@QBEXPAVidSaveGame@@@Z 10056fd0 f   Misc.obj
 0001:00055ff0       ?Restore@idFuncRadioChatter@@QAEXPAVidRestoreGame@@@Z 10056ff0 f   Misc.obj
 0001:00056010       ?Event_ResetRadioHud@idFuncRadioChatter@@AAEXPAVidEntity@@@Z 10057010 f   Misc.obj
 0001:00056070       ?GetType@idPhantomObjects@@UBEPAVidTypeInfo@@XZ 10057070 f   Misc.obj
 0001:00056080       ?CreateInstance@idSpawnableEntity@@SAPAVidClass@@XZ 10057080 f   Misc.obj
 0001:00056130       ?CreateInstance@idPlayerStart@@SAPAVidClass@@XZ 10057130 f   Misc.obj
 0001:000561e0       ?TeleportPlayer@idPlayerStart@@AAEXPAVidPlayer@@@Z 100571e0 f   Misc.obj
 0001:000563d0       ?CreateInstance@idActivator@@SAPAVidClass@@XZ 100573d0 f   Misc.obj
 0001:00056480       ?Spawn@idActivator@@QAEXXZ 10057480 f   Misc.obj
 0001:00056580       ?CreateInstance@idPathCorner@@SAPAVidClass@@XZ 10057580 f   Misc.obj
 0001:00056630       ?DrawDebugInfo@idPathCorner@@SAXXZ 10057630 f   Misc.obj
 0001:00056710       ?RandomPath@idPathCorner@@SAPAV1@PBVidEntity@@0@Z 10057710 f   Misc.obj
 0001:000567e0       ?Event_RandomPath@idPathCorner@@AAEXXZ 100577e0 f   Misc.obj
 0001:000567e0       ?Event_RandomPath@idAI@@IAEXXZ 100577e0 f   AI_events.obj
 0001:00056800       ?CreateInstance@idDamagable@@SAPAVidClass@@XZ 10057800 f   Misc.obj
 0001:000568b0       ?Event_RestoreDamagable@idDamagable@@AAEXXZ 100578b0 f   Misc.obj
 0001:000568f0       ?CreateInstance@idExplodable@@SAPAVidClass@@XZ 100578f0 f   Misc.obj
 0001:000569a0       ?Event_Explode@idExplodable@@AAEXPAVidEntity@@@Z 100579a0 f   Misc.obj
 0001:00056a80       ??0idSpring@@QAE@XZ        10057a80 f i Misc.obj
 0001:00056ad0       ??1idSpring@@UAE@XZ        10057ad0 f i Misc.obj
 0001:00056b20       ??_EidSpring@@UAEPAXI@Z    10057b20 f i Misc.obj
 0001:00056b20       ??_GidSpring@@UAEPAXI@Z    10057b20 f i Misc.obj
 0001:00056b40       ?Think@idSpring@@UAEXXZ    10057b40 f   Misc.obj
 0001:00056e60       ?CreateInstance@idForceField@@SAPAVidClass@@XZ 10057e60 f   Misc.obj
 0001:00056f00       ??_GidForceField@@UAEPAXI@Z 10057f00 f i Misc.obj
 0001:00056f00       ??_EidForceField@@UAEPAXI@Z 10057f00 f i Misc.obj
 0001:00056f20       ?Spawn@idForceField@@QAEXXZ 10057f20 f   Misc.obj
 0001:00057180       ?Event_FindTargets@idForceField@@AAEXXZ 10058180 f   Misc.obj
 0001:00057240       ??0idAnimated@@QAE@XZ      10058240 f   Misc.obj
 0001:00057290       ??1idAnimated@@UAE@XZ      10058290 f   Misc.obj
 0001:00057300       ?Save@idAnimated@@QBEXPAVidSaveGame@@@Z 10058300 f   Misc.obj
 0001:00057370       ?Restore@idAnimated@@QAEXPAVidRestoreGame@@@Z 10058370 f   Misc.obj
 0001:000573e0       ?GetPhysicsToSoundTransform@idAnimated@@UAE_NAAVidVec3@@AAVidMat3@@@Z 100583e0 f   Misc.obj
 0001:00057460       ?StartRagdoll@idAnimated@@QAE_NXZ 10058460 f   Misc.obj
 0001:000574d0       ?PlayNextAnim@idAnimated@@AAEXXZ 100584d0 f   Misc.obj
 0001:00057730       ?Event_StartRagdoll@idAnimated@@AAEXXZ 10058730 f   Misc.obj
 0001:00057760       ?Event_AnimDone@idAnimated@@AAEXH@Z 10058760 f   Misc.obj
 0001:000578f0       ?Event_Activate@idAnimated@@AAEXPAVidEntity@@@Z 100588f0 f   Misc.obj
 0001:000579d0       ?Event_Start@idAnimated@@AAEXXZ 100589d0 f   Misc.obj
 0001:00057b20       ?Event_LaunchMissilesUpdate@idAnimated@@AAEXHHHH@Z 10058b20 f   Misc.obj
 0001:00057f50       ?Event_LaunchMissiles@idAnimated@@AAEXPBD000HH@Z 10058f50 f   Misc.obj
 0001:000580f0       ?CreateInstance@idStaticEntity@@SAPAVidClass@@XZ 100590f0 f   Misc.obj
 0001:00058190       ?Spawn@idStaticEntity@@QAEXXZ 10059190 f   Misc.obj
 0001:00058430       ?Show@idStaticEntity@@UAEXXZ 10059430 f   Misc.obj
 0001:00058480       ?Event_Activate@idStaticEntity@@AAEXPAVidEntity@@@Z 10059480 f   Misc.obj
 0001:000585a0       ?ReadFromSnapshot@idStaticEntity@@UAEXABVidBitMsgDelta@@@Z 100595a0 f   Misc.obj
 0001:000585f0       ?ClientReceiveEvent@idStaticEntity@@UAE_NHHABVidBitMsg@@@Z 100595f0 f   Misc.obj
 0001:00058610       ?CreateInstance@idFuncEmitter@@SAPAVidClass@@XZ 10059610 f   Misc.obj
 0001:000586c0       ?Spawn@idFuncEmitter@@QAEXXZ 100596c0 f   Misc.obj
 0001:00058720       ?Event_Activate@idFuncEmitter@@QAEXPAVidEntity@@@Z 10059720 f   Misc.obj
 0001:000587b0       ?WriteToSnapshot@idFuncEmitter@@UBEXAAVidBitMsgDelta@@@Z 100597b0 f   Misc.obj
 0001:00058810       ?ReadFromSnapshot@idFuncEmitter@@UAEXABVidBitMsgDelta@@@Z 10059810 f   Misc.obj
 0001:00058870       ?CreateInstance@idFuncSplat@@SAPAVidClass@@XZ 10059870 f   Misc.obj
 0001:00058920       ?Event_Splat@idFuncSplat@@AAEXXZ 10059920 f   Misc.obj
 0001:00058a90       ?Event_Activate@idFuncSplat@@AAEXPAVidEntity@@@Z 10059a90 f   Misc.obj
 0001:00058af0       ?CreateInstance@idFuncSmoke@@SAPAVidClass@@XZ 10059af0 f   Misc.obj
 0001:00058bb0       ?Spawn@idFuncSmoke@@QAEXXZ 10059bb0 f   Misc.obj
 0001:00058ca0       ??1idTextEntity@@UAE@XZ    10059ca0 f i Misc.obj
 0001:00058cf0       ?Spawn@idTextEntity@@QAEXXZ 10059cf0 f   Misc.obj
 0001:00058da0       ?Save@idTextEntity@@QBEXPAVidSaveGame@@@Z 10059da0 f   Misc.obj
 0001:00058dd0       ?Think@idTextEntity@@UAEXXZ 10059dd0 f   Misc.obj
 0001:00059000       ?CreateInstance@idVacuumSeparatorEntity@@SAPAVidClass@@XZ 1005a000 f   Misc.obj
 0001:000590b0       ?Spawn@idVacuumSeparatorEntity@@QAEXXZ 1005a0b0 f   Misc.obj
 0001:000591b0       ?CreateInstance@idLocationSeparatorEntity@@SAPAVidClass@@XZ 1005a1b0 f   Misc.obj
 0001:00059260       ?Spawn@idLocationSeparatorEntity@@QAEXXZ 1005a260 f   Misc.obj
 0001:00059350       ?CreateInstance@idVacuumEntity@@SAPAVidClass@@XZ 1005a350 f   Misc.obj
 0001:00059400       ?Spawn@idVacuumEntity@@QAEXXZ 1005a400 f   Misc.obj
 0001:00059450       ?CreateInstance@idLocationEntity@@SAPAVidClass@@XZ 1005a450 f   Misc.obj
 0001:00059500       ?GetLocation@idLocationEntity@@QBEPBDXZ 1005a500 f   Misc.obj
 0001:00059520       ?Save@idDamagable@@QBEXPAVidSaveGame@@@Z 1005a520 f   Misc.obj
 0001:00059520       ?Save@idBeam@@QBEXPAVidSaveGame@@@Z 1005a520 f   Misc.obj
 0001:00059550       ?Restore@idDamagable@@QAEXPAVidRestoreGame@@@Z 1005a550 f   Misc.obj
 0001:00059550       ?Restore@idBeam@@QAEXPAVidRestoreGame@@@Z 1005a550 f   Misc.obj
 0001:00059580       ?Think@idBeam@@UAEXXZ      1005a580 f   Misc.obj
 0001:00059610       ?Show@idBeam@@UAEXXZ       1005a610 f   Misc.obj
 0001:00059660       ?Event_MatchTarget@idBeam@@AAEXXZ 1005a660 f   Misc.obj
 0001:000597a0       ?WriteToSnapshot@idBeam@@UBEXAAVidBitMsgDelta@@@Z 1005a7a0 f   Misc.obj
 0001:00059820       ?ReadFromSnapshot@idBeam@@UAEXABVidBitMsgDelta@@@Z 1005a820 f   Misc.obj
 0001:000598b0       ?CreateInstance@idLiquid@@SAPAVidClass@@XZ 1005a8b0 f   Misc.obj
 0001:00059960       ?CreateInstance@idShaking@@SAPAVidClass@@XZ 1005a960 f   Misc.obj
 0001:00059a00       ?BeginShaking@idShaking@@AAEXXZ 1005aa00 f   Misc.obj
 0001:00059af0       ?Event_Activate@idShaking@@AAEXPAVidEntity@@@Z 1005aaf0 f   Misc.obj
 0001:00059b60       ?CreateInstance@idEarthQuake@@SAPAVidClass@@XZ 1005ab60 f   Misc.obj
 0001:00059c00       ?Spawn@idEarthQuake@@QAEXXZ 1005ac00 f   Misc.obj
 0001:00059d70       ?Event_Activate@idEarthQuake@@AAEXPAVidEntity@@@Z 1005ad70 f   Misc.obj
 0001:0005a020       ?CreateInstance@idFuncPortal@@SAPAVidClass@@XZ 1005b020 f   Misc.obj
 0001:0005a0d0       ?Spawn@idFuncPortal@@QAEXXZ 1005b0d0 f   Misc.obj
 0001:0005a1c0       ?CreateInstance@idFuncAASPortal@@SAPAVidClass@@XZ 1005b1c0 f   Misc.obj
 0001:0005a270       ??_GidVacuumEntity@@UAEPAXI@Z 1005b270 f i Misc.obj
 0001:0005a270       ??_GidTrigger_Touch@@UAEPAXI@Z 1005b270 f i Trigger.obj
 0001:0005a270       ??_GidTarget_LightFadeIn@@UAEPAXI@Z 1005b270 f i Target.obj
 0001:0005a270       ??_EidLocationEntity@@UAEPAXI@Z 1005b270 f i Misc.obj
 0001:0005a270       ??_GidTarget_CallObjectFunction@@UAEPAXI@Z 1005b270 f i Target.obj
 0001:0005a270       ??_GidEntity@@UAEPAXI@Z    1005b270 f i Entity.obj
 0001:0005a270       ??_EidTarget_LevelTrigger@@UAEPAXI@Z 1005b270 f i Target.obj
 0001:0005a270       ??_EidVacuumSeparatorEntity@@UAEPAXI@Z 1005b270 f i Misc.obj
 0001:0005a270       ??_GidSplinePath@@UAEPAXI@Z 1005b270 f i Mover.obj
 0001:0005a270       ??_GidEarthQuake@@UAEPAXI@Z 1005b270 f i Misc.obj
 0001:0005a270       ??_EidTarget_LightFadeIn@@UAEPAXI@Z 1005b270 f i Target.obj
 0001:0005a270       ??_GidTarget_GiveSecurity@@UAEPAXI@Z 1005b270 f i Target.obj
 0001:0005a270       ??_EidTarget_GiveSecurity@@UAEPAXI@Z 1005b270 f i Target.obj
 0001:0005a270       ??_GidLocationSeparatorEntity@@UAEPAXI@Z 1005b270 f i Misc.obj
 0001:0005a270       ??_GidTarget_SetShaderParm@@UAEPAXI@Z 1005b270 f i Target.obj
 0001:0005a270       ??_GidTarget_FadeEntity@@UAEPAXI@Z 1005b270 f i Target.obj
 0001:0005a270       ??_GidTarget_Tip@@UAEPAXI@Z 1005b270 f i Target.obj
 0001:0005a270       ??_GidTarget_LevelTrigger@@UAEPAXI@Z 1005b270 f i Target.obj
 0001:0005a270       ??_GidPlayerStart@@UAEPAXI@Z 1005b270 f i Misc.obj
 0001:0005a270       ??_GidTarget_EnableStamina@@UAEPAXI@Z 1005b270 f i Target.obj
 0001:0005a270       ??_EidTarget_Damage@@UAEPAXI@Z 1005b270 f i Target.obj
 0001:0005a270       ??_EidTrigger_Touch@@UAEPAXI@Z 1005b270 f i Trigger.obj
 0001:0005a270       ??_GidFuncAASPortal@@UAEPAXI@Z 1005b270 f i Misc.obj
 0001:0005a270       ??_GidFuncPortal@@UAEPAXI@Z 1005b270 f i Misc.obj
 0001:0005a270       ??_EidItemRemover@@UAEPAXI@Z 1005b270 f i Item.obj
 0001:0005a270       ??_EidTarget_GiveEmail@@UAEPAXI@Z 1005b270 f i Target.obj
 0001:0005a270       ??_GidTarget_SetModel@@UAEPAXI@Z 1005b270 f i Target.obj
 0001:0005a270       ??_EidFuncSplat@@UAEPAXI@Z 1005b270 f i Misc.obj
 0001:0005a270       ??_EidFuncPortal@@UAEPAXI@Z 1005b270 f i Misc.obj
 0001:0005a270       ??_GidStaticEntity@@UAEPAXI@Z 1005b270 f i Misc.obj
 0001:0005a270       ??_EidTarget_SetShaderParm@@UAEPAXI@Z 1005b270 f i Target.obj
 0001:0005a270       ??_EidSplinePath@@UAEPAXI@Z 1005b270 f i Mover.obj
 0001:0005a270       ??_EidTarget_EndLevel@@UAEPAXI@Z 1005b270 f i Target.obj
 0001:0005a270       ??_GidTarget_EndLevel@@UAEPAXI@Z 1005b270 f i Target.obj
 0001:0005a270       ??_GidFuncSplat@@UAEPAXI@Z 1005b270 f i Misc.obj
 0001:0005a270       ??_GidFuncSmoke@@UAEPAXI@Z 1005b270 f i Misc.obj
 0001:0005a270       ??_GidTrigger_Fade@@UAEPAXI@Z 1005b270 f i Trigger.obj
 0001:0005a270       ??_EidStaticEntity@@UAEPAXI@Z 1005b270 f i Misc.obj
 0001:0005a270       ??_GidLocationEntity@@UAEPAXI@Z 1005b270 f i Misc.obj
 0001:0005a270       ??_GidTarget_RemoveWeapons@@UAEPAXI@Z 1005b270 f i Target.obj
 0001:0005a270       ??_EidFuncSmoke@@UAEPAXI@Z 1005b270 f i Misc.obj
 0001:0005a270       ??_GidDamagable@@UAEPAXI@Z 1005b270 f i Misc.obj
 0001:0005a270       ??_EidTarget_SetModel@@UAEPAXI@Z 1005b270 f i Target.obj
 0001:0005a270       ??_GidSpawnableEntity@@UAEPAXI@Z 1005b270 f i Misc.obj
 0001:0005a270       ??_EidTarget_FadeSoundClass@@UAEPAXI@Z 1005b270 f i Target.obj
 0001:0005a270       ??_EidEarthQuake@@UAEPAXI@Z 1005b270 f i Misc.obj
 0001:0005a270       ??_EidPathCorner@@UAEPAXI@Z 1005b270 f i Misc.obj
 0001:0005a270       ??_GidItemRemover@@UAEPAXI@Z 1005b270 f i Item.obj
 0001:0005a270       ??_EidObjectiveComplete@@UAEPAXI@Z 1005b270 f i Item.obj
 0001:0005a270       ??_EidTrigger_Hurt@@UAEPAXI@Z 1005b270 f i Trigger.obj
 0001:0005a270       ??_EidTarget_SetKeyVal@@UAEPAXI@Z 1005b270 f i Target.obj
 0001:0005a270       ??_GidTrigger_Count@@UAEPAXI@Z 1005b270 f i Trigger.obj
 0001:0005a270       ??_EidActivator@@UAEPAXI@Z 1005b270 f i Misc.obj
 0001:0005a270       ??_GidTarget_Show@@UAEPAXI@Z 1005b270 f i Target.obj
 0001:0005a270       ??_GidTrigger@@UAEPAXI@Z   1005b270 f i Trigger.obj
 0001:0005a270       ??_GidFuncEmitter@@UAEPAXI@Z 1005b270 f i Misc.obj
 0001:0005a270       ??_GidTarget_SetShaderTime@@UAEPAXI@Z 1005b270 f i Target.obj
 0001:0005a270       ??_EidTarget_LightFadeOut@@UAEPAXI@Z 1005b270 f i Target.obj
 0001:0005a270       ??_GidTarget_SetGlobalShaderTime@@UAEPAXI@Z 1005b270 f i Target.obj
 0001:0005a270       ??_GidTarget_EnableLevelWeapons@@UAEPAXI@Z 1005b270 f i Target.obj
 0001:0005a270       ??_EidLiquid@@UAEPAXI@Z    1005b270 f i Misc.obj
 0001:0005a270       ??_GidTarget_Give@@UAEPAXI@Z 1005b270 f i Target.obj
 0001:0005a270       ??_EidTrigger_Count@@UAEPAXI@Z 1005b270 f i Trigger.obj
 0001:0005a270       ??_EidTarget_Tip@@UAEPAXI@Z 1005b270 f i Target.obj
 0001:0005a270       ??_EidTrigger_Fade@@UAEPAXI@Z 1005b270 f i Trigger.obj
 0001:0005a270       ??_GidTarget_SetFov@@UAEPAXI@Z 1005b270 f i Target.obj
 0001:0005a270       ??_GidActivator@@UAEPAXI@Z 1005b270 f i Misc.obj
 0001:0005a270       ??_GidExplodable@@UAEPAXI@Z 1005b270 f i Misc.obj
 0001:0005a270       ??_EidTarget_Remove@@UAEPAXI@Z 1005b270 f i Target.obj
 0001:0005a270       ??_EidCombatNode@@UAEPAXI@Z 1005b270 f i AI.obj
 0001:0005a270       ??_EidTarget_SetPrimaryObjective@@UAEPAXI@Z 1005b270 f i Target.obj
 0001:0005a270       ??_EidFuncEmitter@@UAEPAXI@Z 1005b270 f i Misc.obj
 0001:0005a270       ??_EidTarget_EnableLevelWeapons@@UAEPAXI@Z 1005b270 f i Target.obj
 0001:0005a270       ??_EidTarget_SetGlobalShaderTime@@UAEPAXI@Z 1005b270 f i Target.obj
 0001:0005a270       ??_EidTarget_SetFov@@UAEPAXI@Z 1005b270 f i Target.obj
 0001:0005a270       ??_EidTarget_EnableStamina@@UAEPAXI@Z 1005b270 f i Target.obj
 0001:0005a270       ??_EidTarget_WaitForButton@@UAEPAXI@Z 1005b270 f i Target.obj
 0001:0005a270       ??_GidFuncAASObstacle@@UAEPAXI@Z 1005b270 f i Misc.obj
 0001:0005a270       ??_EidEntity@@UAEPAXI@Z    1005b270 f i Entity.obj
 0001:0005a270       ??_EidDamagable@@UAEPAXI@Z 1005b270 f i Misc.obj
 0001:0005a270       ??_EidVacuumEntity@@UAEPAXI@Z 1005b270 f i Misc.obj
 0001:0005a270       ??_EidTarget_RemoveWeapons@@UAEPAXI@Z 1005b270 f i Target.obj
 0001:0005a270       ??_GidTarget_GiveEmail@@UAEPAXI@Z 1005b270 f i Target.obj
 0001:0005a270       ??_GidTarget_SetPrimaryObjective@@UAEPAXI@Z 1005b270 f i Target.obj
 0001:0005a270       ??_EidLocationSeparatorEntity@@UAEPAXI@Z 1005b270 f i Misc.obj
 0001:0005a270       ??_EidTarget_FadeEntity@@UAEPAXI@Z 1005b270 f i Target.obj
 0001:0005a270       ??_EidBeam@@UAEPAXI@Z      1005b270 f i Misc.obj
 0001:0005a270       ??_GidTrigger_Hurt@@UAEPAXI@Z 1005b270 f i Trigger.obj
 0001:0005a270       ??_GidTarget_LightFadeOut@@UAEPAXI@Z 1005b270 f i Target.obj
 0001:0005a270       ??_GidTarget@@UAEPAXI@Z    1005b270 f i Target.obj
 0001:0005a270       ??_EidFuncRadioChatter@@UAEPAXI@Z 1005b270 f i Misc.obj
 0001:0005a270       ??_GidTarget_Damage@@UAEPAXI@Z 1005b270 f i Target.obj
 0001:0005a270       ??_EidExplodable@@UAEPAXI@Z 1005b270 f i Misc.obj
 0001:0005a270       ??_GidCombatNode@@UAEPAXI@Z 1005b270 f i AI.obj
 0001:0005a270       ??_EidTarget_SessionCommand@@UAEPAXI@Z 1005b270 f i Target.obj
 0001:0005a270       ??_GidLiquid@@UAEPAXI@Z    1005b270 f i Misc.obj
 0001:0005a270       ??_GidTarget_SetKeyVal@@UAEPAXI@Z 1005b270 f i Target.obj
 0001:0005a270       ??_GidPathCorner@@UAEPAXI@Z 1005b270 f i Misc.obj
 0001:0005a270       ??_EidTarget_SetShaderTime@@UAEPAXI@Z 1005b270 f i Target.obj
 0001:0005a270       ??_EidSound@@UAEPAXI@Z     1005b270 f i Sound.obj
 0001:0005a270       ??_GidTarget_WaitForButton@@UAEPAXI@Z 1005b270 f i Target.obj
 0001:0005a270       ??_EidFuncAASObstacle@@UAEPAXI@Z 1005b270 f i Misc.obj
 0001:0005a270       ??_GidTarget_LockDoor@@UAEPAXI@Z 1005b270 f i Target.obj
 0001:0005a270       ??_EidTarget@@UAEPAXI@Z    1005b270 f i Target.obj
 0001:0005a270       ??_EidFuncAASPortal@@UAEPAXI@Z 1005b270 f i Misc.obj
 0001:0005a270       ??_EidTarget_LockDoor@@UAEPAXI@Z 1005b270 f i Target.obj
 0001:0005a270       ??_GidFuncRadioChatter@@UAEPAXI@Z 1005b270 f i Misc.obj
 0001:0005a270       ??_GidTarget_Remove@@UAEPAXI@Z 1005b270 f i Target.obj
 0001:0005a270       ??_EidPlayerStart@@UAEPAXI@Z 1005b270 f i Misc.obj
 0001:0005a270       ??_EidTrigger@@UAEPAXI@Z   1005b270 f i Trigger.obj
 0001:0005a270       ??_GidTarget_FadeSoundClass@@UAEPAXI@Z 1005b270 f i Target.obj
 0001:0005a270       ??_EidSpawnableEntity@@UAEPAXI@Z 1005b270 f i Misc.obj
 0001:0005a270       ??_GidSound@@UAEPAXI@Z     1005b270 f i Sound.obj
 0001:0005a270       ??_GidTarget_SessionCommand@@UAEPAXI@Z 1005b270 f i Target.obj
 0001:0005a270       ??_GidBeam@@UAEPAXI@Z      1005b270 f i Misc.obj
 0001:0005a270       ??_EidTarget_Give@@UAEPAXI@Z 1005b270 f i Target.obj
 0001:0005a270       ??_GidObjectiveComplete@@UAEPAXI@Z 1005b270 f i Item.obj
 0001:0005a270       ??_EidTarget_CallObjectFunction@@UAEPAXI@Z 1005b270 f i Target.obj
 0001:0005a270       ??_GidVacuumSeparatorEntity@@UAEPAXI@Z 1005b270 f i Misc.obj
 0001:0005a270       ??_EidTarget_Show@@UAEPAXI@Z 1005b270 f i Target.obj
 0001:0005a290       ?Spawn@idFuncAASPortal@@QAEXXZ 1005b290 f   Misc.obj
 0001:0005a2f0       ?CreateInstance@idFuncAASObstacle@@SAPAVidClass@@XZ 1005b2f0 f   Misc.obj
 0001:0005a3a0       ?Spawn@idFuncAASObstacle@@QAEXXZ 1005b3a0 f   Misc.obj
 0001:0005a400       ?CreateInstance@idFuncRadioChatter@@SAPAVidClass@@XZ 1005b400 f   Misc.obj
 0001:0005a4b0       ?Spawn@idFuncRadioChatter@@QAEXXZ 1005b4b0 f   Misc.obj
 0001:0005a500       ?Event_Activate@idFuncRadioChatter@@AAEXPAVidEntity@@@Z 1005b500 f   Misc.obj
 0001:0005a5f0       ?Save@idPhantomObjects@@QBEXPAVidSaveGame@@@Z 1005b5f0 f   Misc.obj
 0001:0005a6f0       ?Spawn@idPhantomObjects@@QAEXXZ 1005b6f0 f   Misc.obj
 0001:0005a8a0       ?Event_TeleportStage@idPlayerStart@@AAEXPAVidEntity@@@Z 1005b8a0 f   Misc.obj
 0001:0005aa70       ?Event_TeleportPlayer@idPlayerStart@@AAEXPAVidEntity@@@Z 1005ba70 f   Misc.obj
 0001:0005ab60       ?Spawn@idDamagable@@QAEXXZ 1005bb60 f   Misc.obj
 0001:0005ace0       ?BecomeBroken@idDamagable@@AAEXPAVidEntity@@@Z 1005bce0 f   Misc.obj
 0001:0005afa0       ?Killed@idDamagable@@UAEXPAVidEntity@@0HABVidVec3@@H@Z 1005bfa0 f   Misc.obj
 0001:0005afd0       ?Event_BecomeBroken@idDamagable@@AAEXPAVidEntity@@@Z 1005bfd0 f   Misc.obj
 0001:0005afe0       ?ClientReceiveEvent@idExplodable@@UAE_NHHABVidBitMsg@@@Z 1005bfe0 f   Misc.obj
 0001:0005b000       ?CreateInstance@idSpring@@SAPAVidClass@@XZ 1005c000 f   Misc.obj
 0001:0005b0a0       ?Event_LinkSpring@idSpring@@AAEXXZ 1005c0a0 f   Misc.obj
 0001:0005b300       ?CreateInstance@idAnimated@@SAPAVidClass@@XZ 1005c300 f   Misc.obj
 0001:0005b3a0       ??_EidAnimated@@UAEPAXI@Z  1005c3a0 f i Misc.obj
 0001:0005b3a0       ??_GidAnimated@@UAEPAXI@Z  1005c3a0 f i Misc.obj
 0001:0005b3c0       ?Spawn@idAnimated@@QAEXXZ  1005c3c0 f   Misc.obj
 0001:0005b780       ?LoadAF@idAnimated@@UAE_NXZ 1005c780 f   Misc.obj
 0001:0005b890       ?ClientReceiveEvent@idAnimated@@UAE_NHHABVidBitMsg@@@Z 1005c890 f   Misc.obj
 0001:0005b910       ?CreateInstance@idTextEntity@@SAPAVidClass@@XZ 1005c910 f   Misc.obj
 0001:0005b9d0       ??_GidTextEntity@@UAEPAXI@Z 1005c9d0 f i Misc.obj
 0001:0005b9d0       ??_EidTextEntity@@UAEPAXI@Z 1005c9d0 f i Misc.obj
 0001:0005b9f0       ?Spawn@idLocationEntity@@QAEXXZ 1005c9f0 f   Misc.obj
 0001:0005bac0       ?CreateInstance@idBeam@@SAPAVidClass@@XZ 1005cac0 f   Misc.obj
 0001:0005bb70       ?Spawn@idShaking@@QAEXXZ   1005cb70 f   Misc.obj
 0001:0005bce0       ?ClientReceiveEvent@idFuncRadioChatter@@UAE_NHHABVidBitMsg@@@Z 1005cce0 f   Misc.obj
 0001:0005bd20       ??0idPhantomObjects@@QAE@XZ 1005cd20 f   Misc.obj
 0001:0005bde0       ??1idPhantomObjects@@UAE@XZ 1005cde0 f i Misc.obj
 0001:0005be80       ?Restore@idPhantomObjects@@QAEXPAVidRestoreGame@@@Z 1005ce80 f   Misc.obj
 0001:0005c2c0       ?Event_Activate@idPhantomObjects@@AAEXPAVidEntity@@@Z 1005d2c0 f   Misc.obj
 0001:0005c6c0       ?Think@idPhantomObjects@@UAEXXZ 1005d6c0 f   Misc.obj
 0001:0005cb40       ?ClientReceiveEvent@idPlayerStart@@UAE_NHHABVidBitMsg@@@Z 1005db40 f   Misc.obj
 0001:0005cba0       ?CreateInstance@idPhantomObjects@@SAPAVidClass@@XZ 1005dba0 f   Misc.obj
 0001:0005cc40       ??_EidPhantomObjects@@UAEPAXI@Z 1005dc40 f i Misc.obj
 0001:0005cc40       ??_GidPhantomObjects@@UAEPAXI@Z 1005dc40 f i Misc.obj
 0001:0005cc60       ?GetType@idMoveable@@UBEPAVidTypeInfo@@XZ 1005dc60 f   Moveable.obj
 0001:0005cc70       ?EnableDamage@idMoveable@@QAEX_NM@Z 1005dc70 f   Moveable.obj
 0001:0005ccd0       ?WriteToSnapshot@idMoveable@@UBEXAAVidBitMsgDelta@@@Z 1005dcd0 f   Moveable.obj
 0001:0005cd00       ?Event_BecomeNonSolid@idMoveable@@IAEXXZ 1005dd00 f   Moveable.obj
 0001:0005cd30       ?Event_IsAtRest@idMoveable@@IAEXXZ 1005dd30 f   Moveable.obj
 0001:0005cd50       ?Event_EnableDamage@idMoveable@@IAEXM@Z 1005dd50 f   Moveable.obj
 0001:0005cd80       ?GetType@idBarrel@@UBEPAVidTypeInfo@@XZ 1005dd80 f   Moveable.obj
 0001:0005cd90       ?Save@idBarrel@@QBEXPAVidSaveGame@@@Z 1005dd90 f   Moveable.obj
 0001:0005ce00       ?Restore@idBarrel@@QAEXPAVidRestoreGame@@@Z 1005de00 f   Moveable.obj
 0001:0005ce70       ?ClientPredictionThink@idLight@@UAEXXZ 1005de70 f   Light.obj
 0001:0005ce70       ?ClientPredictionThink@idAFEntity_WithAttachedHead@@UAEXXZ 1005de70 f   AFEntity.obj
 0001:0005ce70       ?ClientPredictionThink@idBarrel@@UAEXXZ 1005de70 f   Moveable.obj
 0001:0005ce80       ?GetType@idExplodingBarrel@@UBEPAVidTypeInfo@@XZ 1005de80 f   Moveable.obj
 0001:0005ce90       ?Save@idExplodingBarrel@@QBEXPAVidSaveGame@@@Z 1005de90 f   Moveable.obj
 0001:0005cf30       ?Restore@idExplodingBarrel@@QAEXPAVidRestoreGame@@@Z 1005df30 f   Moveable.obj
 0001:0005cfd0       ?Damage@idExplodingBarrel@@UAEXPAVidEntity@@0ABVidVec3@@PBDMH@Z 1005dfd0 f   Moveable.obj
 0001:0005d080       ?Event_TriggerTargets@idExplodingBarrel@@AAEXXZ 1005e080 f   Moveable.obj
 0001:0005d090       ?Event_Explode@idExplodingBarrel@@AAEXXZ 1005e090 f   Moveable.obj
 0001:0005d0d0       ?Event_Activate@idExplodingBarrel@@AAEXPAVidEntity@@@Z 1005e0d0 f   Moveable.obj
 0001:0005d0f0       ?WriteToSnapshot@idExplodingBarrel@@UBEXAAVidBitMsgDelta@@@Z 1005e0f0 f   Moveable.obj
 0001:0005d130       ??0idMoveable@@QAE@XZ      1005e130 f   Moveable.obj
 0001:0005d250       ??1idMoveable@@UAE@XZ      1005e250 f   Moveable.obj
 0001:0005d300       ?Show@idMoveable@@UAEXXZ   1005e300 f   Moveable.obj
 0001:0005d350       ?Collide@idMoveable@@UAE_NABUtrace_s@@ABVidVec3@@@Z 1005e350 f   Moveable.obj
 0001:0005d7d0       ?Killed@idMoveable@@UAEXPAVidEntity@@0HABVidVec3@@H@Z 1005e7d0 f   Moveable.obj
 0001:0005d870       ?ReadFromSnapshot@idMoveable@@UAEXABVidBitMsgDelta@@@Z 1005e870 f   Moveable.obj
 0001:0005d8b0       ??1idBarrel@@UAE@XZ        1005e8b0 f i Moveable.obj
 0001:0005d8c0       ?BarrelThink@idBarrel@@QAEXXZ 1005e8c0 f   Moveable.obj
 0001:0005de60       ?GetPhysicsToVisualTransform@idBarrel@@UAE_NAAVidVec3@@AAVidMat3@@@Z 1005ee60 f   Moveable.obj
 0001:0005dee0       ??1idExplodingBarrel@@UAE@XZ 1005eee0 f   Moveable.obj
 0001:0005df60       ?Spawn@idExplodingBarrel@@QAEXXZ 1005ef60 f   Moveable.obj
 0001:0005e0b0       ?Think@idExplodingBarrel@@UAEXXZ 1005f0b0 f   Moveable.obj
 0001:0005e340       ?AddParticles@idExplodingBarrel@@AAEXPBD_N@Z 1005f340 f   Moveable.obj
 0001:0005e4f0       ?AddLight@idExplodingBarrel@@AAEXPBD_N@Z 1005f4f0 f   Moveable.obj
 0001:0005e670       ?ExplodingEffects@idExplodingBarrel@@AAEXXZ 1005f670 f   Moveable.obj
 0001:0005e780       ?Killed@idExplodingBarrel@@UAEXPAVidEntity@@0HABVidVec3@@H@Z 1005f780 f   Moveable.obj
 0001:0005ec80       ?Event_Respawn@idExplodingBarrel@@AAEXXZ 1005fc80 f   Moveable.obj
 0001:0005ef40       ?ReadFromSnapshot@idExplodingBarrel@@UAEXABVidBitMsgDelta@@@Z 1005ff40 f   Moveable.obj
 0001:0005efa0       ?ClientReceiveEvent@idExplodingBarrel@@UAE_NHHABVidBitMsg@@@Z 1005ffa0 f   Moveable.obj
 0001:0005f010       ?CreateInstance@idMoveable@@SAPAVidClass@@XZ 10060010 f   Moveable.obj
 0001:0005f0b0       ?Spawn@idMoveable@@QAEXXZ  100600b0 f   Moveable.obj
 0001:0005f850       ?Save@idMoveable@@QBEXPAVidSaveGame@@@Z 10060850 f   Moveable.obj
 0001:0005f960       ?InitInitialSpline@idMoveable@@IAEXH@Z 10060960 f   Moveable.obj
 0001:0005fc90       ?FollowInitialSplinePath@idMoveable@@IAE_NXZ 10060c90 f   Moveable.obj
 0001:000600e0       ?Think@idMoveable@@UAEXXZ  100610e0 f   Moveable.obj
 0001:00060110       ?Event_Activate@idMoveable@@IAEXPAVidEntity@@@Z 10061110 f   Moveable.obj
 0001:000602a0       ?Event_SetOwnerFromSpawnArgs@idMoveable@@IAEXXZ 100612a0 f   Moveable.obj
 0001:00060390       ??0idBarrel@@QAE@XZ        10061390 f   Moveable.obj
 0001:000604b0       ??_GidMoveable@@UAEPAXI@Z  100614b0 f i Moveable.obj
 0001:000604b0       ??_GidBarrel@@UAEPAXI@Z    100614b0 f i Moveable.obj
 0001:000604b0       ??_EidMoveable@@UAEPAXI@Z  100614b0 f i Moveable.obj
 0001:000604b0       ??_EidBarrel@@UAEPAXI@Z    100614b0 f i Moveable.obj
 0001:000604d0       ?Think@idBarrel@@UAEXXZ    100614d0 f   Moveable.obj
 0001:00060500       ?Spawn@idBarrel@@QAEXXZ    10061500 f   Moveable.obj
 0001:00060640       ??0idExplodingBarrel@@QAE@XZ 10061640 f   Moveable.obj
 0001:00060700       ??_EidExplodingBarrel@@UAEPAXI@Z 10061700 f i Moveable.obj
 0001:00060700       ??_GidExplodingBarrel@@UAEPAXI@Z 10061700 f i Moveable.obj
 0001:00060720       ?Restore@idMoveable@@QAEXPAVidRestoreGame@@@Z 10061720 f   Moveable.obj
 0001:00060830       ?CreateInstance@idBarrel@@SAPAVidClass@@XZ 10061830 f   Moveable.obj
 0001:000608d0       ?CreateInstance@idExplodingBarrel@@SAPAVidClass@@XZ 100618d0 f   Moveable.obj
 0001:00060970       ?GetType@idMover@@UBEPAVidTypeInfo@@XZ 10061970 f   Mover.obj
 0001:00060980       ?Hide@idMoveable@@UAEXXZ   10061980 f   Moveable.obj
 0001:00060980       ?Hide@idMover@@UAEXXZ      10061980 f   Mover.obj
 0001:000609a0       ?Killed@idMover@@UAEXPAVidEntity@@0HABVidVec3@@H@Z 100619a0 f   Mover.obj
 0001:000609b0       ?Event_SetCallback@idMover@@AAEXXZ 100619b0 f   Mover.obj
 0001:00060a20       ?Event_FindGuiTargets@idMover@@AAEXXZ 10061a20 f   Mover.obj
 0001:00060a40       ?Event_StopMoving@idMover@@AAEXXZ 10061a40 f   Mover.obj
 0001:00060a70       ?DoneMoving@idMover@@MAEXXZ 10061a70 f   Mover.obj
 0001:00060ad0       ?Event_StopRotating@idMover@@AAEXXZ 10061ad0 f   Mover.obj
 0001:00060b10       ?DoneRotating@idMover@@MAEXXZ 10061b10 f   Mover.obj
 0001:00060b50       ?UpdateRotationSound@idMover@@IAEXW4moveStage_t@1@@Z 10061b50 f   Mover.obj
 0001:00060b50       ?UpdateMoveSound@idMover@@IAEXW4moveStage_t@1@@Z 10061b50 f   Mover.obj
 0001:00060bf0       ?Event_SetMoveSpeed@idMover@@AAEXM@Z 10061bf0 f   Mover.obj
 0001:00060c30       ?Event_SetMoveTime@idMover@@AAEXM@Z 10061c30 f   Mover.obj
 0001:00060c80       ?Event_SetAccellerationTime@idMover@@AAEXM@Z 10061c80 f   Mover.obj
 0001:00060cd0       ?Event_SetDecelerationTime@idMover@@AAEXM@Z 10061cd0 f   Mover.obj
 0001:00060d20       ?Event_MoveTo@idMover@@AAEXPAVidEntity@@@Z 10061d20 f   Mover.obj
 0001:00060da0       ?MoveToPos@idMover@@IAEXABVidVec3@@@Z 10061da0 f   Mover.obj
 0001:00060da0       ?Event_MoveToPos@idMover@@AAEXAAVidVec3@@@Z 10061da0 f   Mover.obj
 0001:00060df0       ?Event_Bob@idMover@@AAEXMMAAVidVec3@@@Z 10061df0 f   Mover.obj
 0001:00060e70       ?Event_EnableSplineAngles@idMover@@AAEXXZ 10061e70 f   Mover.obj
 0001:00060e80       ?Event_DisableSplineAngles@idMover@@AAEXXZ 10061e80 f   Mover.obj
 0001:00060e90       ?Event_IsMoving@idMover@@AAEXXZ 10061e90 f   Mover.obj
 0001:00060ec0       ?Event_IsRotating@idMover@@AAEXXZ 10061ec0 f   Mover.obj
 0001:00060ef0       ?GetType@idSplinePath@@UBEPAVidTypeInfo@@XZ 10061ef0 f   Mover.obj
 0001:00060f00       ?GetType@idElevator@@UBEPAVidTypeInfo@@XZ 10061f00 f   Mover.obj
 0001:00060f10       ?GetDoor@idElevator@@AAEPAVidDoor@@PBD@Z 10061f10 f   Mover.obj
 0001:00060f90       ?GetType@idMover_Binary@@UBEPAVidTypeInfo@@XZ 10061f90 f   Mover.obj
 0001:00060fa0       ?Event_SetCallback@idMover_Binary@@IAEXXZ 10061fa0 f   Mover.obj
 0001:00060fe0       ?UpdateMoverSound@idMover_Binary@@IAEXW4moverState_t@@@Z 10061fe0 f   Mover.obj
 0001:00061020       ?SetMoverState@idMover_Binary@@IAEXW4moverState_t@@H@Z 10062020 f   Mover.obj
 0001:000612e0       ?Event_MatchActivateTeam@idMover_Binary@@IAEXW4moverState_t@@H@Z 100622e0 f   Mover.obj
 0001:000612e0       ?MatchActivateTeam@idMover_Binary@@IAEXW4moverState_t@@H@Z 100622e0 f   Mover.obj
 0001:00061310       ?BindTeam@idMover_Binary@@QAEXPAVidEntity@@@Z 10062310 f   Mover.obj
 0001:00061340       ?Event_Enable@idMover_Binary@@IAEXXZ 10062340 f   Mover.obj
 0001:00061340       ?Event_Disable@idMover_Binary@@IAEXXZ 10062340 f   Mover.obj
 0001:00061370       ?Event_ReturnToPos1@idMover_Binary@@IAEXXZ 10062370 f   Mover.obj
 0001:00061610       ?PreBind@idMover_Binary@@UAEXXZ 10062610 f   Mover.obj
 0001:00061670       ?PostBind@idMover_Binary@@UAEXXZ 10062670 f   Mover.obj
 0001:000616d0       ?Event_FindGuiTargets@idMover_Binary@@IAEXXZ 100626d0 f   Mover.obj
 0001:000616f0       ?InitSpeed@idMover_Binary@@QAEXAAVidVec3@@0MMM@Z 100626f0 f   Mover.obj
 0001:000618f0       ?InitTime@idMover_Binary@@QAEXAAVidVec3@@0MMM@Z 100628f0 f   Mover.obj
 0001:00061a20       ?WriteToSnapshot@idMover_Binary@@UBEXAAVidBitMsgDelta@@@Z 10062a20 f   Mover.obj
 0001:00061a70       ?GetType@idDoor@@UBEPAVidTypeInfo@@XZ 10062a70 f   Mover.obj
 0001:00061a80       ?Think@idDoor@@UAEXXZ      10062a80 f   Mover.obj
 0001:00061d90       ?Hide@idDoor@@UAEXXZ       10062d90 f   Mover.obj
 0001:00061e70       ?Event_StartOpen@idDoor@@AAEXXZ 10062e70 f   Mover.obj
 0001:00061f30       ?Event_IsOpen@idDoor@@AAEXXZ 10062f30 f   Mover.obj
 0001:00061f60       ?Event_OpenPortal@idDoor@@AAEXXZ 10062f60 f   Mover.obj
 0001:00061fd0       ?GetType@idPlat@@UBEPAVidTypeInfo@@XZ 10062fd0 f   Mover.obj
 0001:00061fe0       ?Save@idPlat@@QBEXPAVidSaveGame@@@Z 10062fe0 f   Mover.obj
 0001:00062020       ?Restore@idPlat@@QAEXPAVidRestoreGame@@@Z 10063020 f   Mover.obj
 0001:00062060       ?Think@idPlat@@UAEXXZ      10063060 f   Mover.obj
 0001:00062200       ?PreBind@idPlat@@UAEXXZ    10063200 f   Mover.obj
 0001:00062200       ?PreBind@idDoor@@UAEXXZ    10063200 f   Mover.obj
 0001:00062210       ?GetLocalTriggerPosition@idPlat@@AAEXPBVidClipModel@@@Z 10063210 f   Mover.obj
 0001:000623e0       ?Event_PartBlocked@idDoor@@AAEXPAVidEntity@@@Z 100633e0 f   Mover.obj
 0001:000623e0       ?Event_PartBlocked@idPlat@@AAEXPAVidEntity@@@Z 100633e0 f   Mover.obj
 0001:00062420       ?GetType@idMover_Periodic@@UBEPAVidTypeInfo@@XZ 10063420 f   Mover.obj
 0001:00062430       ??0idMover_Periodic@@QAE@XZ 10063430 f   Mover.obj
 0001:00062490       ??1idShaking@@UAE@XZ       10063490 f i Misc.obj
 0001:00062490       ??1idMover_Periodic@@UAE@XZ 10063490 f i Mover.obj
 0001:000624e0       ?Save@idMover_Periodic@@QBEXPAVidSaveGame@@@Z 100634e0 f   Mover.obj
 0001:00062510       ?Restore@idMover_Periodic@@QAEXPAVidRestoreGame@@@Z 10063510 f   Mover.obj
 0001:00062550       ?Think@idMover_Periodic@@UAEXXZ 10063550 f   Mover.obj
 0001:00062570       ?Event_PartBlocked@idMover_Periodic@@IAEXPAVidEntity@@@Z 10063570 f   Mover.obj
 0001:000625b0       ?WriteToSnapshot@idMover_Periodic@@UBEXAAVidBitMsgDelta@@@Z 100635b0 f   Mover.obj
 0001:000625f0       ?GetType@idRotater@@UBEPAVidTypeInfo@@XZ 100635f0 f   Mover.obj
 0001:00062600       ?GetType@idBobber@@UBEPAVidTypeInfo@@XZ 10063600 f   Mover.obj
 0001:00062610       ?GetType@idPendulum@@UBEPAVidTypeInfo@@XZ 10063610 f   Mover.obj
 0001:00062620       ?GetType@idRiser@@UBEPAVidTypeInfo@@XZ 10063620 f   Mover.obj
 0001:00062630       ?Spawn@idMover@@QAEXXZ     10063630 f   Mover.obj
 0001:00062a10       ?Show@idMover@@UAEXXZ      10063a10 f   Mover.obj
 0001:00062a70       ?VectorForDir@idMover@@AAEXMAAVidVec3@@@Z 10063a70 f   Mover.obj
 0001:00062d30       ?SetGuiState@idMover@@IBEXPBD0@Z 10063d30 f   Mover.obj
 0001:00062e30       ?SetGuiStates@idMover@@IAEXPBD@Z 10063e30 f   Mover.obj
 0001:00062e90       ?Event_InitGuiTargets@idMover@@AAEXXZ 10063e90 f   Mover.obj
 0001:00062ea0       ?Event_UpdateMove@idMover@@AAEXXZ 10063ea0 f   Mover.obj
 0001:00063000       ?BeginMove@idMover@@MAEXPAVidThread@@@Z 10064000 f   Mover.obj
 0001:00063340       ?Event_UpdateRotation@idMover@@AAEXXZ 10064340 f   Mover.obj
 0001:00063550       ?BeginRotation@idMover@@MAEXPAVidThread@@_N@Z 10064550 f   Mover.obj
 0001:000637d0       ?Event_TeamBlocked@idMover@@AAEXPAVidEntity@@0@Z 100647d0 f   Mover.obj
 0001:00063810       ?Event_PartBlocked@idMover@@IAEXPAVidEntity@@@Z 10064810 f   Mover.obj
 0001:00063880       ?Event_MoveDir@idMover@@AAEXMM@Z 10064880 f   Mover.obj
 0001:00063930       ?Event_MoveAccelerateTo@idMover@@AAEXMM@Z 10064930 f   Mover.obj
 0001:00063b80       ?Event_MoveDecelerateTo@idMover@@AAEXMM@Z 10064b80 f   Mover.obj
 0001:00063dd0       ?Event_RotateDownTo@idMover@@AAEXHM@Z 10064dd0 f   Mover.obj
 0001:00063e50       ?Event_RotateUpTo@idMover@@AAEXHM@Z 10064e50 f   Mover.obj
 0001:00063ed0       ?Event_RotateTo@idMover@@AAEXAAVidAngles@@@Z 10064ed0 f   Mover.obj
 0001:00063f10       ?Event_Rotate@idMover@@AAEXAAVidAngles@@@Z 10064f10 f   Mover.obj
 0001:00064010       ?Event_RotateOnce@idMover@@AAEXAAVidAngles@@@Z 10065010 f   Mover.obj
 0001:000640a0       ?Event_Sway@idMover@@AAEXMMAAVidAngles@@@Z 100650a0 f   Mover.obj
 0001:000641f0       ?Event_OpenPortal@idMover@@IAEXXZ 100651f0 f   Mover.obj
 0001:00064210       ?Event_ClosePortal@idMover@@IAEXXZ 10065210 f   Mover.obj
 0001:00064230       ?Event_RemoveInitialSplineAngles@idMover@@AAEXXZ 10065230 f   Mover.obj
 0001:000642d0       ?Event_StopSpline@idMover@@AAEXXZ 100652d0 f   Mover.obj
 0001:00064310       ?WriteToSnapshot@idMover@@UBEXAAVidBitMsgDelta@@@Z 10065310 f   Mover.obj
 0001:000643a0       ?ReadFromSnapshot@idMover@@UAEXABVidBitMsgDelta@@@Z 100653a0 f   Mover.obj
 0001:00064470       ?CreateInstance@idSplinePath@@SAPAVidClass@@XZ 10065470 f   Mover.obj
 0001:00064520       ?Save@idElevator@@QBEXPAVidSaveGame@@@Z 10065520 f   Mover.obj
 0001:00064610       ??0floorInfo_s@@QAE@XZ     10065610 f i Mover.obj
 0001:00064630       ??1floorInfo_s@@QAE@XZ     10065630 f i Mover.obj
 0001:00064640       ?Event_Touch@idElevator@@IAEXPAVidEntity@@PAUtrace_s@@@Z 10065640 f   Mover.obj
 0001:00064730       ?GetFloorInfo@idElevator@@QAEPAUfloorInfo_s@@H@Z 10065730 f   Mover.obj
 0001:00064780       ?DisableAllDoors@idElevator@@AAEXXZ 10065780 f   Mover.obj
 0001:00064800       ?EnableProperDoors@idElevator@@AAEXXZ 10065800 f   Mover.obj
 0001:000648a0       ?Save@idMover_Binary@@QBEXPAVidSaveGame@@@Z 100658a0 f   Mover.obj
 0001:00064aa0       ?GetMovedir@idMover_Binary@@KAXMAAVidVec3@@@Z 10065aa0 f   Mover.obj
 0001:00064b30       ?Event_OpenPortal@idMover_Binary@@IAEXXZ 10065b30 f   Mover.obj
 0001:00064b70       ?Event_ClosePortal@idMover_Binary@@IAEXXZ 10065b70 f   Mover.obj
 0001:00064bb0       ?UpdateBuddies@idMover_Binary@@QAEXH@Z 10065bb0 f   Mover.obj
 0001:00064c20       ?SetGuiState@idMover_Binary@@IBEXPBD0@Z 10065c20 f   Mover.obj
 0001:00064d10       ?Event_InitGuiTargets@idMover_Binary@@IAEXXZ 10065d10 f   Mover.obj
 0001:00064d30       ?ReadFromSnapshot@idMover_Binary@@UAEXABVidBitMsgDelta@@@Z 10065d30 f   Mover.obj
 0001:00064da0       ?Save@idDoor@@QBEXPAVidSaveGame@@@Z 10065da0 f   Mover.obj
 0001:00064e90       ?Restore@idDoor@@QAEXPAVidRestoreGame@@@Z 10065e90 f   Mover.obj
 0001:00064fa0       ?GetLocalTriggerPosition@idDoor@@AAEXPBVidClipModel@@@Z 10065fa0 f   Mover.obj
 0001:00065170       ?IsLocked@idDoor@@QAEHXZ   10066170 f   Mover.obj
 0001:000651a0       ?CalcTriggerBounds@idDoor@@AAEXMAAVidBounds@@@Z 100661a0 f   Mover.obj
 0001:00065370       ?Event_SpawnDoorTrigger@idDoor@@AAEXXZ 10066370 f   Mover.obj
 0001:000655b0       ?Event_SpawnSoundTrigger@idDoor@@AAEXXZ 100665b0 f   Mover.obj
 0001:000656c0       ?Event_SpectatorTouch@idDoor@@AAEXPAVidEntity@@PAUtrace_s@@@Z 100666c0 f   Mover.obj
 0001:00065840       ?Event_Locked@idDoor@@AAEXXZ 10066840 f   Mover.obj
 0001:00065880       ?Event_ClosePortal@idDoor@@AAEXXZ 10066880 f   Mover.obj
 0001:00065950       ?PostBind@idPlat@@UAEXXZ   10066950 f   Mover.obj
 0001:00065970       ?SpawnPlatTrigger@idPlat@@AAEXAAVidVec3@@@Z 10066970 f   Mover.obj
 0001:00065b60       ?CreateInstance@idMover_Periodic@@SAPAVidClass@@XZ 10066b60 f   Mover.obj
 0001:00065c00       ?Spawn@idMover_Periodic@@QAEXXZ 10066c00 f   Mover.obj
 0001:00065c60       ?ReadFromSnapshot@idMover_Periodic@@UAEXABVidBitMsgDelta@@@Z 10066c60 f   Mover.obj
 0001:00065cb0       ?Spawn@idRotater@@QAEXXZ   10066cb0 f   Mover.obj
 0001:00065e90       ?Save@idRotater@@QBEXPAVidSaveGame@@@Z 10066e90 f   Mover.obj
 0001:00065eb0       ?Restore@idRotater@@QAEXPAVidRestoreGame@@@Z 10066eb0 f   Mover.obj
 0001:00065ed0       ?Event_Activate@idRotater@@AAEXPAVidEntity@@@Z 10066ed0 f   Mover.obj
 0001:00066010       ?CreateInstance@idBobber@@SAPAVidClass@@XZ 10067010 f   Mover.obj
 0001:000660c0       ??_EidRiser@@UAEPAXI@Z     100670c0 f i Mover.obj
 0001:000660c0       ??_EidPendulum@@UAEPAXI@Z  100670c0 f i Mover.obj
 0001:000660c0       ??_EidRotater@@UAEPAXI@Z   100670c0 f i Mover.obj
 0001:000660c0       ??_GidRiser@@UAEPAXI@Z     100670c0 f i Mover.obj
 0001:000660c0       ??_EidBobber@@UAEPAXI@Z    100670c0 f i Mover.obj
 0001:000660c0       ??_GidBobber@@UAEPAXI@Z    100670c0 f i Mover.obj
 0001:000660c0       ??_EidShaking@@UAEPAXI@Z   100670c0 f i Misc.obj
 0001:000660c0       ??_GidPendulum@@UAEPAXI@Z  100670c0 f i Mover.obj
 0001:000660c0       ??_GidMover_Periodic@@UAEPAXI@Z 100670c0 f i Mover.obj
 0001:000660c0       ??_GidShaking@@UAEPAXI@Z   100670c0 f i Misc.obj
 0001:000660c0       ??_GidRotater@@UAEPAXI@Z   100670c0 f i Mover.obj
 0001:000660c0       ??_EidMover_Periodic@@UAEPAXI@Z 100670c0 f i Mover.obj
 0001:000660e0       ?Spawn@idBobber@@QAEXXZ    100670e0 f   Mover.obj
 0001:00066320       ?CreateInstance@idPendulum@@SAPAVidClass@@XZ 10067320 f   Mover.obj
 0001:000663d0       ?Spawn@idPendulum@@QAEXXZ  100673d0 f   Mover.obj
 0001:000666f0       ?CreateInstance@idRiser@@SAPAVidClass@@XZ 100676f0 f   Mover.obj
 0001:000667a0       ?Spawn@idRiser@@QAEXXZ     100677a0 f   Mover.obj
 0001:00066930       ?Event_Activate@idRiser@@AAEXPAVidEntity@@@Z 10067930 f   Mover.obj
 0001:00066a20       ??0idMover@@QAE@XZ         10067a20 f   Mover.obj
 0001:00066b80       ??1idMover@@UAE@XZ         10067b80 f i Mover.obj
 0001:00066c00       ?Save@idMover@@QBEXPAVidSaveGame@@@Z 10067c00 f   Mover.obj
 0001:00066ef0       ?Restore@idMover@@QAEXPAVidRestoreGame@@@Z 10067ef0 f   Mover.obj
 0001:00067300       ?Event_PostRestore@idMover@@AAEXHHHHH@Z 10068300 f   Mover.obj
 0001:000674c0       ?Event_StartSpline@idMover@@AAEXPAVidEntity@@@Z 100684c0 f   Mover.obj
 0001:00067730       ?Event_Activate@idMover@@AAEXPAVidEntity@@@Z 10068730 f   Mover.obj
 0001:00067750       ?ClientReceiveEvent@idMover@@UAE_NHHABVidBitMsg@@@Z 10068750 f   Mover.obj
 0001:000677e0       ?SetGuiStates@idMover_Binary@@QAEXPBD@Z 100687e0 f   Mover.obj
 0001:00067830       ?SetBlocked@idMover_Binary@@QAEX_N@Z 10068830 f   Mover.obj
 0001:00067910       ?Spawn@idDoor@@QAEXXZ      10068910 f   Mover.obj
 0001:00067ef0       ?PostBind@idDoor@@UAEXXZ   10068ef0 f   Mover.obj
 0001:00067f20       ?Show@idDoor@@UAEXXZ       10068f20 f   Mover.obj
 0001:00068050       ?Spawn@idPlat@@QAEXXZ      10069050 f   Mover.obj
 0001:00068230       ?CreateInstance@idRotater@@SAPAVidClass@@XZ 10069230 f   Mover.obj
 0001:000682f0       ?CreateInstance@idMover@@SAPAVidClass@@XZ 100692f0 f   Mover.obj
 0001:00068390       ??_GidMover@@UAEPAXI@Z     10069390 f i Mover.obj
 0001:00068390       ??_EidMover@@UAEPAXI@Z     10069390 f i Mover.obj
 0001:000683b0       ?Event_Reached_BinaryMover@idMover_Binary@@IAEXXZ 100693b0 f   Mover.obj
 0001:000685d0       ?GotoPosition1@idMover_Binary@@QAEXXZ 100695d0 f   Mover.obj
 0001:000686c0       ?GotoPosition2@idMover_Binary@@QAEXXZ 100696c0 f   Mover.obj
 0001:00068770       ?Use_BinaryMover@idMover_Binary@@QAEXPAVidEntity@@@Z 10069770 f   Mover.obj
 0001:000688c0       ?Event_Use_BinaryMover@idMover_Binary@@IAEXPAVidEntity@@@Z 100698c0 f   Mover.obj
 0001:000688d0       ?Use@idDoor@@QAEXPAVidEntity@@0@Z 100698d0 f   Mover.obj
 0001:00068950       ?Lock@idDoor@@QAEXH@Z      10069950 f   Mover.obj
 0001:00068a90       ?Event_Reached_BinaryMover@idDoor@@AAEXXZ 10069a90 f   Mover.obj
 0001:00068c00       ?Event_TeamBlocked@idDoor@@AAEXPAVidEntity@@0@Z 10069c00 f   Mover.obj
 0001:00068c90       ?Event_Touch@idDoor@@AAEXPAVidEntity@@PAUtrace_s@@@Z 10069c90 f   Mover.obj
 0001:00068d70       ?Event_Activate@idDoor@@AAEXPAVidEntity@@@Z 10069d70 f   Mover.obj
 0001:00068ea0       ?Event_Open@idDoor@@AAEXXZ 10069ea0 f   Mover.obj
 0001:00068eb0       ?Event_Close@idDoor@@AAEXXZ 10069eb0 f   Mover.obj
 0001:00068ec0       ?Event_Lock@idDoor@@AAEXH@Z 10069ec0 f   Mover.obj
 0001:00068ed0       ?Event_Touch@idPlat@@AAEXPAVidEntity@@PAUtrace_s@@@Z 10069ed0 f   Mover.obj
 0001:00068f30       ?Event_TeamBlocked@idPlat@@AAEXPAVidEntity@@0@Z 10069f30 f   Mover.obj
 0001:00068f70       ??1?$idList@UfloorInfo_s@@@@QAE@XZ 10069f70 f i Mover.obj
 0001:00068fb0       ??0idElevator@@QAE@XZ      10069fb0 f   Mover.obj
 0001:00069080       ??1idElevator@@UAE@XZ      1006a080 f i Mover.obj
 0001:00069100       ?Restore@idElevator@@QAEXPAVidRestoreGame@@@Z 1006a100 f   Mover.obj
 0001:000695a0       ?Spawn@idElevator@@QAEXXZ  1006a5a0 f   Mover.obj
 0001:00069ba0       ?OpenFloorDoor@idElevator@@AAEXH@Z 1006aba0 f   Mover.obj
 0001:00069bd0       ?OpenInnerDoor@idElevator@@AAEXXZ 1006abd0 f   Mover.obj
 0001:00069c10       ?Event_PostFloorArrival@idElevator@@AAEXXZ 1006ac10 f   Mover.obj
 0001:00069cd0       ?DoneMoving@idElevator@@MAEXXZ 1006acd0 f   Mover.obj
 0001:00069e60       ?CloseAllDoors@idElevator@@AAEXXZ 1006ae60 f   Mover.obj
 0001:00069ee0       ??0idMover_Binary@@QAE@XZ  1006aee0 f   Mover.obj
 0001:0006a060       ??1idMover_Binary@@UAE@XZ  1006b060 f   Mover.obj
 0001:0006a190       ?Restore@idMover_Binary@@QAEXPAVidRestoreGame@@@Z 1006b190 f   Mover.obj
 0001:0006a7f0       ?Spawn@idMover_Binary@@QAEXXZ 1006b7f0 f   Mover.obj
 0001:0006af80       ??0idDoor@@QAE@XZ          1006bf80 f   Mover.obj
 0001:0006b130       ??1idDoor@@UAE@XZ          1006c130 f   Mover.obj
 0001:0006b1e0       ??0idPlat@@QAE@XZ          1006c1e0 f   Mover.obj
 0001:0006b280       ??1idPlat@@UAE@XZ          1006c280 f   Mover.obj
 0001:0006b2f0       ?CreateInstance@idElevator@@SAPAVidClass@@XZ 1006c2f0 f   Mover.obj
 0001:0006b390       ??_EidElevator@@UAEPAXI@Z  1006c390 f i Mover.obj
 0001:0006b390       ??_GidElevator@@UAEPAXI@Z  1006c390 f i Mover.obj
 0001:0006b3b0       ?HandleSingleGuiCommand@idElevator@@UAE_NPAVidEntity@@PAVidLexer@@@Z 1006c3b0 f   Mover.obj
 0001:0006b560       ?Event_GotoFloor@idElevator@@QAEXH@Z 1006c560 f   Mover.obj
 0001:0006b600       ?BeginMove@idElevator@@MAEXPAVidThread@@@Z 1006c600 f   Mover.obj
 0001:0006b710       ?CreateInstance@idMover_Binary@@SAPAVidClass@@XZ 1006c710 f   Mover.obj
 0001:0006b7b0       ??_GidMover_Binary@@UAEPAXI@Z 1006c7b0 f i Mover.obj
 0001:0006b7b0       ??_EidMover_Binary@@UAEPAXI@Z 1006c7b0 f i Mover.obj
 0001:0006b7d0       ?CreateInstance@idDoor@@SAPAVidClass@@XZ 1006c7d0 f   Mover.obj
 0001:0006b870       ??_EidDoor@@UAEPAXI@Z      1006c870 f i Mover.obj
 0001:0006b870       ??_GidDoor@@UAEPAXI@Z      1006c870 f i Mover.obj
 0001:0006b890       ?CreateInstance@idPlat@@SAPAVidClass@@XZ 1006c890 f   Mover.obj
 0001:0006b930       ??_GidPlat@@UAEPAXI@Z      1006c930 f i Mover.obj
 0001:0006b930       ??_EidPlat@@UAEPAXI@Z      1006c930 f i Mover.obj
 0001:0006b950       ?Think@idElevator@@EAEXXZ  1006c950 f   Mover.obj
 0001:0006bac0       ?Event_Activate@idElevator@@AAEXPAVidEntity@@@Z 1006cac0 f   Mover.obj
 0001:0006bb30       ?Event_TeamBlocked@idElevator@@AAEXPAVidEntity@@0@Z 1006cb30 f   Mover.obj
 0001:0006bbd0       ?ServerClientConnect@idMultiplayerGame@@QAEXH@Z 1006cbd0 f   MultiplayerGame.obj
 0001:0006bc00       ?ClearGuis@idMultiplayerGame@@AAEXXZ 1006cc00 f   MultiplayerGame.obj
 0001:0006be50       ?TeamScore@idMultiplayerGame@@AAEXHHH@Z 1006ce50 f   MultiplayerGame.obj
 0001:0006bed0       ?PlayerStats@idMultiplayerGame@@QAEXHPADH@Z 1006ced0 f   MultiplayerGame.obj
 0001:0006bf50       ?FillTourneySlots@idMultiplayerGame@@AAEXXZ 1006cf50 f   MultiplayerGame.obj
 0001:0006c050       ?DisableMenu@idMultiplayerGame@@AAEXXZ 1006d050 f   MultiplayerGame.obj
 0001:0006c0e0       ?DropWeapon@idMultiplayerGame@@QAEXH@Z 1006d0e0 f   MultiplayerGame.obj
 0001:0006c120       ?ServerStartVote@idMultiplayerGame@@QAEXHW4vote_flags_t@1@PBD@Z 1006d120 f   MultiplayerGame.obj
 0001:0006c1c0       ?WantKilled@idMultiplayerGame@@QAEXH@Z 1006d1c0 f   MultiplayerGame.obj
 0001:0006c200       ?ToggleReady@idMultiplayerGame@@QAEXXZ 1006d200 f   MultiplayerGame.obj
 0001:0006c250       ?ToggleTeam@idMultiplayerGame@@QAEXXZ 1006d250 f   MultiplayerGame.obj
 0001:0006c2a0       ?CanPlay@idMultiplayerGame@@QAE_NPAVidPlayer@@@Z 1006d2a0 f   MultiplayerGame.obj
 0001:0006c2d0       ?ChangeClassNow@idMultiplayerGame@@QAE_NH@Z 1006d2d0 f   MultiplayerGame.obj
 0001:0006c340       ??0idStr@@QAE@XZ           1006d340 f i Actor.obj
 0001:0006c340       ??0mpChatLine_s@@QAE@XZ    1006d340 f i MultiplayerGame.obj
 0001:0006c360       ?Clear@idMultiplayerGame@@AAEXXZ 1006d360 f   MultiplayerGame.obj
 0001:0006c4e0       ?UpdatePlayerRanks@idMultiplayerGame@@AAEXXZ 1006d4e0 f   MultiplayerGame.obj
 0001:0006c6a0       ?UpdateRankColor@idMultiplayerGame@@AAEXPAVidUserInterface@@PBDHABVidVec3@@@Z 1006d6a0 f   MultiplayerGame.obj
 0001:0006c700       ?UpdateScoreboard@idMultiplayerGame@@AAEXPAVidUserInterface@@PAVidPlayer@@@Z 1006d700 f   MultiplayerGame.obj
 0001:0006d150       ?GameTime@idMultiplayerGame@@AAEPBDXZ 1006e150 f   MultiplayerGame.obj
 0001:0006d280       ?NumActualClients@idMultiplayerGame@@QAEH_NPAH@Z 1006e280 f   MultiplayerGame.obj
 0001:0006d340       ?AllPlayersReady@idMultiplayerGame@@AAE_NXZ 1006e340 f   MultiplayerGame.obj
 0001:0006d460       ?TimeLimitHit@idMultiplayerGame@@AAE_NXZ 1006e460 f   MultiplayerGame.obj
 0001:0006d4b0       ?FragLeader@idMultiplayerGame@@AAEPAVidPlayer@@XZ 1006e4b0 f   MultiplayerGame.obj
 0001:0006d690       ?UpdateTourneyLine@idMultiplayerGame@@AAEXXZ 1006e690 f   MultiplayerGame.obj
 0001:0006d7a0       ?ExecuteVote@idMultiplayerGame@@QAEXXZ 1006e7a0 f   MultiplayerGame.obj
 0001:0006d970       ?UpdateMainGui@idMultiplayerGame@@QAEXXZ 1006e970 f   MultiplayerGame.obj
 0001:0006dc20       ?SetMapShot@idMultiplayerGame@@AAEXXZ 1006ec20 f   MultiplayerGame.obj
 0001:0006dcb0       ?UpdateHud@idMultiplayerGame@@AAEXPAVidPlayer@@PAVidUserInterface@@@Z 1006ecb0 f   MultiplayerGame.obj
 0001:0006df80       ?DrawScoreBoard@idMultiplayerGame@@AAEXPAVidPlayer@@@Z 1006ef80 f   MultiplayerGame.obj
 0001:0006e010       ?DrawChat@idMultiplayerGame@@AAEXXZ 1006f010 f   MultiplayerGame.obj
 0001:0006e1e0       ?WriteToSnapshot@idMultiplayerGame@@QBEXAAVidBitMsgDelta@@@Z 1006f1e0 f   MultiplayerGame.obj
 0001:0006e2e0       ?ReadFromSnapshot@idMultiplayerGame@@QAEXABVidBitMsgDelta@@@Z 1006f2e0 f   MultiplayerGame.obj
 0001:0006e420       ?PlayGlobalSound@idMultiplayerGame@@QAEXHW4snd_evt_t@@PBD@Z 1006f420 f   MultiplayerGame.obj
 0001:0006e520       ?SuddenRespawn@idMultiplayerGame@@AAEXXZ 1006f520 f   MultiplayerGame.obj
 0001:0006e5a0       ?DropWeapon_f@idMultiplayerGame@@SAXABVidCmdArgs@@@Z 1006f5a0 f   MultiplayerGame.obj
 0001:0006e610       ?MessageMode@idMultiplayerGame@@AAEXABVidCmdArgs@@@Z 1006f610 f   MultiplayerGame.obj
 0001:0006e6d0       ?ClientCallVote@idMultiplayerGame@@QAEXW4vote_flags_t@1@PBD@Z 1006f6d0 f   MultiplayerGame.obj
 0001:0006e750       ?EnterGame@idMultiplayerGame@@QAEXH@Z 1006f750 f   MultiplayerGame.obj
 0001:0006e7f0       ?VoiceChat@idMultiplayerGame@@AAEXABVidCmdArgs@@_N@Z 1006f7f0 f   MultiplayerGame.obj
 0001:0006e970       ?ServerWriteInitialReliableMessages@idMultiplayerGame@@QAEXH@Z 1006f970 f   MultiplayerGame.obj
 0001:0006eb20       ?ClientReadStartState@idMultiplayerGame@@QAEXABVidBitMsg@@@Z 1006fb20 f   MultiplayerGame.obj
 0001:0006ebe0       ?ClientReadWarmupTime@idMultiplayerGame@@QAEXABVidBitMsg@@@Z 1006fbe0 f   MultiplayerGame.obj
 0001:0006ec00       ?ChangeClass@idMultiplayerGame@@QAE_NHPBD@Z 1006fc00 f   MultiplayerGame.obj
 0001:0006edb0       ?NeedsClassChange@idMultiplayerGame@@QAE_NH@Z 1006fdb0 f   MultiplayerGame.obj
 0001:0006ee20       ?Respawn@idMultiplayerGame@@QAEPAVidPlayer@@PAV2@@Z 1006fe20 f   MultiplayerGame.obj
 0001:0006ee60       ?StartClassMenu_f@idMultiplayerGame@@SAXABVidCmdArgs@@@Z 1006fe60 f   MultiplayerGame.obj
 0001:0006eea0       ?SetUpShops@idMultiplayerGame@@QAEXXZ 1006fea0 f   MultiplayerGame.obj
 0001:0006f920       ??0idMultiplayerGame@@QAE@XZ 10070920 f   MultiplayerGame.obj
 0001:0006fa10       ?Shutdown@idMultiplayerGame@@QAEXXZ 10070a10 f   MultiplayerGame.obj
 0001:0006fa20       ?SetMenuSkin@idMultiplayerGame@@QAEXXZ 10070a20 f   MultiplayerGame.obj
 0001:0006fd70       ?Reset@idMultiplayerGame@@QAEXXZ 10070d70 f   MultiplayerGame.obj
 0001:0006ff00       ?FragLimitHit@idMultiplayerGame@@AAEPAVidPlayer@@XZ 10070f00 f   MultiplayerGame.obj
 0001:00070000       ?UpdateWinsLosses@idMultiplayerGame@@AAEXPAVidPlayer@@@Z 10071000 f   MultiplayerGame.obj
 0001:00070270       ?CycleTourneyPlayers@idMultiplayerGame@@AAEXXZ 10071270 f   MultiplayerGame.obj
 0001:00070370       ?StartMenu@idMultiplayerGame@@QAEPAVidUserInterface@@XZ 10071370 f   MultiplayerGame.obj
 0001:00070720       ?Draw@idMultiplayerGame@@QAE_NH@Z 10071720 f   MultiplayerGame.obj
 0001:00070cd0       ?AddChatLine@idMultiplayerGame@@QAAXPBDZZ 10071cd0 f   MultiplayerGame.obj
 0001:00070e00       ?PrintMessageEvent@idMultiplayerGame@@QAEXHW4msg_evt_t@1@HH@Z 10071e00 f   MultiplayerGame.obj
 0001:00071320       ?ForceReady@idMultiplayerGame@@AAEXXZ 10072320 f   MultiplayerGame.obj
 0001:000714a0       ?ForceReady_f@idMultiplayerGame@@SAXABVidCmdArgs@@@Z 100724a0 f   MultiplayerGame.obj
 0001:000714e0       ?MessageMode_f@idMultiplayerGame@@SAXABVidCmdArgs@@@Z 100724e0 f   MultiplayerGame.obj
 0001:000714f0       ?ClientStartVote@idMultiplayerGame@@QAEXHPBD@Z 100724f0 f   MultiplayerGame.obj
 0001:00071620       ?ClientUpdateVote@idMultiplayerGame@@QAEXW4vote_result_t@1@HH@Z 10072620 f   MultiplayerGame.obj
 0001:000717c0       ?CastVote@idMultiplayerGame@@QAEXH_N@Z 100727c0 f   MultiplayerGame.obj
 0001:00071970       ?ServerCallVote@idMultiplayerGame@@QAEXHABVidBitMsg@@@Z 10072970 f   MultiplayerGame.obj
 0001:000722e0       ?ProcessChatMessage@idMultiplayerGame@@QAEXH_NPBD11@Z 100732e0 f   MultiplayerGame.obj
 0001:000725d0       ?Precache@idMultiplayerGame@@QAEXXZ 100735d0 f   MultiplayerGame.obj
 0001:000728b0       ?ToggleSpectate@idMultiplayerGame@@QAEXXZ 100738b0 f   MultiplayerGame.obj
 0001:00072960       ?ThrottleUserInfo@idMultiplayerGame@@QAEXXZ 10073960 f   MultiplayerGame.obj
 0001:00072ad0       ?VoiceChat_f@idMultiplayerGame@@SAXABVidCmdArgs@@@Z 10073ad0 f   MultiplayerGame.obj
 0001:00072af0       ?VoiceChatTeam_f@idMultiplayerGame@@SAXABVidCmdArgs@@@Z 10073af0 f   MultiplayerGame.obj
 0001:00072b10       ?ProcessVoiceChat@idMultiplayerGame@@QAEXH_NH@Z 10073b10 f   MultiplayerGame.obj
 0001:00072e50       ?ChangeClassRequest@idMultiplayerGame@@QAEXPBD@Z 10073e50 f   MultiplayerGame.obj
 0001:00072ef0       ?PlayerDeath@idMultiplayerGame@@QAEXPAVidPlayer@@0_N@Z 10073ef0 f   MultiplayerGame.obj
 0001:000731d0       ?NewState@idMultiplayerGame@@AAEXW4gameState_t@1@PAVidPlayer@@@Z 100741d0 f   MultiplayerGame.obj
 0001:000736b0       ?CheckVote@idMultiplayerGame@@AAEXXZ 100746b0 f   MultiplayerGame.obj
 0001:00073840       ?HandleGuiCommands@idMultiplayerGame@@QAEPBDPBD@Z 10074840 f   MultiplayerGame.obj
 0001:000746c0       ?CheckAbortGame@idMultiplayerGame@@AAEXXZ 100756c0 f   MultiplayerGame.obj
 0001:000747b0       ?MapRestart@idMultiplayerGame@@QAEXXZ 100757b0 f   MultiplayerGame.obj
 0001:000748c0       ?SwitchToTeam@idMultiplayerGame@@QAEXHHH@Z 100758c0 f   MultiplayerGame.obj
 0001:00074ac0       ?ChangeClassRequest_f@idMultiplayerGame@@SAXABVidCmdArgs@@@Z 10075ac0 f   MultiplayerGame.obj
 0001:00074b60       ?SpawnPlayer@idMultiplayerGame@@QAEXH@Z 10075b60 f   MultiplayerGame.obj
 0001:00074c10       ?CheckRespawns@idMultiplayerGame@@AAEXPAVidPlayer@@@Z 10075c10 f   MultiplayerGame.obj
 0001:00074ee0       ?DisconnectClient@idMultiplayerGame@@QAEXH@Z 10075ee0 f   MultiplayerGame.obj
 0001:00074f10       ?Run@idMultiplayerGame@@QAEXXZ 10075f10 f   MultiplayerGame.obj
 0001:00075740       ?GetType@idPlayer@@UBEPAVidTypeInfo@@XZ 10076740 f   Player.obj
 0001:00075750       ?HasAmmo@idInventory@@QAEHHH@Z 10076750 f   Player.obj
 0001:00075780       ?UseAmmo@idInventory@@QAE_NHH@Z 10076780 f   Player.obj
 0001:000757d0       ?UpdateArmor@idInventory@@QAEXXZ 100767d0 f   Player.obj
 0001:00075840       ?GetUserInfo@idPlayer@@QAEPAVidDict@@XZ 10076840 f   Player.obj
 0001:00075850       ?BalanceTDM@idPlayer@@QAE_NXZ 10076850 f   Player.obj
 0001:00075910       ?PowerUpActive@idPlayer@@QBE_NH@Z 10076910 f   Player.obj
 0001:00075930       ?WeaponLoweringCallback@idPlayer@@QAEXXZ 10076930 f   Player.obj
 0001:00075950       ?WeaponRisingCallback@idPlayer@@QAEXXZ 10076950 f   Player.obj
 0001:00075970       ?SpectateCycle@idPlayer@@AAEXXZ 10076970 f   Player.obj
 0001:00075a00       ?Collide@idPlayer@@UAE_NABUtrace_s@@ABVidVec3@@@Z 10076a00 f   Player.obj
 0001:00075ab0       ?ClearFocus@idPlayer@@AAEXXZ 10076ab0 f   Player.obj
 0001:00075ae0       ?StartFxOnBone@idPlayer@@QAEXPBD0@Z 10076ae0 f   Player.obj
 0001:00075d40       ?RouteGuiMouse@idPlayer@@QAEXPAVidUserInterface@@@Z 10076d40 f   Player.obj
 0001:00075df0       ?GetAIAimTargets@idPlayer@@UAEXABVidVec3@@AAV2@1@Z 10076df0 f   Player.obj
 0001:00075f00       ?GetEyePosition@idPlayer@@QBE?AVidVec3@@XZ 10076f00 f   Player.obj
 0001:00075fd0       ?GetRenderView@idPlayer@@UAEPAUrenderView_s@@XZ 10076fd0 f   Player.obj
 0001:00075fe0       ?AddProjectilesFired@idPlayer@@QAEXH@Z 10076fe0 f   Player.obj
 0001:00075ff0       ?AddProjectileHits@idPlayer@@QAEXH@Z 10076ff0 f   Player.obj
 0001:00076000       ?SetInfluenceFov@idPlayer@@QAEXM@Z 10077000 f   Player.obj
 0001:00076010       ?OnLadder@idPlayer@@UBE_NXZ 10077010 f   Player.obj
 0001:00076020       ?Event_GetButtons@idPlayer@@AAEXXZ 10077020 f   Player.obj
 0001:00076030       ?Event_GetMove@idPlayer@@AAEXXZ 10077030 f   Player.obj
 0001:00076080       ?Event_GetViewAngles@idPlayer@@AAEXXZ 10077080 f   Player.obj
 0001:000760b0       ?Event_StopFxFov@idPlayer@@AAEXXZ 100770b0 f   Player.obj
 0001:000760c0       ?Event_InPDA@idPlayer@@AAEXXZ 100770c0 f   Player.obj
 0001:000760d0       ?TeleportDeath@idPlayer@@QAEXH@Z 100770d0 f   Player.obj
 0001:000760e0       ?GetPhysicsToSoundTransform@idPlayer@@UAE_NAAVidVec3@@AAVidMat3@@@Z 100770e0 f   Player.obj
 0001:000761c0       ?StartAudioLog@idPlayer@@QAEXXZ 100771c0 f   Player.obj
 0001:000761e0       ?Event_StopAudioLog@idPlayer@@QAEXXZ 100771e0 f   Player.obj
 0001:000761e0       ?StopAudioLog@idPlayer@@QAEXXZ 100771e0 f   Player.obj
 0001:00076200       ?ShowTip@idPlayer@@QAEXPBD0_N@Z 10077200 f   Player.obj
 0001:00076280       ?Event_HideTip@idPlayer@@AAEXXZ 10077280 f   Player.obj
 0001:00076280       ?HideTip@idPlayer@@QAEXXZ  10077280 f   Player.obj
 0001:000762a0       ?HideObjective@idPlayer@@QAEXXZ 100772a0 f   Player.obj
 0001:000762c0       ?SetSpectateOrigin@idPlayer@@AAEXXZ 100772c0 f   Player.obj
 0001:00076320       ?CanShowWeaponViewmodel@idPlayer@@QBE_NXZ 10077320 f   Player.obj
 0001:00076330       ?UpdatePlayerIcons@idPlayer@@UAEXXZ 10077330 f   Player.obj
 0001:00076370       ?HidePlayerIcons@idPlayer@@UAEXXZ 10077370 f   Player.obj
 0001:00076380       ?NeedsIcon@idPlayer@@QAE_NXZ 10077380 f   Player.obj
 0001:000763b0       ?SetNextClass@idPlayer@@QAEXPBD@Z 100773b0 f   Player.obj
 0001:000763c0       ?GivePowerUp@idInventory@@QAEXPAVidPlayer@@HH@Z 100773c0 f   Player.obj
 0001:00076470       ?GetPersistantData@idInventory@@QAEXAAVidDict@@@Z 10077470 f   Player.obj
 0001:000768e0       ?Save@idInventory@@QBEXPAVidSaveGame@@@Z 100778e0 f   Player.obj
 0001:00076cf0       ??0idLevelTriggerInfo@@QAE@XZ 10077cf0 f i Player.obj
 0001:00076cf0       ??0idItemInfo@@QAE@XZ      10077cf0 f i Player.obj
 0001:00076d20       ??1idItemInfo@@QAE@XZ      10077d20 f i Player.obj
 0001:00076d20       ??1idLevelTriggerInfo@@QAE@XZ 10077d20 f i Player.obj
 0001:00076d70       ??0idObjectiveInfo@@QAE@XZ 10077d70 f i Player.obj
 0001:00076db0       ??1idModelExport@@QAE@XZ   10077db0 f i Anim_Testmodel.obj
 0001:00076db0       ??1idObjectiveInfo@@QAE@XZ 10077db0 f i Player.obj
 0001:00076e10       ?MaxAmmoForAmmoClass@idInventory@@QBEHPAVidPlayer@@PBD@Z 10077e10 f   Player.obj
 0001:00076e60       ?WeaponIndexForAmmoClass@idInventory@@QBEHABVidDict@@PBD@Z 10077e60 f   Player.obj
 0001:00076f00       ?AmmoIndexForWeaponClass@idInventory@@QAEHPBDPAH@Z 10077f00 f   Player.obj
 0001:00076fa0       ?Drop@idInventory@@QAEXABVidDict@@PBDH@Z 10077fa0 f   Player.obj
 0001:000770c0       ?HasAmmo@idInventory@@QAEHPBD@Z 100780c0 f   Player.obj
 0001:00077100       ?LinkScriptVariables@idPlayer@@QAEXXZ 10078100 f   Player.obj
 0001:000774d0       ?SetupWeaponEntity@idPlayer@@QAEXXZ 100784d0 f   Player.obj
 0001:000775e0       ?Save@idPlayer@@QBEXPAVidSaveGame@@@Z 100785e0 f   Player.obj
 0001:00077f00       ?SavePersistantInfo@idPlayer@@QAEXXZ 10078f00 f   Player.obj
 0001:00077fb0       ?UpdateHudAmmo@idPlayer@@QAEXPAVidUserInterface@@@Z 10078fb0 f   Player.obj
 0001:000782a0       ?UpdateHudWeapon@idPlayer@@QAEX_N@Z 100792a0 f   Player.obj
 0001:000783c0       ?EnterCinematic@idPlayer@@QAEXXZ 100793c0 f   Player.obj
 0001:000785e0       ?ExitCinematic@idPlayer@@QAEXXZ 100795e0 f   Player.obj
 0001:00078660       ?UpdateConditions@idPlayer@@QAEXXZ 10079660 f   Player.obj
 0001:00078980       ?WeaponFireFeedback@idPlayer@@QAEXPBVidDict@@@Z 10079980 f   Player.obj
 0001:000789b0       ?StopFiring@idPlayer@@AAEXXZ 100799b0 f   Player.obj
 0001:00078a40       ?CacheWeapons@idPlayer@@QAEXXZ 10079a40 f   Player.obj
 0001:00078b50       ?GiveHealthPool@idPlayer@@QAEXM@Z 10079b50 f   Player.obj
 0001:00078bd0       ?PowerUpModifier@idPlayer@@QAEMH@Z 10079bd0 f   Player.obj
 0001:00078c70       ?ClearPowerup@idPlayer@@AAEXH@Z 10079c70 f   Player.obj
 0001:00078d90       ?UpdatePowerUps@idPlayer@@AAEXXZ 10079d90 f   Player.obj
 0001:00078f50       ?ClearPowerUps@idPlayer@@QAEXXZ 10079f50 f   Player.obj
 0001:00078fb0       ?UpdateObjectiveInfo@idPlayer@@AAEXXZ 10079fb0 f   Player.obj
 0001:00079110       ?FindInventoryItem@idPlayer@@QAEPAVidDict@@PBD@Z 1007a110 f   Player.obj
 0001:00079190       ?SlotForWeapon@idPlayer@@QAEHPBD@Z 1007a190 f   Player.obj
 0001:000791f0       ?Reload@idPlayer@@QAEXXZ   1007a1f0 f   Player.obj
 0001:000792a0       ?NextBestWeapon@idPlayer@@QAEXXZ 1007a2a0 f   Player.obj
 0001:000793a0       ?NextWeapon@idPlayer@@QAEXXZ 1007a3a0 f   Player.obj
 0001:00079510       ?PrevWeapon@idPlayer@@QAEXXZ 1007a510 f   Player.obj
 0001:00079680       ?SelectWeapon@idPlayer@@QAEXH_N@Z 1007a680 f   Player.obj
 0001:000799c0       ?UpdateLocation@idPlayer@@AAEXXZ 1007a9c0 f   Player.obj
 0001:00079a40       ?UpdateFocus@idPlayer@@AAEXXZ 1007aa40 f   Player.obj
 0001:0007a5b0       ?CrashLand@idPlayer@@AAEXABVidVec3@@0@Z 1007b5b0 f   Player.obj
 0001:0007ab70       ?BobCycle@idPlayer@@AAEXABVidVec3@@@Z 1007bb70 f   Player.obj
 0001:0007b280       ?UpdateDeltaViewAngles@idPlayer@@QAEXABVidAngles@@@Z 1007c280 f   Player.obj
 0001:0007b2f0       ?SetViewAngles@idPlayer@@QAEXABVidAngles@@@Z 1007c2f0 f   Player.obj
 0001:0007b320       ?UpdateViewAngles@idPlayer@@AAEXXZ 1007c320 f   Player.obj
 0001:0007b7e0       ?AdjustHeartRate@idPlayer@@QAEXHMM_N@Z 1007c7e0 f   Player.obj
 0001:0007b890       ?GetBaseHeartRate@idPlayer@@QAEHXZ 1007c890 f   Player.obj
 0001:0007b940       ?SetCurrentHeartRate@idPlayer@@QAEXXZ 1007c940 f   Player.obj
 0001:0007bc70       ?UpdateAir@idPlayer@@QAEXXZ 1007cc70 f   Player.obj
 0001:0007bea0       ?GetPDA@idPlayer@@QBEPBVidDeclPDA@@XZ 1007cea0 f   Player.obj
 0001:0007bed0       ?SetClipModel@idPlayer@@QAEXXZ 1007ced0 f   Player.obj
 0001:0007c170       ?UseVehicle@idPlayer@@AAEXXZ 1007d170 f   Player.obj
 0001:0007c2d0       ?AdjustSpeed@idPlayer@@AAEXXZ 1007d2d0 f   Player.obj
 0001:0007c580       ?AdjustBodyAngles@idPlayer@@AAEXXZ 1007d580 f   Player.obj
 0001:0007cc60       ?SetAASLocation@idPlayer@@AAEXXZ 1007dc60 f   Player.obj
 0001:0007cd80       ?GetAASLocation@idPlayer@@UBEXPAVidAAS@@AAVidVec3@@AAH@Z 1007dd80 f   Player.obj
 0001:0007ce20       ?Move@idPlayer@@AAEXXZ     1007de20 f   Player.obj
 0001:0007d3f0       ?UpdateDeathSkin@idPlayer@@AAEX_N@Z 1007e3f0 f   Player.obj
 0001:0007d4d0       ?LookAtKiller@idPlayer@@AAEXPAVidEntity@@0@Z 1007e4d0 f   Player.obj
 0001:0007d5c0       ?CalcDamagePoints@idPlayer@@QAEXPAVidEntity@@0PBVidDict@@MHPAH2@Z 1007e5c0 f   Player.obj
 0001:0007d8b0       ?Damage@idPlayer@@UAEXPAVidEntity@@0ABVidVec3@@PBDMH@Z 1007e8b0 f   Player.obj
 0001:0007dfe0       ?Teleport@idPlayer@@UAEXABVidVec3@@ABVidAngles@@PAVidEntity@@@Z 1007efe0 f   Player.obj
 0001:0007e1b0       ?SetPrivateCameraView@idPlayer@@QAEXPAVidCamera@@@Z 1007f1b0 f   Player.obj
 0001:0007e1f0       ?DefaultFov@idPlayer@@QBEMXZ 1007f1f0 f   Player.obj
 0001:0007e240       ?CalcFov@idPlayer@@QAEM_N@Z 1007f240 f   Player.obj
 0001:0007e440       ?GunTurningOffset@idPlayer@@AAE?AVidAngles@@XZ 1007f440 f   Player.obj
 0001:0007e6d0       ?GunAcceleratingOffset@idPlayer@@AAE?AVidVec3@@XZ 1007f6d0 f   Player.obj
 0001:0007e840       ?CalculateViewWeaponPos@idPlayer@@QAEXAAVidVec3@@AAVidMat3@@@Z 1007f840 f   Player.obj
 0001:0007ec70       ?OffsetThirdPersonView@idPlayer@@QAEXMMM_N@Z 1007fc70 f   Player.obj
 0001:0007f360       ?GetViewPos@idPlayer@@UBEXAAVidVec3@@AAVidMat3@@@Z 10080360 f   Player.obj
 0001:0007f6e0       ?CalculateFirstPersonView@idPlayer@@QAEXXZ 100806e0 f   Player.obj
 0001:0007fb40       ?CalculateRenderView@idPlayer@@QAEXXZ 10080b40 f   Player.obj
 0001:0007ff40       ?CheckExp@idPlayer@@QAEXXZ 10080f40 f   Player.obj
 0001:00080010       ?SetSoulCubeProjectile@idPlayer@@QAEXPAVidProjectile@@@Z 10081010 f   Player.obj
 0001:00080040       ?SetLastHitTime@idPlayer@@QAEXH@Z 10081040 f   Player.obj
 0001:00080270       ?SetInfluenceLevel@idPlayer@@QAEXH@Z 10081270 f   Player.obj
 0001:000803f0       ?SetInfluenceView@idPlayer@@QAEXPBD0MPAVidEntity@@@Z 100813f0 f   Player.obj
 0001:00080500       ?Event_EnableWeapon@idPlayer@@AAEXXZ 10081500 f   Player.obj
 0001:000805a0       ?Event_DisableWeapon@idPlayer@@AAEXXZ 100815a0 f   Player.obj
 0001:00080640       ?Event_GetCurrentWeapon@idPlayer@@AAEXXZ 10081640 f   Player.obj
 0001:000806a0       ?Event_GetPreviousWeapon@idPlayer@@AAEXXZ 100816a0 f   Player.obj
 0001:00080750       ?Event_SelectWeapon@idPlayer@@AAEXPBD@Z 10081750 f   Player.obj
 0001:00080890       ?Event_GetWeaponEntity@idPlayer@@AAEXXZ 10081890 f   Player.obj
 0001:000808d0       ?Event_ExitTeleporter@idPlayer@@AAEXXZ 100818d0 f   Player.obj
 0001:00080b50       ?GetPhysicsToVisualTransform@idPlayer@@UAE_NAAVidVec3@@AAVidMat3@@@Z 10081b50 f   Player.obj
 0001:00080fb0       ?WriteToSnapshot@idPlayer@@UBEXAAVidBitMsgDelta@@@Z 10081fb0 f   Player.obj
 0001:00081180       ?WritePlayerStateToSnapshot@idPlayer@@QBEXAAVidBitMsgDelta@@@Z 10082180 f   Player.obj
 0001:00081230       ?ReadPlayerStateFromSnapshot@idPlayer@@QAEXABVidBitMsgDelta@@@Z 10082230 f   Player.obj
 0001:000812f0       ?Hide@idPlayer@@UAEXXZ     100822f0 f   Player.obj
 0001:00081330       ?Show@idPlayer@@UAEXXZ     10082330 f   Player.obj
 0001:00081370       ?RemoveWeapon@idPlayer@@QAEXPBD@Z 10082370 f   Player.obj
 0001:000813d0       ?Event_LevelTrigger@idPlayer@@AAEXXZ 100823d0 f   Player.obj
 0001:00081520       ?Event_GetIdealWeapon@idPlayer@@AAEXXZ 10082520 f   Player.obj
 0001:00081580       ?DrawPlayerIcons@idPlayer@@UAEXXZ 10082580 f   Player.obj
 0001:000815c0       ?CanChangeClassTo@idPlayer@@QAE_NPBD@Z 100825c0 f   Player.obj
 0001:00081650       ?GetNextClass@idPlayer@@QAEPBDXZ 10082650 f   Player.obj
 0001:00081680       ?SelectInitialSpawnPoint@idPlayer@@QAEXAAVidVec3@@AAVidAngles@@@Z 10082680 f   Player.obj
 0001:000817f0       ?UpdateSkinSetup@idPlayer@@QAEX_N@Z 100827f0 f   Player.obj
 0001:00081a60       ?UserInfoChanged@idPlayer@@QAE_N_N@Z 10082a60 f   Player.obj
 0001:00081d60       ?UpdateHudStats@idPlayer@@QAEXPAVidUserInterface@@@Z 10082d60 f   Player.obj
 0001:00081f40       ?DrawHUD@idPlayer@@QAEXPAVidUserInterface@@@Z 10082f40 f   Player.obj
 0001:000820c0       ?FireWeapon@idPlayer@@AAEXXZ 100830c0 f   Player.obj
 0001:00082280       ?GivePowerUp@idPlayer@@QAE_NHH@Z 10083280 f   Player.obj
 0001:000825a0       ?GiveSecurity@idPlayer@@QAEXPBD@Z 100835a0 f   Player.obj
 0001:00082640       ??_GidDict@@QAEPAXI@Z      10083640 f i Player.obj
 0001:000826d0       ?GiveItem@idPlayer@@QAEXPBD@Z 100836d0 f   Player.obj
 0001:00082890       ?DropWeapon@idPlayer@@QAEX_N@Z 10083890 f   Player.obj
 0001:00082d70       ?Weapon_Combat@idPlayer@@AAEXXZ 10083d70 f   Player.obj
 0001:000832c0       ?Weapon_NPC@idPlayer@@AAEXXZ 100842c0 f   Player.obj
 0001:00083330       ?Weapon_GUI@idPlayer@@AAEXXZ 10084330 f   Player.obj
 0001:00083480       ?UpdateWeapon@idPlayer@@AAEXXZ 10084480 f   Player.obj
 0001:000836d0       ?SpectateFreeFly@idPlayer@@AAEX_N@Z 100846d0 f   Player.obj
 0001:000839c0       ?UpdateSpectating@idPlayer@@AAEXXZ 100849c0 f   Player.obj
 0001:00083a20       ?AddGuiPDAData@idPlayer@@AAEHW4declType_t@@PBDPBVidDeclPDA@@PAVidUserInterface@@@Z 10084a20 f   Player.obj
 0001:00083e10       ?UpdatePDAInfo@idPlayer@@AAEX_N@Z 10084e10 f   Player.obj
 0001:00084730       ?TogglePDA@idPlayer@@QAEXXZ 10085730 f   Player.obj
 0001:00084c00       ?PerformImpulse@idPlayer@@QAEXH@Z 10085c00 f   Player.obj
 0001:00084ea0       ?HandleESC@idPlayer@@QAE_NXZ 10085ea0 f   Player.obj
 0001:00084f90       ?EvaluateControls@idPlayer@@AAEXXZ 10085f90 f   Player.obj
 0001:00085050       ?Killed@idPlayer@@UAEXPAVidEntity@@0HABVidVec3@@H@Z 10086050 f   Player.obj
 0001:00085340       ?DamageFeedback@idPlayer@@UAEXPAVidEntity@@0AAH@Z 10086340 f   Player.obj
 0001:000853f0       ?AddAIKill@idPlayer@@QAEXHH@Z 100863f0 f   Player.obj
 0001:00085490       ?Event_OpenPDA@idPlayer@@AAEXXZ 10086490 f   Player.obj
 0001:000854a0       ?ServerReceiveEvent@idPlayer@@UAE_NHHABVidBitMsg@@@Z 100864a0 f   Player.obj
 0001:000854f0       ??4idItemInfo@@QAEAAU0@ABU0@@Z 100864f0 f i Player.obj
 0001:000854f0       ??4idLevelTriggerInfo@@QAEAAU0@ABU0@@Z 100864f0 f i Player.obj
 0001:00085570       ??4idObjectiveInfo@@QAEAAU0@ABU0@@Z 10086570 f i Player.obj
 0001:00085620       ?Clear@idInventory@@QAEXXZ 10086620 f   Player.obj
 0001:00085920       ?RemoveInventoryItem@idPlayer@@QAEXPAVidDict@@@Z 10086920 f   Player.obj
 0001:000859a0       ?HandleSingleGuiCommand@idPlayer@@UAE_NPAVidEntity@@PAVidLexer@@@Z 100869a0 f   Player.obj
 0001:00086110       ?InitAASLocation@idPlayer@@AAEXXZ 10087110 f   Player.obj
 0001:00086410       ??1?$idList@UidItemInfo@@@@QAE@XZ 10087410 f i Player.obj
 0001:00086410       ??1?$idList@UidLevelTriggerInfo@@@@QAE@XZ 10087410 f i Player.obj
 0001:00086450       ??1?$idList@UidObjectiveInfo@@@@QAE@XZ 10087450 f i Player.obj
 0001:00086490       ??0idInventory@@QAE@XZ     10087490 f i Player.obj
 0001:000865a0       ??1idInventory@@QAE@XZ     100875a0 f i Player.obj
 0001:000867c0       ?Restore@idInventory@@QAEXPAVidRestoreGame@@@Z 100877c0 f   Player.obj
 0001:00088590       ?AddPickupName@idInventory@@QAEXPBD0@Z 10089590 f   Player.obj
 0001:00088860       ?Give@idInventory@@QAE_NPAVidPlayer@@ABVidDict@@PBD2PAH_N@Z 10089860 f   Player.obj
 0001:00088f80       ??0idPlayer@@QAE@XZ        10089f80 f   Player.obj
 0001:00089810       ??1idPlayer@@UAE@XZ        1008a810 f   Player.obj
 0001:00089950       ?Restore@idPlayer@@QAEXPAVidRestoreGame@@@Z 1008a950 f   Player.obj
 0001:0008a500       ?Give@idPlayer@@QAE_NPBD0@Z 1008b500 f   Player.obj
 0001:0008a6f0       ?GiveItem@idPlayer@@QAE_NPAVidItem@@@Z 1008b6f0 f   Player.obj
 0001:0008a9b0       ?GiveInventoryItem@idPlayer@@QAE_NPAVidDict@@@Z 1008b9b0 f   Player.obj
 0001:0008af30       ?GiveObjective@idPlayer@@QAEXPBD00@Z 1008bf30 f   Player.obj
 0001:0008b260       ?CompleteObjective@idPlayer@@QAEXPBD@Z 1008c260 f   Player.obj
 0001:0008b330       ?GiveVideo@idPlayer@@QAEXPBDPAVidDict@@@Z 1008c330 f   Player.obj
 0001:0008ba40       ?GiveEmail@idPlayer@@QAEXPBD@Z 1008ca40 f   Player.obj
 0001:0008be60       ?GivePDA@idPlayer@@QAEXPBDPAVidDict@@@Z 1008ce60 f   Player.obj
 0001:0008cbf0       ?RemoveInventoryItem@idPlayer@@QAEXPBD@Z 1008dbf0 f   Player.obj
 0001:0008cc10       ?StealWeapon@idPlayer@@QAEXPAV1@@Z 1008dc10 f   Player.obj
 0001:0008ce10       ?UpdateHud@idPlayer@@QAEXXZ 1008de10 f   Player.obj
 0001:0008d1b0       ?Think@idPlayer@@UAEXXZ    1008e1b0 f   Player.obj
 0001:0008da10       ?ClientPredictionThink@idPlayer@@UAEXXZ 1008ea10 f   Player.obj
 0001:0008de20       ?SetLevelTrigger@idPlayer@@QAEXPBD0@Z 1008ee20 f   Player.obj
 0001:0008e0f0       ?CreateInstance@idPlayer@@SAPAVidClass@@XZ 1008f0f0 f   Player.obj
 0001:0008e190       ?RestoreInventory@idInventory@@QAEXPAVidPlayer@@ABVidDict@@@Z 1008f190 f   Player.obj
 0001:0008f320       ??_EidPlayer@@UAEPAXI@Z    10090320 f i Player.obj
 0001:0008f320       ??_GidPlayer@@UAEPAXI@Z    10090320 f i Player.obj
 0001:0008f340       ?RestorePersistantInfo@idPlayer@@QAEXXZ 10090340 f   Player.obj
 0001:0008f400       ?Init@idPlayer@@QAEXXZ     10090400 f   Player.obj
 0001:0008fb30       ?SpawnToPoint@idPlayer@@QAEXABVidVec3@@ABVidAngles@@@Z 10090b30 f   Player.obj
 0001:0008fdc0       ?Spectate@idPlayer@@QAEX_N@Z 10090dc0 f   Player.obj
 0001:0008fee0       ?ReadFromSnapshot@idPlayer@@UAEXABVidBitMsgDelta@@@Z 10090ee0 f   Player.obj
 0001:00090580       ?ClientReceiveEvent@idPlayer@@UAE_NHHABVidBitMsg@@@Z 10091580 f   Player.obj
 0001:00090670       ?PrepareForRestart@idPlayer@@QAEXXZ 10091670 f   Player.obj
 0001:000906a0       ?Spawn@idPlayer@@QAEXXZ    100916a0 f   Player.obj
 0001:00090dc0       ?Restart@idPlayer@@UAEXXZ  10091dc0 f   Player.obj
 0001:00090e20       ?ServerSpectate@idPlayer@@QAEX_N@Z 10091e20 f   Player.obj
 0001:00090e90       ?Kill@idPlayer@@QAEX_N0@Z  10091e90 f   Player.obj
 0001:00090f80       ??1idPlayerIcon@@QAE@XZ    10091f80 f   PlayerIcon.obj
 0001:00090f80       ?FreeIcon@idPlayerIcon@@QAEXXZ 10091f80 f   PlayerIcon.obj
 0001:00090fb0       ?CreateIcon@idPlayerIcon@@QAE_NPAVidPlayer@@W4playerIconType_t@@PBDABVidVec3@@ABVidMat3@@@Z 10091fb0 f   PlayerIcon.obj
 0001:00091130       ?UpdateIcon@idPlayerIcon@@QAEXPAVidPlayer@@ABVidVec3@@ABVidMat3@@@Z 10092130 f   PlayerIcon.obj
 0001:000911a0       ??0idPlayerIcon@@QAE@XZ    100921a0 f   PlayerIcon.obj
 0001:000911c0       ?CreateIcon@idPlayerIcon@@QAE_NPAVidPlayer@@W4playerIconType_t@@ABVidVec3@@ABVidMat3@@@Z 100921c0 f   PlayerIcon.obj
 0001:00091210       ?Draw@idPlayerIcon@@QAEXPAVidPlayer@@ABVidVec3@@@Z 10092210 f   PlayerIcon.obj
 0001:00091310       ?Draw@idPlayerIcon@@QAEXPAVidPlayer@@W4jointHandle_t@@@Z 10092310 f   PlayerIcon.obj
 0001:00091390       ?Save@idPlayerView@@QBEXPAVidSaveGame@@@Z 10092390 f   PlayerView.obj
 0001:00091580       ?Restore@idPlayerView@@QAEXPAVidRestoreGame@@@Z 10092580 f   PlayerView.obj
 0001:00091740       ?SetPlayerEntity@idPlayerView@@QAEXPAVidPlayer@@@Z 10092740 f   PlayerView.obj
 0001:00091750       ?ClearEffects@idPlayerView@@QAEXXZ 10092750 f   PlayerView.obj
 0001:00091800       ?GetScreenBlob@idPlayerView@@AAEPAUscreenBlob_t@@XZ 10092800 f   PlayerView.obj
 0001:00091880       ?DamageImpulse@idPlayerView@@QAEXVidVec3@@PBVidDict@@@Z 10092880 f   PlayerView.obj
 0001:00091c50       ?WeaponFireFeedback@idPlayerView@@QAEXPBVidDict@@@Z 10092c50 f   PlayerView.obj
 0001:00091cf0       ?CalculateShake@idPlayerView@@QAEXXZ 10092cf0 f   PlayerView.obj
 0001:00091e00       ?AngleOffset@idPlayerView@@QBE?AVidAngles@@XZ 10092e00 f   PlayerView.obj
 0001:00091f40       ?SingleView@idPlayerView@@AAEXPAVidUserInterface@@PBUrenderView_s@@@Z 10092f40 f   PlayerView.obj
 0001:00092710       ?DoubleVision@idPlayerView@@AAEXPAVidUserInterface@@PBUrenderView_s@@H@Z 10093710 f   PlayerView.obj
 0001:00092930       ?BerserkVision@idPlayerView@@AAEXPAVidUserInterface@@PBUrenderView_s@@@Z 10093930 f   PlayerView.obj
 0001:000929f0       ?Fade@idPlayerView@@QAEXVidVec4@@H@Z 100939f0 f   PlayerView.obj
 0001:00092ae0       ?ScreenFade@idPlayerView@@AAEXXZ 10093ae0 f   PlayerView.obj
 0001:00092cd0       ?InfluenceVision@idPlayerView@@AAEXPAVidUserInterface@@PBUrenderView_s@@@Z 10093cd0 f   PlayerView.obj
 0001:00092f70       ?RenderPlayerView@idPlayerView@@QAEXPAVidUserInterface@@@Z 10093f70 f   PlayerView.obj
 0001:000930b0       ??0idPlayerView@@QAE@XZ    100940b0 f   PlayerView.obj
 0001:00093250       ?Flash@idPlayerView@@QAEXVidVec4@@H@Z 10094250 f   PlayerView.obj
 0001:000932d0       ?GetType@idProjectile@@UBEPAVidTypeInfo@@XZ 100942d0 f   Projectile.obj
 0001:000932e0       ?Spawn@idProjectile@@QAEXXZ 100942e0 f   Projectile.obj
 0001:000933b0       ?FreeLightDef@idProjectile@@UAEXXZ 100943b0 f   Projectile.obj
 0001:000933e0       ?Event_GetProjectileState@idProjectile@@AAEXXZ 100943e0 f   Projectile.obj
 0001:000933f0       ?ClientPredictionThink@idProjectile@@UAEXXZ 100943f0 f   Projectile.obj
 0001:00093410       ?GetType@idGuidedProjectile@@UBEPAVidTypeInfo@@XZ 10094410 f   Projectile.obj
 0001:00093420       ?GetType@idSoulCubeMissile@@UBEPAVidTypeInfo@@XZ 10094420 f   Projectile.obj
 0001:00093430       ?Spawn@idSoulCubeMissile@@QAEXXZ 10094430 f   Projectile.obj
 0001:00093480       ?Save@idSoulCubeMissile@@QBEXPAVidSaveGame@@@Z 10094480 f   Projectile.obj
 0001:00093530       ?Restore@idSoulCubeMissile@@QAEXPAVidRestoreGame@@@Z 10094530 f   Projectile.obj
 0001:000935e0       ?GetType@idBFGProjectile@@UBEPAVidTypeInfo@@XZ 100945e0 f   Projectile.obj
 0001:000935f0       ?GetType@idDebris@@UBEPAVidTypeInfo@@XZ 100945f0 f   Projectile.obj
 0001:00093600       ??1idDebris@@UAE@XZ        10094600 f   Projectile.obj
 0001:00093660       ?Think@idDebris@@UAEXXZ    10094660 f   Projectile.obj
 0001:00093730       ?Collide@idDebris@@UAE_NABUtrace_s@@ABVidVec3@@@Z 10094730 f   Projectile.obj
 0001:00093760       ?Save@idProjectile@@QBEXPAVidSaveGame@@@Z 10094760 f   Projectile.obj
 0001:00093870       ?Restore@idProjectile@@QAEXPAVidRestoreGame@@@Z 10094870 f   Projectile.obj
 0001:00093a20       ??1idProjectile@@UAE@XZ    10094a20 f   Projectile.obj
 0001:00093ac0       ?Launch@idProjectile@@UAEXABVidVec3@@00MMM@Z 10094ac0 f   Projectile.obj
 0001:00094550       ?Think@idProjectile@@UAEXXZ 10095550 f   Projectile.obj
 0001:00094970       ?DefaultDamageEffect@idProjectile@@SAXPAVidEntity@@ABVidDict@@ABUtrace_s@@ABVidVec3@@@Z 10095970 f   Projectile.obj
 0001:00094ad0       ?AddDefaultDamageEffect@idProjectile@@AAEXABUtrace_s@@ABVidVec3@@@Z 10095ad0 f   Projectile.obj
 0001:00094ca0       ?Fizzle@idProjectile@@QAEXXZ 10095ca0 f   Projectile.obj
 0001:00094db0       ?Event_RadiusDamage@idProjectile@@AAEXPAVidEntity@@@Z 10095db0 f   Projectile.obj
 0001:00094e30       ?GetVelocity@idProjectile@@SA?AVidVec3@@PBVidDict@@@Z 10095e30 f   Projectile.obj
 0001:00094e50       ?GetGravity@idProjectile@@SA?AVidVec3@@PBVidDict@@@Z 10095e50 f   Projectile.obj
 0001:00094ea0       ?Event_Fizzle@idProjectile@@AAEXXZ 10095ea0 f   Projectile.obj
 0001:00094eb0       ?ClientPredictionCollide@idProjectile@@SA_NPAVidEntity@@ABVidDict@@ABUtrace_s@@ABVidVec3@@_N@Z 10095eb0 f   Projectile.obj
 0001:00095020       ?WriteToSnapshot@idProjectile@@UBEXAAVidBitMsgDelta@@@Z 10096020 f   Projectile.obj
 0001:000951f0       ?Save@idGuidedProjectile@@QBEXPAVidSaveGame@@@Z 100961f0 f   Projectile.obj
 0001:000952c0       ?Restore@idGuidedProjectile@@QAEXPAVidRestoreGame@@@Z 100962c0 f   Projectile.obj
 0001:00095380       ?GetSeekPos@idGuidedProjectile@@MAEXAAVidVec3@@@Z 10096380 f   Projectile.obj
 0001:000954c0       ?Think@idGuidedProjectile@@UAEXXZ 100964c0 f   Projectile.obj
 0001:00095ac0       ?KillTarget@idSoulCubeMissile@@IAEXABVidVec3@@@Z 10096ac0 f   Projectile.obj
 0001:00095d60       ?Think@idSoulCubeMissile@@UAEXXZ 10096d60 f   Projectile.obj
 0001:00096150       ?GetSeekPos@idSoulCubeMissile@@MAEXAAVidVec3@@@Z 10097150 f   Projectile.obj
 0001:00096290       ?Spawn@idBFGProjectile@@QAEXXZ 10097290 f   Projectile.obj
 0001:000963a0       ?Save@idBFGProjectile@@QBEXPAVidSaveGame@@@Z 100973a0 f   Projectile.obj
 0001:00096450       ?FreeBeams@idBFGProjectile@@AAEXXZ 10097450 f   Projectile.obj
 0001:000964c0       ?Think@idBFGProjectile@@UAEXXZ 100974c0 f   Projectile.obj
 0001:00096ad0       ?Event_RemoveBeams@idBFGProjectile@@AAEXXZ 10097ad0 f   Projectile.obj
 0001:00096ae0       ?Spawn@idDebris@@QAEXXZ    10097ae0 f   Projectile.obj
 0001:00096b00       ?Create@idDebris@@QAEXPAVidEntity@@ABVidVec3@@ABVidMat3@@@Z 10097b00 f   Projectile.obj
 0001:00096b90       ??0idDebris@@QAE@XZ        10097b90 f   Projectile.obj
 0001:00096c00       ??_EidDebris@@UAEPAXI@Z    10097c00 f i Projectile.obj
 0001:00096c00       ??_GidDebris@@UAEPAXI@Z    10097c00 f i Projectile.obj
 0001:00096c20       ?Save@idDebris@@QBEXPAVidSaveGame@@@Z 10097c20 f   Projectile.obj
 0001:00096c80       ?Restore@idDebris@@QAEXPAVidRestoreGame@@@Z 10097c80 f   Projectile.obj
 0001:00096ce0       ?Fizzle@idDebris@@QAEXXZ   10097ce0 f   Projectile.obj
 0001:00096e40       ?Explode@idDebris@@QAEXXZ  10097e40 f   Projectile.obj
 0001:00096fb0       ?Event_Explode@idDebris@@AAEXXZ 10097fb0 f   Projectile.obj
 0001:00096fc0       ?Event_Fizzle@idDebris@@AAEXXZ 10097fc0 f   Projectile.obj
 0001:00096fd0       ??0idProjectile@@QAE@XZ    10097fd0 f   Projectile.obj
 0001:000970f0       ??_GidProjectile@@UAEPAXI@Z 100980f0 f i Projectile.obj
 0001:000970f0       ??_EidProjectile@@UAEPAXI@Z 100980f0 f i Projectile.obj
 0001:00097110       ?Create@idProjectile@@QAEXPAVidEntity@@ABVidVec3@@1@Z 10098110 f   Projectile.obj
 0001:00097560       ?Collide@idProjectile@@UAE_NABUtrace_s@@ABVidVec3@@@Z 10098560 f   Projectile.obj
 0001:00097cc0       ?Event_Explode@idProjectile@@AAEXXZ 10098cc0 f   Projectile.obj
 0001:00097dc0       ?Event_Touch@idProjectile@@AAEXPAVidEntity@@PAUtrace_s@@@Z 10098dc0 f   Projectile.obj
 0001:00097f00       ?ReadFromSnapshot@idProjectile@@UAEXABVidBitMsgDelta@@@Z 10098f00 f   Projectile.obj
 0001:00098410       ?ClientReceiveEvent@idProjectile@@UAE_NHHABVidBitMsg@@@Z 10099410 f   Projectile.obj
 0001:00098550       ??0idGuidedProjectile@@QAE@XZ 10099550 f   Projectile.obj
 0001:00098610       ??_EidGuidedProjectile@@UAEPAXI@Z 10099610 f i Projectile.obj
 0001:00098610       ??_GidSoulCubeMissile@@UAEPAXI@Z 10099610 f i Projectile.obj
 0001:00098610       ??_EidSoulCubeMissile@@UAEPAXI@Z 10099610 f i Projectile.obj
 0001:00098610       ??_GidGuidedProjectile@@UAEPAXI@Z 10099610 f i Projectile.obj
 0001:00098640       ?Launch@idGuidedProjectile@@UAEXABVidVec3@@00MMM@Z 10099640 f   Projectile.obj
 0001:00098b60       ?Launch@idSoulCubeMissile@@UAEXABVidVec3@@00MMM@Z 10099b60 f   Projectile.obj
 0001:00098f40       ??0idBFGProjectile@@QAE@XZ 10099f40 f   Projectile.obj
 0001:00098fe0       ??1idBFGProjectile@@UAE@XZ 10099fe0 f   Projectile.obj
 0001:00099090       ?CreateInstance@idDebris@@SAPAVidClass@@XZ 1009a090 f   Projectile.obj
 0001:00099130       ?Launch@idDebris@@QAEXXZ   1009a130 f   Projectile.obj
 0001:00099a50       ?Killed@idDebris@@UAEXPAVidEntity@@0HABVidVec3@@H@Z 1009aa50 f   Projectile.obj
 0001:00099aa0       ?CreateInstance@idProjectile@@SAPAVidClass@@XZ 1009aaa0 f   Projectile.obj
 0001:00099b40       ?Killed@idProjectile@@UAEXPAVidEntity@@0HABVidVec3@@H@Z 1009ab40 f   Projectile.obj
 0001:00099c90       ?Explode@idProjectile@@UAEXABUtrace_s@@PAVidEntity@@@Z 1009ac90 f   Projectile.obj
 0001:0009a740       ?CreateInstance@idGuidedProjectile@@SAPAVidClass@@XZ 1009b740 f   Projectile.obj
 0001:0009a7e0       ?CreateInstance@idSoulCubeMissile@@SAPAVidClass@@XZ 1009b7e0 f   Projectile.obj
 0001:0009a890       ?CreateInstance@idBFGProjectile@@SAPAVidClass@@XZ 1009b890 f   Projectile.obj
 0001:0009a930       ??_EidBFGProjectile@@UAEPAXI@Z 1009b930 f i Projectile.obj
 0001:0009a930       ??_GidBFGProjectile@@UAEPAXI@Z 1009b930 f i Projectile.obj
 0001:0009a950       ?Explode@idBFGProjectile@@UAEXABUtrace_s@@PAVidEntity@@@Z 1009b950 f   Projectile.obj
 0001:0009ada0       ?Restore@idBFGProjectile@@QAEXPAVidRestoreGame@@@Z 1009bda0 f   Projectile.obj
 0001:0009b000       ?Launch@idBFGProjectile@@UAEXABVidVec3@@00MMM@Z 1009c000 f   Projectile.obj
 0001:0009b8a0       ??0idPVS@@QAE@XZ           1009c8a0 f   Pvs.obj
 0001:0009b910       ?GetPortalCount@idPVS@@ABEHXZ 1009c910 f   Pvs.obj
 0001:0009b950       ?DestroyPVSData@idPVS@@AAEXXZ 1009c950 f   Pvs.obj
 0001:0009ba00       ?FloodFrontPortalPVS_r@idPVS@@ABEXPAUpvsPortal_s@@H@Z 1009ca00 f   Pvs.obj
 0001:0009bab0       ?FloodPassagePVS_r@idPVS@@ABEPAUpvsStack_s@@PAUpvsPortal_s@@PBU3@PAU2@@Z 1009cab0 f   Pvs.obj
 0001:0009bc60       ?DestroyPassages@idPVS@@ABEXXZ 1009cc60 f   Pvs.obj
 0001:0009bcf0       ?AreaPVSFromPortalPVS@idPVS@@ABEHXZ 1009ccf0 f   Pvs.obj
 0001:0009bea0       ?Shutdown@idPVS@@QAEXXZ    1009cea0 f   Pvs.obj
 0001:0009bf20       ?GetConnectedAreas@idPVS@@ABEXHPA_N@Z 1009cf20 f   Pvs.obj
 0001:0009bfe0       ?GetPVSArea@idPVS@@QBEHABVidVec3@@@Z 1009cfe0 f   Pvs.obj
 0001:0009bff0       ?GetPVSAreas@idPVS@@QBEHABVidBounds@@PAHH@Z 1009cff0 f   Pvs.obj
 0001:0009c000       ?AllocCurrentPVS@idPVS@@ABE?AUpvsHandle_s@@I@Z 1009d000 f   Pvs.obj
 0001:0009c060       ?FreeCurrentPVS@idPVS@@QBEXUpvsHandle_s@@@Z 1009d060 f   Pvs.obj
 0001:0009c0a0       ?InCurrentPVS@idPVS@@QBE_NUpvsHandle_s@@PBHH@Z 1009d0a0 f   Pvs.obj
 0001:0009c130       ??1idPVS@@QAE@XZ           1009d130 f   Pvs.obj
 0001:0009c140       ?FrontPortalPVS@idPVS@@ABEXXZ 1009d140 f   Pvs.obj
 0001:0009c660       ?SetupCurrentPVS@idPVS@@QBE?AUpvsHandle_s@@HW4pvsType_t@@@Z 1009d660 f   Pvs.obj
 0001:0009c770       ?SetupCurrentPVS@idPVS@@QBE?AUpvsHandle_s@@PBHHW4pvsType_t@@@Z 1009d770 f   Pvs.obj
 0001:0009c930       ?MergeCurrentPVS@idPVS@@QBE?AUpvsHandle_s@@U2@0@Z 1009d930 f   Pvs.obj
 0001:0009c9e0       ?CreatePVSData@idPVS@@AAEXXZ 1009d9e0 f   Pvs.obj
 0001:0009ccb0       ?AddPassageBoundaries@idPVS@@ABEXABVidWinding@@0_NPAVidPlane@@AAHH@Z 1009dcb0 f   Pvs.obj
 0001:0009d3f0       ?CreatePassages@idPVS@@ABEXXZ 1009e3f0 f   Pvs.obj
 0001:0009d810       ?DrawPVS@idPVS@@QBEXABVidVec3@@W4pvsType_t@@@Z 1009e810 f   Pvs.obj
 0001:0009da90       ?PassagePVS@idPVS@@ABEXXZ  1009ea90 f   Pvs.obj
 0001:0009db30       ?Init@idPVS@@QAEXXZ        1009eb30 f   Pvs.obj
 0001:0009dd90       ?GetType@idSecurityCamera@@UBEPAVidTypeInfo@@XZ 1009ed90 f   SecurityCamera.obj
 0001:0009dda0       ?Save@idSecurityCamera@@QBEXPAVidSaveGame@@@Z 1009eda0 f   SecurityCamera.obj
 0001:0009dec0       ?Restore@idSecurityCamera@@QAEXPAVidRestoreGame@@@Z 1009eec0 f   SecurityCamera.obj
 0001:0009dfc0       ?Present@idSecurityCamera@@UAEXXZ 1009efc0 f   SecurityCamera.obj
 0001:0009e040       ?GetAxis@idSecurityCamera@@ABE?BVidVec3@@XZ 1009f040 f   SecurityCamera.obj
 0001:0009e0d0       ?StartSweep@idSecurityCamera@@AAEXXZ 1009f0d0 f   SecurityCamera.obj
 0001:0009e170       ?Event_ContinueSweep@idSecurityCamera@@AAEXXZ 1009f170 f   SecurityCamera.obj
 0001:0009e250       ?Event_Alert@idSecurityCamera@@AAEXXZ 1009f250 f   SecurityCamera.obj
 0001:0009e2e0       ?Event_ReverseSweep@idSecurityCamera@@AAEXXZ 1009f2e0 f   SecurityCamera.obj
 0001:0009e330       ?Event_Pause@idSecurityCamera@@AAEXXZ 1009f330 f   SecurityCamera.obj
 0001:0009e3a0       ?Killed@idSecurityCamera@@UAEXPAVidEntity@@0HABVidVec3@@H@Z 1009f3a0 f   SecurityCamera.obj
 0001:0009e520       ?Pain@idSecurityCamera@@UAE_NPAVidEntity@@0HABVidVec3@@H@Z 1009f520 f   SecurityCamera.obj
 0001:0009e560       ??0idSecurityCamera@@QAE@XZ 1009f560 f i SecurityCamera.obj
 0001:0009e5f0       ??1idSecurityCamera@@UAE@XZ 1009f5f0 f i SecurityCamera.obj
 0001:0009e640       ??_GidSecurityCamera@@UAEPAXI@Z 1009f640 f i SecurityCamera.obj
 0001:0009e640       ??_EidSecurityCamera@@UAEPAXI@Z 1009f640 f i SecurityCamera.obj
 0001:0009e660       ?Spawn@idSecurityCamera@@QAEXXZ 1009f660 f   SecurityCamera.obj
 0001:0009ea70       ?Event_AddLight@idSecurityCamera@@AAEXXZ 1009fa70 f   SecurityCamera.obj
 0001:0009f200       ?DrawFov@idSecurityCamera@@AAEXXZ 100a0200 f   SecurityCamera.obj
 0001:0009fd40       ?GetRenderView@idSecurityCamera@@UAEPAUrenderView_s@@XZ 100a0d40 f   SecurityCamera.obj
 0001:0009fe20       ?CreateInstance@idSecurityCamera@@SAPAVidClass@@XZ 100a0e20 f   SecurityCamera.obj
 0001:0009fec0       ?CanSeePlayer@idSecurityCamera@@AAE_NXZ 100a0ec0 f   SecurityCamera.obj
 0001:000a01d0       ?Think@idSecurityCamera@@UAEXXZ 100a11d0 f   SecurityCamera.obj
 0001:000a03e0       ?Shutdown@idSmokeParticles@@QAEXXZ 100a13e0 f   SmokeParticles.obj
 0001:000a0430       ?FreeSmokes@idSmokeParticles@@QAEXXZ 100a1430 f   SmokeParticles.obj
 0001:000a0520       ??0idSmokeParticles@@QAE@XZ 100a1520 f   SmokeParticles.obj
 0001:000a05c0       ?EmitSmoke@idSmokeParticles@@QAE_NPBVidDeclParticle@@HMABVidVec3@@ABVidMat3@@@Z 100a15c0 f   SmokeParticles.obj
 0001:000a0a50       ?UpdateRenderEntity@idSmokeParticles@@AAE_NPAUrenderEntity_s@@PBUrenderView_s@@@Z 100a1a50 f   SmokeParticles.obj
 0001:000a0d90       ?ModelCallback@idSmokeParticles@@CA_NPAUrenderEntity_s@@PBUrenderView_s@@@Z 100a1d90 f   SmokeParticles.obj
 0001:000a0db0       ?Init@idSmokeParticles@@QAEXXZ 100a1db0 f   SmokeParticles.obj
 0001:000a1000       ?GetType@idSound@@UBEPAVidTypeInfo@@XZ 100a2000 f   Sound.obj
 0001:000a1010       ?Save@idSound@@QBEXPAVidSaveGame@@@Z 100a2010 f   Sound.obj
 0001:000a10a0       ?Restore@idSound@@QAEXPAVidRestoreGame@@@Z 100a20a0 f   Sound.obj
 0001:000a1120       ?Event_Off@idSound@@AAEXXZ 100a2120 f   Sound.obj
 0001:000a1160       ?ShowEditingDialog@idSound@@UAEXXZ 100a2160 f   Sound.obj
 0001:000a1180       ??0idSound@@QAE@XZ         100a2180 f   Sound.obj
 0001:000a11e0       ?Spawn@idSound@@QAEXXZ     100a21e0 f   Sound.obj
 0001:000a13d0       ?Event_Trigger@idSound@@AAEXPAVidEntity@@@Z 100a23d0 f   Sound.obj
 0001:000a1520       ?Event_Timer@idSound@@AAEXXZ 100a2520 f   Sound.obj
 0001:000a15c0       ?Think@idSound@@UAEXXZ     100a25c0 f   Sound.obj
 0001:000a15e0       ?UpdateChangeableSpawnArgs@idSound@@UAEXPBVidDict@@@Z 100a25e0 f   Sound.obj
 0001:000a18b0       ?SetSound@idSound@@QAEXPBDH@Z 100a28b0 f   Sound.obj
 0001:000a1950       ?Event_On@idSound@@AAEXXZ  100a2950 f   Sound.obj
 0001:000a1a00       ?CreateInstance@idSound@@SAPAVidClass@@XZ 100a2a00 f   Sound.obj
 0001:000a1aa0       ??1idTrigger@@UAE@XZ       100a2aa0 f i Trigger.obj
 0001:000a1aa0       ??1idTarget@@UAE@XZ        100a2aa0 f i Target.obj
 0001:000a1ab0       ?GetType@idTarget@@UBEPAVidTypeInfo@@XZ 100a2ab0 f   Target.obj
 0001:000a1ac0       ?GetType@idTarget_Remove@@UBEPAVidTypeInfo@@XZ 100a2ac0 f   Target.obj
 0001:000a1ad0       ?GetType@idTarget_Show@@UBEPAVidTypeInfo@@XZ 100a2ad0 f   Target.obj
 0001:000a1ae0       ?GetType@idTarget_Damage@@UBEPAVidTypeInfo@@XZ 100a2ae0 f   Target.obj
 0001:000a1af0       ?GetType@idTarget_SessionCommand@@UBEPAVidTypeInfo@@XZ 100a2af0 f   Target.obj
 0001:000a1b00       ?GetType@idTarget_EndLevel@@UBEPAVidTypeInfo@@XZ 100a2b00 f   Target.obj
 0001:000a1b10       ?GetType@idTarget_WaitForButton@@UBEPAVidTypeInfo@@XZ 100a2b10 f   Target.obj
 0001:000a1b20       ?Event_Activate@idTarget_WaitForButton@@AAEXPAVidEntity@@@Z 100a2b20 f   Target.obj
 0001:000a1b50       ?Think@idTarget_WaitForButton@@UAEXXZ 100a2b50 f   Target.obj
 0001:000a1bb0       ?GetType@idTarget_SetGlobalShaderTime@@UBEPAVidTypeInfo@@XZ 100a2bb0 f   Target.obj
 0001:000a1bc0       ?GetType@idTarget_SetShaderParm@@UBEPAVidTypeInfo@@XZ 100a2bc0 f   Target.obj
 0001:000a1bd0       ?GetType@idTarget_SetShaderTime@@UBEPAVidTypeInfo@@XZ 100a2bd0 f   Target.obj
 0001:000a1be0       ?GetType@idTarget_FadeEntity@@UBEPAVidTypeInfo@@XZ 100a2be0 f   Target.obj
 0001:000a1bf0       ?Save@idTarget_FadeEntity@@QBEXPAVidSaveGame@@@Z 100a2bf0 f   Target.obj
 0001:000a1c30       ?Restore@idTarget_FadeEntity@@QAEXPAVidRestoreGame@@@Z 100a2c30 f   Target.obj
 0001:000a1c70       ?GetType@idTarget_LightFadeIn@@UBEPAVidTypeInfo@@XZ 100a2c70 f   Target.obj
 0001:000a1c80       ?GetType@idTarget_LightFadeOut@@UBEPAVidTypeInfo@@XZ 100a2c80 f   Target.obj
 0001:000a1c90       ?GetType@idTarget_Give@@UBEPAVidTypeInfo@@XZ 100a2c90 f   Target.obj
 0001:000a1ca0       ?GetType@idTarget_GiveEmail@@UBEPAVidTypeInfo@@XZ 100a2ca0 f   Target.obj
 0001:000a1cb0       ?GetType@idTarget_SetModel@@UBEPAVidTypeInfo@@XZ 100a2cb0 f   Target.obj
 0001:000a1cc0       ?GetType@idTarget_SetInfluence@@UBEPAVidTypeInfo@@XZ 100a2cc0 f   Target.obj
 0001:000a1cd0       ?Event_ClearFlash@idTarget_SetInfluence@@AAEXM@Z 100a2cd0 f   Target.obj
 0001:000a1d20       ?GetType@idTarget_SetKeyVal@@UBEPAVidTypeInfo@@XZ 100a2d20 f   Target.obj
 0001:000a1d30       ?GetType@idTarget_SetFov@@UBEPAVidTypeInfo@@XZ 100a2d30 f   Target.obj
 0001:000a1d40       ?GetType@idTarget_SetPrimaryObjective@@UBEPAVidTypeInfo@@XZ 100a2d40 f   Target.obj
 0001:000a1d50       ?GetType@idTarget_LockDoor@@UBEPAVidTypeInfo@@XZ 100a2d50 f   Target.obj
 0001:000a1d60       ?GetType@idTarget_CallObjectFunction@@UBEPAVidTypeInfo@@XZ 100a2d60 f   Target.obj
 0001:000a1d70       ?GetType@idTarget_EnableLevelWeapons@@UBEPAVidTypeInfo@@XZ 100a2d70 f   Target.obj
 0001:000a1d80       ?GetType@idTarget_Tip@@UBEPAVidTypeInfo@@XZ 100a2d80 f   Target.obj
 0001:000a1d90       ?Restore@idObjectiveComplete@@QAEXPAVidRestoreGame@@@Z 100a2d90 f   Item.obj
 0001:000a1d90       ?Restore@idTarget_Tip@@QAEXPAVidRestoreGame@@@Z 100a2d90 f   Target.obj
 0001:000a1db0       ?Event_GetPlayerPos@idTarget_Tip@@AAEXXZ 100a2db0 f   Target.obj
 0001:000a1e00       ?Event_TipOff@idTarget_Tip@@AAEXXZ 100a2e00 f   Target.obj
 0001:000a1f20       ?GetType@idTarget_GiveSecurity@@UBEPAVidTypeInfo@@XZ 100a2f20 f   Target.obj
 0001:000a1f30       ?GetType@idTarget_RemoveWeapons@@UBEPAVidTypeInfo@@XZ 100a2f30 f   Target.obj
 0001:000a1f40       ?GetType@idTarget_LevelTrigger@@UBEPAVidTypeInfo@@XZ 100a2f40 f   Target.obj
 0001:000a1f50       ?GetType@idTarget_EnableStamina@@UBEPAVidTypeInfo@@XZ 100a2f50 f   Target.obj
 0001:000a1f60       ?GetType@idTarget_FadeSoundClass@@UBEPAVidTypeInfo@@XZ 100a2f60 f   Target.obj
 0001:000a1f70       ?CreateInstance@idTarget@@SAPAVidClass@@XZ 100a2f70 f   Target.obj
 0001:000a2020       ?CreateInstance@idTarget_Remove@@SAPAVidClass@@XZ 100a3020 f   Target.obj
 0001:000a20d0       ?Event_Activate@idTarget_Remove@@AAEXPAVidEntity@@@Z 100a30d0 f   Target.obj
 0001:000a2140       ?CreateInstance@idTarget_Show@@SAPAVidClass@@XZ 100a3140 f   Target.obj
 0001:000a21f0       ?Event_Activate@idTarget_Show@@AAEXPAVidEntity@@@Z 100a31f0 f   Target.obj
 0001:000a2250       ?CreateInstance@idTarget_Damage@@SAPAVidClass@@XZ 100a3250 f   Target.obj
 0001:000a2300       ?Event_Activate@idTarget_Damage@@AAEXPAVidEntity@@@Z 100a3300 f   Target.obj
 0001:000a2390       ?CreateInstance@idTarget_SessionCommand@@SAPAVidClass@@XZ 100a3390 f   Target.obj
 0001:000a2440       ?Event_Activate@idTarget_SessionCommand@@AAEXPAVidEntity@@@Z 100a3440 f   Target.obj
 0001:000a2480       ?CreateInstance@idTarget_EndLevel@@SAPAVidClass@@XZ 100a3480 f   Target.obj
 0001:000a2530       ?CreateInstance@idTarget_WaitForButton@@SAPAVidClass@@XZ 100a3530 f   Target.obj
 0001:000a25e0       ?CreateInstance@idTarget_SetGlobalShaderTime@@SAPAVidClass@@XZ 100a35e0 f   Target.obj
 0001:000a2690       ?Event_Activate@idTarget_SetGlobalShaderTime@@AAEXPAVidEntity@@@Z 100a3690 f   Target.obj
 0001:000a26e0       ?CreateInstance@idTarget_SetShaderParm@@SAPAVidClass@@XZ 100a36e0 f   Target.obj
 0001:000a2790       ?Event_Activate@idTarget_SetShaderParm@@AAEXPAVidEntity@@@Z 100a3790 f   Target.obj
 0001:000a2940       ?CreateInstance@idTarget_SetShaderTime@@SAPAVidClass@@XZ 100a3940 f   Target.obj
 0001:000a29f0       ?Event_Activate@idTarget_SetShaderTime@@AAEXPAVidEntity@@@Z 100a39f0 f   Target.obj
 0001:000a2a90       ?Event_Activate@idTarget_FadeEntity@@AAEXPAVidEntity@@@Z 100a3a90 f   Target.obj
 0001:000a2b70       ?Think@idTarget_FadeEntity@@UAEXXZ 100a3b70 f   Target.obj
 0001:000a2c70       ?CreateInstance@idTarget_LightFadeIn@@SAPAVidClass@@XZ 100a3c70 f   Target.obj
 0001:000a2d20       ?Event_Activate@idTarget_LightFadeIn@@AAEXPAVidEntity@@@Z 100a3d20 f   Target.obj
 0001:000a2e00       ?CreateInstance@idTarget_LightFadeOut@@SAPAVidClass@@XZ 100a3e00 f   Target.obj
 0001:000a2eb0       ?Event_Activate@idTarget_LightFadeOut@@AAEXPAVidEntity@@@Z 100a3eb0 f   Target.obj
 0001:000a2f90       ?CreateInstance@idTarget_Give@@SAPAVidClass@@XZ 100a3f90 f   Target.obj
 0001:000a3040       ?Spawn@idTarget_Give@@QAEXXZ 100a4040 f   Target.obj
 0001:000a3080       ?CreateInstance@idTarget_GiveEmail@@SAPAVidClass@@XZ 100a4080 f   Target.obj
 0001:000a3130       ?Event_Activate@idTarget_GiveEmail@@AAEXPAVidEntity@@@Z 100a4130 f   Target.obj
 0001:000a31e0       ?CreateInstance@idTarget_SetModel@@SAPAVidClass@@XZ 100a41e0 f   Target.obj
 0001:000a3290       ?Spawn@idTarget_SetModel@@QAEXXZ 100a4290 f   Target.obj
 0001:000a32f0       ?Event_Activate@idTarget_SetModel@@AAEXPAVidEntity@@@Z 100a42f0 f   Target.obj
 0001:000a3370       ?Save@idTarget_SetInfluence@@QBEXPAVidSaveGame@@@Z 100a4370 f   Target.obj
 0001:000a3520       ?Spawn@idTarget_SetInfluence@@QAEXXZ 100a4520 f   Target.obj
 0001:000a3630       ?Event_Flash@idTarget_SetInfluence@@AAEXMH@Z 100a4630 f   Target.obj
 0001:000a3720       ?Event_Activate@idTarget_SetInfluence@@AAEXPAVidEntity@@@Z 100a4720 f   Target.obj
 0001:000a4010       ?Think@idTarget_SetInfluence@@EAEXXZ 100a5010 f   Target.obj
 0001:000a4150       ?Event_RestoreInfluence@idTarget_SetInfluence@@AAEXXZ 100a5150 f   Target.obj
 0001:000a4590       ?CreateInstance@idTarget_SetKeyVal@@SAPAVidClass@@XZ 100a5590 f   Target.obj
 0001:000a4640       ?Save@idTarget_SetFov@@QBEXPAVidSaveGame@@@Z 100a5640 f   Target.obj
 0001:000a46a0       ?Restore@idTarget_SetFov@@QAEXPAVidRestoreGame@@@Z 100a56a0 f   Target.obj
 0001:000a47c0       ?Event_Activate@idTarget_SetFov@@AAEXPAVidEntity@@@Z 100a57c0 f   Target.obj
 0001:000a48d0       ?Think@idTarget_SetFov@@UAEXXZ 100a58d0 f   Target.obj
 0001:000a49f0       ?CreateInstance@idTarget_SetPrimaryObjective@@SAPAVidClass@@XZ 100a59f0 f   Target.obj
 0001:000a4aa0       ?Event_Activate@idTarget_SetPrimaryObjective@@AAEXPAVidEntity@@@Z 100a5aa0 f   Target.obj
 0001:000a4b10       ?CreateInstance@idTarget_LockDoor@@SAPAVidClass@@XZ 100a5b10 f   Target.obj
 0001:000a4bc0       ?Event_Activate@idTarget_LockDoor@@AAEXPAVidEntity@@@Z 100a5bc0 f   Target.obj
 0001:000a4c70       ?CreateInstance@idTarget_CallObjectFunction@@SAPAVidClass@@XZ 100a5c70 f   Target.obj
 0001:000a4d20       ?Event_Activate@idTarget_CallObjectFunction@@AAEXPAVidEntity@@@Z 100a5d20 f   Target.obj
 0001:000a4ec0       ?CreateInstance@idTarget_EnableLevelWeapons@@SAPAVidClass@@XZ 100a5ec0 f   Target.obj
 0001:000a4f70       ?Event_Activate@idTarget_EnableLevelWeapons@@AAEXPAVidEntity@@@Z 100a5f70 f   Target.obj
 0001:000a50b0       ?CreateInstance@idTarget_Tip@@SAPAVidClass@@XZ 100a60b0 f   Target.obj
 0001:000a5170       ?Event_Activate@idTarget_Tip@@AAEXPAVidEntity@@@Z 100a6170 f   Target.obj
 0001:000a5230       ?CreateInstance@idTarget_GiveSecurity@@SAPAVidClass@@XZ 100a6230 f   Target.obj
 0001:000a52e0       ?Event_Activate@idTarget_GiveSecurity@@AAEXPAVidEntity@@@Z 100a62e0 f   Target.obj
 0001:000a5330       ?CreateInstance@idTarget_RemoveWeapons@@SAPAVidClass@@XZ 100a6330 f   Target.obj
 0001:000a53e0       ?Event_Activate@idTarget_RemoveWeapons@@AAEXPAVidEntity@@@Z 100a63e0 f   Target.obj
 0001:000a5470       ?CreateInstance@idTarget_LevelTrigger@@SAPAVidClass@@XZ 100a6470 f   Target.obj
 0001:000a5520       ?Event_Activate@idTarget_LevelTrigger@@AAEXPAVidEntity@@@Z 100a6520 f   Target.obj
 0001:000a55a0       ?CreateInstance@idTarget_EnableStamina@@SAPAVidClass@@XZ 100a65a0 f   Target.obj
 0001:000a5650       ?Event_Activate@idTarget_EnableStamina@@AAEXPAVidEntity@@@Z 100a6650 f   Target.obj
 0001:000a5700       ?CreateInstance@idTarget_FadeSoundClass@@SAPAVidClass@@XZ 100a6700 f   Target.obj
 0001:000a57b0       ?Event_Activate@idTarget_FadeSoundClass@@AAEXPAVidEntity@@@Z 100a67b0 f   Target.obj
 0001:000a5900       ?Event_RestoreVolume@idTarget_FadeSoundClass@@AAEXXZ 100a6900 f   Target.obj
 0001:000a59b0       ?Event_Activate@idTarget_EndLevel@@AAEXPAVidEntity@@@Z 100a69b0 f   Target.obj
 0001:000a5ba0       ?CreateInstance@idTarget_FadeEntity@@SAPAVidClass@@XZ 100a6ba0 f   Target.obj
 0001:000a5c70       ?Event_Activate@idTarget_Give@@AAEXPAVidEntity@@@Z 100a6c70 f   Target.obj
 0001:000a5f20       ??0idTarget_SetInfluence@@QAE@XZ 100a6f20 f   Target.obj
 0001:000a6050       ??1idTarget_SetInfluence@@UAE@XZ 100a7050 f i Target.obj
 0001:000a6160       ?Restore@idTarget_SetInfluence@@QAEXPAVidRestoreGame@@@Z 100a7160 f   Target.obj
 0001:000a6950       ?Event_GatherEntities@idTarget_SetInfluence@@AAEXXZ 100a7950 f   Target.obj
 0001:000a7420       ?Event_Activate@idTarget_SetKeyVal@@AAEXPAVidEntity@@@Z 100a8420 f   Target.obj
 0001:000a76f0       ?CreateInstance@idTarget_SetFov@@SAPAVidClass@@XZ 100a86f0 f   Target.obj
 0001:000a77c0       ?CreateInstance@idTarget_SetInfluence@@SAPAVidClass@@XZ 100a87c0 f   Target.obj
 0001:000a7860       ??_EidTarget_SetInfluence@@UAEPAXI@Z 100a8860 f i Target.obj
 0001:000a7860       ??_GidTarget_SetInfluence@@UAEPAXI@Z 100a8860 f i Target.obj
 0001:000a7880       ?GetType@idTrigger@@UBEPAVidTypeInfo@@XZ 100a8880 f   Trigger.obj
 0001:000a7890       ?Enable@idTrigger@@UAEXXZ  100a8890 f   Trigger.obj
 0001:000a78c0       ?Disable@idTrigger@@UAEXXZ 100a88c0 f   Trigger.obj
 0001:000a78f0       ?CallScript@idTrigger@@IBEXXZ 100a88f0 f   Trigger.obj
 0001:000a7970       ?Save@idTrigger@@QBEXPAVidSaveGame@@@Z 100a8970 f   Trigger.obj
 0001:000a79a0       ?Event_Enable@idTrigger@@IAEXXZ 100a89a0 f   Trigger.obj
 0001:000a79b0       ?GetType@idTrigger_Multi@@UBEPAVidTypeInfo@@XZ 100a89b0 f   Trigger.obj
 0001:000a79c0       ?Restore@idTrigger_Multi@@QAEXPAVidRestoreGame@@@Z 100a89c0 f   Trigger.obj
 0001:000a7a70       ?TriggerAction@idTrigger_Multi@@AAEXPAVidEntity@@@Z 100a8a70 f   Trigger.obj
 0001:000a7b40       ?Event_TriggerAction@idTrigger_Multi@@AAEXPAVidEntity@@@Z 100a8b40 f   Trigger.obj
 0001:000a7b50       ?GetType@idTrigger_EntityName@@UBEPAVidTypeInfo@@XZ 100a8b50 f   Trigger.obj
 0001:000a7b60       ?Restore@idTrigger_EntityName@@QAEXPAVidRestoreGame@@@Z 100a8b60 f   Trigger.obj
 0001:000a7bd0       ?TriggerAction@idTrigger_EntityName@@AAEXPAVidEntity@@@Z 100a8bd0 f   Trigger.obj
 0001:000a7c90       ?Event_TriggerAction@idTrigger_EntityName@@AAEXPAVidEntity@@@Z 100a8c90 f   Trigger.obj
 0001:000a7ca0       ?GetType@idTrigger_Timer@@UBEPAVidTypeInfo@@XZ 100a8ca0 f   Trigger.obj
 0001:000a7cb0       ?Restore@idTrigger_Timer@@QAEXPAVidRestoreGame@@@Z 100a8cb0 f   Trigger.obj
 0001:000a7d20       ?Enable@idTrigger_Timer@@UAEXXZ 100a8d20 f   Trigger.obj
 0001:000a7d50       ?Disable@idTrigger_Timer@@UAEXXZ 100a8d50 f   Trigger.obj
 0001:000a7d70       ?Event_Timer@idTrigger_Timer@@AAEXXZ 100a8d70 f   Trigger.obj
 0001:000a7df0       ?GetType@idTrigger_Count@@UBEPAVidTypeInfo@@XZ 100a8df0 f   Trigger.obj
 0001:000a7e00       ?Save@idTrigger_Count@@QBEXPAVidSaveGame@@@Z 100a8e00 f   Trigger.obj
 0001:000a7e40       ?Restore@idTrigger_Count@@QAEXPAVidRestoreGame@@@Z 100a8e40 f   Trigger.obj
 0001:000a7e80       ?Spawn@idTrigger_Count@@QAEXXZ 100a8e80 f   Trigger.obj
 0001:000a7ed0       ?Event_TriggerAction@idTrigger_Count@@AAEXPAVidEntity@@@Z 100a8ed0 f   Trigger.obj
 0001:000a7f00       ?GetType@idTrigger_Hurt@@UBEPAVidTypeInfo@@XZ 100a8f00 f   Trigger.obj
 0001:000a7f10       ?Save@idTrigger_Hurt@@QBEXPAVidSaveGame@@@Z 100a8f10 f   Trigger.obj
 0001:000a7f50       ?Restore@idTrigger_Hurt@@QAEXPAVidRestoreGame@@@Z 100a8f50 f   Trigger.obj
 0001:000a7f90       ?Spawn@idTrigger_Hurt@@QAEXXZ 100a8f90 f   Trigger.obj
 0001:000a7ff0       ?ReadFromSnapshot@idTrigger_Hurt@@UAEXABVidBitMsgDelta@@@Z 100a8ff0 f   Trigger.obj
 0001:000a7ff0       ?ReadFromSnapshot@idAFEntity_Generic@@UAEXABVidBitMsgDelta@@@Z 100a8ff0 f   AFEntity.obj
 0001:000a7ff0       ?ReadFromSnapshot@idAFEntity_WithAttachedHead@@UAEXABVidBitMsgDelta@@@Z 100a8ff0 f   AFEntity.obj
 0001:000a8020       ?Event_Toggle@idTrigger_Hurt@@AAEXPAVidEntity@@@Z 100a9020 f   Trigger.obj
 0001:000a8040       ?GetType@idTrigger_Fade@@UBEPAVidTypeInfo@@XZ 100a9040 f   Trigger.obj
 0001:000a8050       ?GetType@idTrigger_Touch@@UBEPAVidTypeInfo@@XZ 100a9050 f   Trigger.obj
 0001:000a8060       ?Save@idTrigger_Touch@@QAEXPAVidSaveGame@@@Z 100a9060 f   Trigger.obj
 0001:000a8080       ?Restore@idTrigger_Touch@@QAEXPAVidRestoreGame@@@Z 100a9080 f   Trigger.obj
 0001:000a80a0       ?Enable@idTrigger_Touch@@UAEXXZ 100a90a0 f   Trigger.obj
 0001:000a80b0       ?Disable@idTrigger_Touch@@UAEXXZ 100a90b0 f   Trigger.obj
 0001:000a80c0       ?CreateInstance@idTrigger@@SAPAVidClass@@XZ 100a90c0 f   Trigger.obj
 0001:000a8170       ?DrawDebugInfo@idTrigger@@SAXXZ 100a9170 f   Trigger.obj
 0001:000a8a30       ?Restore@idTrigger@@QAEXPAVidRestoreGame@@@Z 100a9a30 f   Trigger.obj
 0001:000a8b00       ?Spawn@idTrigger@@QAEXXZ   100a9b00 f   Trigger.obj
 0001:000a8c50       ??0idTrigger_Multi@@QAE@XZ 100a9c50 f   Trigger.obj
 0001:000a8cd0       ??1idTrigger_Multi@@UAE@XZ 100a9cd0 f i Trigger.obj
 0001:000a8d20       ?Save@idTrigger_Multi@@QBEXPAVidSaveGame@@@Z 100a9d20 f   Trigger.obj
 0001:000a8de0       ?CheckFacing@idTrigger_Multi@@AAE_NPAVidEntity@@@Z 100a9de0 f   Trigger.obj
 0001:000a8f40       ?Event_Trigger@idTrigger_Multi@@AAEXPAVidEntity@@@Z 100a9f40 f   Trigger.obj
 0001:000a9070       ?Event_Touch@idTrigger_Multi@@AAEXPAVidEntity@@PAUtrace_s@@@Z 100aa070 f   Trigger.obj
 0001:000a9200       ??0idTrigger_EntityName@@QAE@XZ 100aa200 f   Trigger.obj
 0001:000a9260       ??1idTrigger_EntityName@@UAE@XZ 100aa260 f i Trigger.obj
 0001:000a92b0       ?Save@idTrigger_EntityName@@QBEXPAVidSaveGame@@@Z 100aa2b0 f   Trigger.obj
 0001:000a9330       ?Spawn@idTrigger_EntityName@@QAEXXZ 100aa330 f   Trigger.obj
 0001:000a9550       ?Event_Trigger@idTrigger_EntityName@@AAEXPAVidEntity@@@Z 100aa550 f   Trigger.obj
 0001:000a9670       ?Event_Touch@idTrigger_EntityName@@AAEXPAVidEntity@@PAUtrace_s@@@Z 100aa670 f   Trigger.obj
 0001:000a9780       ??0idTrigger_Timer@@QAE@XZ 100aa780 f   Trigger.obj
 0001:000a97f0       ??1idTrigger_Timer@@UAE@XZ 100aa7f0 f i Trigger.obj
 0001:000a9850       ?Save@idTrigger_Timer@@QBEXPAVidSaveGame@@@Z 100aa850 f   Trigger.obj
 0001:000a98c0       ?Spawn@idTrigger_Timer@@QAEXXZ 100aa8c0 f   Trigger.obj
 0001:000a9a00       ?Event_Use@idTrigger_Timer@@AAEXPAVidEntity@@@Z 100aaa00 f   Trigger.obj
 0001:000a9aa0       ?CreateInstance@idTrigger_Count@@SAPAVidClass@@XZ 100aaaa0 f   Trigger.obj
 0001:000a9b60       ?Event_Trigger@idTrigger_Count@@AAEXPAVidEntity@@@Z 100aab60 f   Trigger.obj
 0001:000a9bf0       ?CreateInstance@idTrigger_Hurt@@SAPAVidClass@@XZ 100aabf0 f   Trigger.obj
 0001:000a9cb0       ?Event_Touch@idTrigger_Hurt@@AAEXPAVidEntity@@PAUtrace_s@@@Z 100aacb0 f   Trigger.obj
 0001:000a9d60       ?CreateInstance@idTrigger_Fade@@SAPAVidClass@@XZ 100aad60 f   Trigger.obj
 0001:000a9e10       ?Event_Trigger@idTrigger_Fade@@AAEXPAVidEntity@@@Z 100aae10 f   Trigger.obj
 0001:000a9ee0       ?CreateInstance@idTrigger_Touch@@SAPAVidClass@@XZ 100aaee0 f   Trigger.obj
 0001:000a9f90       ?Spawn@idTrigger_Touch@@QAEXXZ 100aaf90 f   Trigger.obj
 0001:000aa060       ?TouchEntities@idTrigger_Touch@@QAEXXZ 100ab060 f   Trigger.obj
 0001:000aa1b0       ?Think@idTrigger_Touch@@UAEXXZ 100ab1b0 f   Trigger.obj
 0001:000aa1d0       ?CreateInstance@idTrigger_Multi@@SAPAVidClass@@XZ 100ab1d0 f   Trigger.obj
 0001:000aa270       ??_GidTrigger_Multi@@UAEPAXI@Z 100ab270 f i Trigger.obj
 0001:000aa270       ??_EidTrigger_Multi@@UAEPAXI@Z 100ab270 f i Trigger.obj
 0001:000aa290       ?Spawn@idTrigger_Multi@@QAEXXZ 100ab290 f   Trigger.obj
 0001:000aa5b0       ?CreateInstance@idTrigger_EntityName@@SAPAVidClass@@XZ 100ab5b0 f   Trigger.obj
 0001:000aa650       ??_EidTrigger_EntityName@@UAEPAXI@Z 100ab650 f i Trigger.obj
 0001:000aa650       ??_GidTrigger_EntityName@@UAEPAXI@Z 100ab650 f i Trigger.obj
 0001:000aa670       ?CreateInstance@idTrigger_Timer@@SAPAVidClass@@XZ 100ab670 f   Trigger.obj
 0001:000aa710       ??_EidTrigger_Timer@@UAEPAXI@Z 100ab710 f i Trigger.obj
 0001:000aa710       ??_GidTrigger_Timer@@UAEPAXI@Z 100ab710 f i Trigger.obj
 0001:000aa730       ?ClientReceiveEvent@idTrigger_Fade@@UAE_NHHABVidBitMsg@@@Z 100ab730 f   Trigger.obj
 0001:000aa750       ?GetType@idWeapon@@UBEPAVidTypeInfo@@XZ 100ab750 f   Weapon.obj
 0001:000aa760       ?UpdateSkin@idWeapon@@QAE_NXZ 100ab760 f   Weapon.obj
 0001:000aa7d0       ?SetModel@idWeapon@@UAEXPBD@Z 100ab7d0 f   Weapon.obj
 0001:000aa870       ?SetPushVelocity@idWeapon@@QAEXABVidVec3@@@Z 100ab870 f   Weapon.obj
 0001:000aa8a0       ?LowerWeapon@idWeapon@@QAEXXZ 100ab8a0 f   Weapon.obj
 0001:000aa8f0       ?RaiseWeapon@idWeapon@@QAEXXZ 100ab8f0 f   Weapon.obj
 0001:000aa950       ?IsReady@idWeapon@@QBE_NXZ 100ab950 f   Weapon.obj
 0001:000aa990       ?IsReloading@idWeapon@@QBE_NXZ 100ab990 f   Weapon.obj
 0001:000aa9a0       ?IsHolstered@idWeapon@@QBE_NXZ 100ab9a0 f   Weapon.obj
 0001:000aa9b0       ?ConstructScriptObject@idWeapon@@UAEPAVidThread@@XZ 100ab9b0 f   Weapon.obj
 0001:000aaa20       ?DeconstructScriptObject@idWeapon@@UAEXXZ 100aba20 f   Weapon.obj
 0001:000aaa90       ?GetZoomFov@idWeapon@@QAEHXZ 100aba90 f   Weapon.obj
 0001:000aaaa0       ?GetWeaponAngleOffsets@idWeapon@@QAEXPAHPAM1@Z 100abaa0 f   Weapon.obj
 0001:000aaad0       ?GetWeaponTimeOffsets@idWeapon@@QAEXPAM0@Z 100abad0 f   Weapon.obj
 0001:000aaaf0       ?GetAmmoNumForName@idWeapon@@SAHPBD@Z 100abaf0 f   Weapon.obj
 0001:000aab80       ?AmmoAvailable@idWeapon@@QBEHXZ 100abb80 f   Weapon.obj
 0001:000aabb0       ?AmmoInClip@idWeapon@@QBEHXZ 100abbb0 f   Weapon.obj
 0001:000aabc0       ?ResetAmmoClip@idWeapon@@QAEXXZ 100abbc0 f   Weapon.obj
 0001:000aabd0       ?GetAmmoType@idWeapon@@QBEHXZ 100abbd0 f   Weapon.obj
 0001:000aabe0       ?ClipSize@idWeapon@@QBEHXZ 100abbe0 f   Weapon.obj
 0001:000aabf0       ?LowAmmo@idWeapon@@QBEHXZ  100abbf0 f   Weapon.obj
 0001:000aac00       ?Event_GetOwner@idWeapon@@AAEXXZ 100abc00 f   Weapon.obj
 0001:000aac10       ?Event_WeaponReloading@idWeapon@@AAEXXZ 100abc10 f   Weapon.obj
 0001:000aac20       ?Event_UseAmmo@idWeapon@@AAEXH@Z 100abc20 f   Weapon.obj
 0001:000aaca0       ?Event_AddToClip@idWeapon@@AAEXH@Z 100abca0 f   Weapon.obj
 0001:000aad00       ?Event_AmmoInClip@idWeapon@@AAEXXZ 100abd00 f   Weapon.obj
 0001:000aad20       ?Event_AmmoAvailable@idWeapon@@AAEXXZ 100abd20 f   Weapon.obj
 0001:000aad60       ?Event_TotalAmmoCount@idWeapon@@AAEXXZ 100abd60 f   Weapon.obj
 0001:000aad90       ?Event_ClipSize@idWeapon@@AAEXXZ 100abd90 f   Weapon.obj
 0001:000aadb0       ?Event_NetReload@idWeapon@@AAEXXZ 100abdb0 f   Weapon.obj
 0001:000aadd0       ?Event_NetEndReload@idWeapon@@AAEXXZ 100abdd0 f   Weapon.obj
 0001:000aadf0       ?Event_AnimDone@idWeapon@@AAEXHH@Z 100abdf0 f   Weapon.obj
 0001:000aae40       ?Event_SetBlendFrames@idWeapon@@AAEXHH@Z 100abe40 f   Weapon.obj
 0001:000aae50       ?Event_GetBlendFrames@idWeapon@@AAEXH@Z 100abe50 f   Weapon.obj
 0001:000aae60       ?Event_Next@idWeapon@@AAEXXZ 100abe60 f   Weapon.obj
 0001:000aae70       ?Event_GetLightParm@idWeapon@@AAEXH@Z 100abe70 f   Weapon.obj
 0001:000aaeb0       ?Event_SetLightParm@idWeapon@@AAEXHM@Z 100abeb0 f   Weapon.obj
 0001:000aaf00       ?Event_SetLightParms@idWeapon@@AAEXMMMM@Z 100abf00 f   Weapon.obj
 0001:000aaf50       ?Event_CreateProjectile@idWeapon@@AAEXXZ 100abf50 f   Weapon.obj
 0001:000aafe0       ?Event_AllowDrop@idWeapon@@AAEXH@Z 100abfe0 f   Weapon.obj
 0001:000ab000       ?Event_IsInvisible@idWeapon@@AAEXXZ 100ac000 f   Weapon.obj
 0001:000ab040       ?ClientPredictionThink@idWeapon@@UAEXXZ 100ac040 f   Weapon.obj
 0001:000ab050       ?Spawn@idWeapon@@QAEXXZ    100ac050 f   Weapon.obj
 0001:000ab140       ?SetOwner@idWeapon@@QAEXPAVidPlayer@@@Z 100ac140 f   Weapon.obj
 0001:000ab1e0       ?Save@idWeapon@@QBEXPAVidSaveGame@@@Z 100ac1e0 f   Weapon.obj
 0001:000ab6e0       ?Restore@idWeapon@@QAEXPAVidRestoreGame@@@Z 100ac6e0 f   Weapon.obj
 0001:000abe50       ?InitWorldModel@idWeapon@@AAEXPBVidDeclEntityDef@@@Z 100ace50 f   Weapon.obj
 0001:000ac040       ?Icon@idWeapon@@QBEPBDXZ   100ad040 f   Weapon.obj
 0001:000ac050       ?UpdateGUI@idWeapon@@QAEXXZ 100ad050 f   Weapon.obj
 0001:000ac250       ?GetGlobalJointTransform@idWeapon@@QAE_N_NW4jointHandle_t@@AAVidVec3@@AAVidMat3@@@Z 100ad250 f   Weapon.obj
 0001:000ac720       ?Raise@idWeapon@@QAEXXZ    100ad720 f   Weapon.obj
 0001:000ac740       ?PutAway@idWeapon@@QAEXXZ  100ad740 f   Weapon.obj
 0001:000ac770       ?Reload@idWeapon@@QAEXXZ   100ad770 f   Weapon.obj
 0001:000ac790       ?HideWeapon@idWeapon@@QAEXXZ 100ad790 f   Weapon.obj
 0001:000ac810       ?HideWorldModel@idWeapon@@QAEXXZ 100ad810 f   Weapon.obj
 0001:000ac870       ?ShowWorldModel@idWeapon@@QAEXXZ 100ad870 f   Weapon.obj
 0001:000ac8d0       ?BeginAttack@idWeapon@@QAEXXZ 100ad8d0 f   Weapon.obj
 0001:000ac930       ?EndAttack@idWeapon@@QAEXXZ 100ad930 f   Weapon.obj
 0001:000ac970       ?ShowCrosshair@idWeapon@@QBE_NXZ 100ad970 f   Weapon.obj
 0001:000acbd0       ?CanDrop@idWeapon@@QBE_NXZ 100adbd0 f   Weapon.obj
 0001:000acc20       ?DropItem@idWeapon@@QAEPAVidEntity@@ABVidVec3@@HH_N@Z 100adc20 f   Weapon.obj
 0001:000acd30       ?SetState@idWeapon@@QAEXPBDH@Z 100add30 f   Weapon.obj
 0001:000acde0       ?UpdateNozzleFx@idWeapon@@AAEXXZ 100adde0 f   Weapon.obj
 0001:000acf90       ?BloodSplat@idWeapon@@QAE_NM@Z 100adf90 f   Weapon.obj
 0001:000ad640       ?MuzzleRise@idWeapon@@AAEXAAVidVec3@@AAVidMat3@@@Z 100ae640 f   Weapon.obj
 0001:000ad870       ?UpdateScript@idWeapon@@QAEXXZ 100ae870 f   Weapon.obj
 0001:000ad910       ?AlertMonsters@idWeapon@@AAEXXZ 100ae910 f   Weapon.obj
 0001:000adfe0       ?EnterCinematic@idWeapon@@QAEXXZ 100aefe0 f   Weapon.obj
 0001:000ae0a0       ?ExitCinematic@idWeapon@@QAEXXZ 100af0a0 f   Weapon.obj
 0001:000ae0e0       ?NetCatchup@idWeapon@@QAEXXZ 100af0e0 f   Weapon.obj
 0001:000ae110       ?GetAmmoNameForNum@idWeapon@@SAPBDH@Z 100af110 f   Weapon.obj
 0001:000ae1b0       ?GetAmmoPickupNameForNum@idWeapon@@SAPBDH@Z 100af1b0 f   Weapon.obj
 0001:000ae260       ?WriteToSnapshot@idWeapon@@UBEXAAVidBitMsgDelta@@@Z 100af260 f   Weapon.obj
 0001:000ae2c0       ?ReadFromSnapshot@idWeapon@@UAEXABVidBitMsgDelta@@@Z 100af2c0 f   Weapon.obj
 0001:000ae3d0       ?ClientReceiveEvent@idWeapon@@UAE_NHHABVidBitMsg@@@Z 100af3d0 f   Weapon.obj
 0001:000ae520       ?Event_WeaponState@idWeapon@@AAEXPBDH@Z 100af520 f   Weapon.obj
 0001:000ae5a0       ?Event_WeaponReady@idWeapon@@AAEXXZ 100af5a0 f   Weapon.obj
 0001:000ae5e0       ?Event_WeaponOutOfAmmo@idWeapon@@AAEXXZ 100af5e0 f   Weapon.obj
 0001:000ae610       ?Event_WeaponHolstered@idWeapon@@AAEXXZ 100af610 f   Weapon.obj
 0001:000ae640       ?Event_WeaponRising@idWeapon@@AAEXXZ 100af640 f   Weapon.obj
 0001:000ae670       ?Event_WeaponLowering@idWeapon@@AAEXXZ 100af670 f   Weapon.obj
 0001:000ae6a0       ?Event_AutoReload@idWeapon@@AAEXXZ 100af6a0 f   Weapon.obj
 0001:000ae710       ?Event_PlayAnim@idWeapon@@AAEXHPBD@Z 100af710 f   Weapon.obj
 0001:000ae8d0       ?Event_PlayCycle@idWeapon@@AAEXHPBD@Z 100af8d0 f   Weapon.obj
 0001:000aea90       ?Event_SetSkin@idWeapon@@AAEXPBD@Z 100afa90 f   Weapon.obj
 0001:000aeb90       ?Event_Melee@idWeapon@@AAEXXZ 100afb90 f   Weapon.obj
 0001:000af390       ?Event_GetWorldModel@idWeapon@@AAEXXZ 100b0390 f   Weapon.obj
 0001:000af3d0       ?Event_EjectBrass@idWeapon@@AAEXXZ 100b03d0 f   Weapon.obj
 0001:000af670       ?CacheWeapon@idWeapon@@SAXPBD@Z 100b0670 f   Weapon.obj
 0001:000af790       ?Clear@idWeapon@@QAEXXZ    100b0790 f   Weapon.obj
 0001:000afda0       ?GetWeaponDef@idWeapon@@QAEXPBDH@Z 100b0da0 f   Weapon.obj
 0001:000b0d90       ?UpdateFlashPosition@idWeapon@@AAEXXZ 100b1d90 f   Weapon.obj
 0001:000b0f10       ?MuzzleFlashLight@idWeapon@@AAEXXZ 100b1f10 f   Weapon.obj
 0001:000b1020       ?OwnerDied@idWeapon@@QAEXXZ 100b2020 f   Weapon.obj
 0001:000b10b0       ?WeaponStolen@idWeapon@@QAEXXZ 100b20b0 f   Weapon.obj
 0001:000b1100       ?PresentWeapon@idWeapon@@QAEX_N@Z 100b2100 f   Weapon.obj
 0001:000b1700       ?Event_Clear@idWeapon@@AAEXXZ 100b2700 f   Weapon.obj
 0001:000b1710       ?Event_Flashlight@idWeapon@@AAEXH@Z 100b2710 f   Weapon.obj
 0001:000b1740       ?Event_LaunchProjectiles@idWeapon@@AAEXHMMMM@Z 100b2740 f   Weapon.obj
 0001:000b25e0       ??0idWeapon@@QAE@XZ        100b35e0 f   Weapon.obj
 0001:000b2990       ??1idWeapon@@UAE@XZ        100b3990 f   Weapon.obj
 0001:000b2ae0       ?CreateInstance@idWeapon@@SAPAVidClass@@XZ 100b3ae0 f   Weapon.obj
 0001:000b2b80       ??_GidWeapon@@UAEPAXI@Z    100b3b80 f i Weapon.obj
 0001:000b2b80       ??_EidWeapon@@UAEPAXI@Z    100b3b80 f i Weapon.obj
 0001:000b2ba0       ?GetType@idWorldspawn@@UBEPAVidTypeInfo@@XZ 100b3ba0 f   WorldSpawn.obj
 0001:000b2bb0       ?Event_Remove@idWorldspawn@@AAEXXZ 100b3bb0 f   WorldSpawn.obj
 0001:000b2bd0       ?CreateInstance@idWorldspawn@@SAPAVidClass@@XZ 100b3bd0 f   WorldSpawn.obj
 0001:000b2c80       ??_EidWorldspawn@@UAEPAXI@Z 100b3c80 f i WorldSpawn.obj
 0001:000b2c80       ??_GidWorldspawn@@UAEPAXI@Z 100b3c80 f i WorldSpawn.obj
 0001:000b2cc0       ?Spawn@idWorldspawn@@QAEXXZ 100b3cc0 f   WorldSpawn.obj
 0001:000b2ee0       ?Restore@idWorldspawn@@QAEXPAVidRestoreGame@@@Z 100b3ee0 f   WorldSpawn.obj
 0001:000b2f80       ??1idAAS@@UAE@XZ           100b3f80 f   AAS.obj
 0001:000b2f90       ?Shutdown@idAASLocal@@UAEXXZ 100b3f90 f   AAS.obj
 0001:000b2fd0       ?PointAreaNum@idAASLocal@@UBEHABVidVec3@@@Z 100b3fd0 f   AAS.obj
 0001:000b2ff0       ?PointReachableAreaNum@idAASLocal@@UBEHABVidVec3@@ABVidBounds@@H@Z 100b3ff0 f   AAS.obj
 0001:000b3020       ?BoundsReachableAreaNum@idAASLocal@@UBEHABVidBounds@@H@Z 100b4020 f   AAS.obj
 0001:000b3050       ?PushPointIntoAreaNum@idAASLocal@@UBEXHAAVidVec3@@@Z 100b4050 f   AAS.obj
 0001:000b3070       ?Trace@idAASLocal@@UBE_NAAUaasTrace_s@@ABVidVec3@@1@Z 100b4070 f   AAS.obj
 0001:000b30a0       ?Init@idAASLocal@@UAE_NABVidStr@@I@Z 100b40a0 f   AAS.obj
 0001:000b3150       ?Stats@idAASLocal@@UBEXXZ  100b4150 f   AAS.obj
 0001:000b3190       ?GetSettings@idAASLocal@@UBEPBVidAASSettings@@XZ 100b4190 f   AAS.obj
 0001:000b31a0       ?AreaCenter@idAASLocal@@UBE?AVidVec3@@H@Z 100b41a0 f   AAS.obj
 0001:000b31f0       ?AreaFlags@idAASLocal@@UBEHH@Z 100b41f0 f   AAS.obj
 0001:000b3210       ?AreaTravelFlags@idAASLocal@@UBEHH@Z 100b4210 f   AAS.obj
 0001:000b3230       ?GetPlane@idAASLocal@@UBEABVidPlane@@H@Z 100b4230 f   AAS.obj
 0001:000b3260       ?GetEdgeVertexNumbers@idAASLocal@@UBEXHQAH@Z 100b4260 f   AAS.obj
 0001:000b32b0       ?GetEdge@idAASLocal@@UBEXHAAVidVec3@@0@Z 100b42b0 f   AAS.obj
 0001:000b3340       ??0idAASLocal@@QAE@XZ      100b4340 f   AAS.obj
 0001:000b33a0       ??1idAASLocal@@UAE@XZ      100b43a0 f   AAS.obj
 0001:000b3440       ?Alloc@idAAS@@SAPAV1@XZ    100b4440 f   AAS.obj
 0001:000b34a0       ??_EidAASLocal@@UAEPAXI@Z  100b44a0 f i AAS.obj
 0001:000b34a0       ??_GidAASLocal@@UAEPAXI@Z  100b44a0 f i AAS.obj
 0001:000b34c0       ?DrawCone@idAASLocal@@ABEXABVidVec3@@0MABVidVec4@@@Z 100b44c0 f   AAS_debug.obj
 0001:000b38e0       ?DrawReachability@idAASLocal@@ABEXPBVidReachability@@@Z 100b48e0 f   AAS_debug.obj
 0001:000b39c0       ?DrawEdge@idAASLocal@@ABEXH_N@Z 100b49c0 f   AAS_debug.obj
 0001:000b3b30       ?DrawFace@idAASLocal@@ABEXH_N@Z 100b4b30 f   AAS_debug.obj
 0001:000b3da0       ?DrawArea@idAASLocal@@ABEXH@Z 100b4da0 f   AAS_debug.obj
 0001:000b3e20       ?ShowArea@idAASLocal@@ABEXABVidVec3@@@Z 100b4e20 f   AAS_debug.obj
 0001:000b4050       ?ShowFlyPath@idAASLocal@@UBEXABVidVec3@@H0@Z 100b5050 f   AAS_debug.obj
 0001:000b41a0       ?ShowWallEdges@idAASLocal@@ABEXABVidVec3@@@Z 100b51a0 f   AAS_debug.obj
 0001:000b43a0       ?PullPlayer@idAASLocal@@ABE_NABVidVec3@@H@Z 100b53a0 f   AAS_debug.obj
 0001:000b4810       ?RandomPullPlayer@idAASLocal@@ABEXABVidVec3@@@Z 100b5810 f   AAS_debug.obj
 0001:000b4900       ?ShowPushIntoArea@idAASLocal@@ABEXABVidVec3@@@Z 100b5900 f   AAS_debug.obj
 0001:000b4970       ?ShowWalkPath@idAASLocal@@UBEXABVidVec3@@H0@Z 100b5970 f   AAS_debug.obj
 0001:000b4ac0       ?ShowHideArea@idAASLocal@@ABEXABVidVec3@@H@Z 100b5ac0 f   AAS_debug.obj
 0001:000b4ca0       ?Test@idAASLocal@@UAEXABVidVec3@@@Z 100b5ca0 f   AAS_debug.obj
 0001:000b4de0       ?SortWallEdges@idAASLocal@@UBEXPAHH@Z 100b5de0 f   AAS_pathing.obj
 0001:000b4fa0       ?EdgeSplitPoint@idAASLocal@@ABE_NAAVidVec3@@HABVidPlane@@@Z 100b5fa0 f   AAS_pathing.obj
 0001:000b5100       ?FloorEdgeSplitPoint@idAASLocal@@ABE_NAAVidVec3@@HABVidPlane@@1_N@Z 100b6100 f   AAS_pathing.obj
 0001:000b52b0       ?FlyPathValid@idAASLocal@@UBE_NHABVidVec3@@H0HAAV2@AAH@Z 100b62b0 f   AAS_pathing.obj
 0001:000b5350       ?FlyPathToGoal@idAASLocal@@UBE_NAAUaasPath_s@@HABVidVec3@@H1H@Z 100b6350 f   AAS_pathing.obj
 0001:000b55f0       ?GetWallEdges@idAASLocal@@UBEHHABVidBounds@@HPAHH@Z 100b65f0 f   AAS_pathing.obj
 0001:000b5900       ?WalkPathValid@idAASLocal@@UBE_NHABVidVec3@@H0HAAV2@AAH@Z 100b6900 f   AAS_pathing.obj
 0001:000b63b0       ?SubSampleWalkPath@idAASLocal@@ABE?AVidVec3@@HABV2@00HAAH@Z 100b73b0 f   AAS_pathing.obj
 0001:000b65e0       ?WalkPathToGoal@idAASLocal@@UBE_NAAUaasPath_s@@HABVidVec3@@H1H@Z 100b75e0 f   AAS_pathing.obj
 0001:000b6910       ??0idRoutingCache@@QAE@H@Z 100b7910 f   AAS_routing.obj
 0001:000b6980       ?RoutingStats@idAASLocal@@ABEXXZ 100b7980 f   AAS_routing.obj
 0001:000b6a60       ?UnlinkCache@idAASLocal@@ABEXPAVidRoutingCache@@@Z 100b7a60 f   AAS_routing.obj
 0001:000b6ac0       ?TravelTimeToGoalArea@idAASLocal@@UBEHHABVidVec3@@HH@Z 100b7ac0 f   AAS_routing.obj
 0001:000b6b20       ?AreaTravelTime@idAASLocal@@ABEGHABVidVec3@@0@Z 100b7b20 f   AAS_routing.obj
 0001:000b6c40       ?CalculateAreaTravelTimes@idAASLocal@@AAEXXZ 100b7c40 f   AAS_routing.obj
 0001:000b6e00       ?SetupRoutingCache@idAASLocal@@AAEXXZ 100b7e00 f   AAS_routing.obj
 0001:000b6f10       ?DeleteClusterCache@idAASLocal@@AAEXH@Z 100b7f10 f   AAS_routing.obj
 0001:000b6ff0       ?DeletePortalCache@idAASLocal@@AAEXXZ 100b7ff0 f   AAS_routing.obj
 0001:000b70b0       ?ShutdownRoutingCache@idAASLocal@@AAEXXZ 100b80b0 f   AAS_routing.obj
 0001:000b7140       ?SetupRouting@idAASLocal@@AAE_NXZ 100b8140 f   AAS_routing.obj
 0001:000b7160       ?ShutdownRouting@idAASLocal@@AAEXXZ 100b8160 f   AAS_routing.obj
 0001:000b7180       ?RemoveRoutingCacheUsingArea@idAASLocal@@AAEXH@Z 100b8180 f   AAS_routing.obj
 0001:000b71f0       ?DisableArea@idAASLocal@@AAEXH@Z 100b81f0 f   AAS_routing.obj
 0001:000b7220       ?EnableArea@idAASLocal@@AAEXH@Z 100b8220 f   AAS_routing.obj
 0001:000b7250       ?SetAreaState_r@idAASLocal@@AAE_NHABVidBounds@@H_N@Z 100b8250 f   AAS_routing.obj
 0001:000b7320       ?SetAreaState@idAASLocal@@UAE_NABVidBounds@@H_N@Z 100b8320 f   AAS_routing.obj
 0001:000b73d0       ?SetObstacleState@idAASLocal@@AAEXPBVidRoutingObstacle@@_N@Z 100b83d0 f   AAS_routing.obj
 0001:000b7500       ?GetAreaReachability@idAASLocal@@ABEPAVidReachability@@HH@Z 100b8500 f   AAS_routing.obj
 0001:000b7540       ?UpdateAreaRoutingCache@idAASLocal@@ABEXPAVidRoutingCache@@@Z 100b8540 f   AAS_routing.obj
 0001:000b77e0       ?GetAreaRoutingCache@idAASLocal@@ABEPAVidRoutingCache@@HHH@Z 100b87e0 f   AAS_routing.obj
 0001:000b7990       ?UpdatePortalRoutingCache@idAASLocal@@ABEXPAVidRoutingCache@@@Z 100b8990 f   AAS_routing.obj
 0001:000b7ba0       ?GetPortalRoutingCache@idAASLocal@@ABEPAVidRoutingCache@@HHH@Z 100b8ba0 f   AAS_routing.obj
 0001:000b7d00       ?FindNearestGoal@idAASLocal@@UBE_NAAUaasGoal_s@@HVidVec3@@ABV3@HPAUaasObstacle_s@@HAAVidAASCallback@@@Z 100b8d00 f   AAS_routing.obj
 0001:000b87b0       ?GetBoundsAreas_r@idAASLocal@@ABEXHABVidBounds@@AAV?$idList@H@@@Z 100b97b0 f   AAS_routing.obj
 0001:000b8950       ?AddObstacle@idAASLocal@@UAEHABVidBounds@@@Z 100b9950 f   AAS_routing.obj
 0001:000b8b70       ?DeleteOldestCache@idAASLocal@@ABEXXZ 100b9b70 f   AAS_routing.obj
 0001:000b8c30       ?RouteToGoalArea@idAASLocal@@UBE_NHVidVec3@@HHAAHPAPAVidReachability@@@Z 100b9c30 f   AAS_routing.obj
 0001:000b9080       ?RemoveAllObstacles@idAASLocal@@UAEXXZ 100ba080 f   AAS_routing.obj
 0001:000b9100       ?RemoveObstacle@idAASLocal@@UAEXH@Z 100ba100 f   AAS_routing.obj
 0001:000b91a0       ??_EidAASFindAreaOutOfRange@@UAEPAXI@Z 100ba1a0 f i AI.obj
 0001:000b91a0       ??_GidAASCallback@@UAEPAXI@Z 100ba1a0 f i AI.obj
 0001:000b91a0       ??_EidAASCallback@@UAEPAXI@Z 100ba1a0 f i AI.obj
 0001:000b91a0       ??_GidAASFindAreaOutOfRange@@UAEPAXI@Z 100ba1a0 f i AI.obj
 0001:000b91c0       ??0particleEmitter_s@@QAE@XZ 100ba1c0 f i AI.obj
 0001:000b91e0       ??1idAASFindCover@@UAE@XZ  100ba1e0 f   AI.obj
 0001:000b9240       ??1idAASCallback@@UAE@XZ   100ba240 f i AI.obj
 0001:000b9240       ??1idAASFindAreaOutOfRange@@UAE@XZ 100ba240 f i AI.obj
 0001:000b9250       ??1idAASFindAttackPosition@@UAE@XZ 100ba250 f   AI.obj
 0001:000b92b0       ??1idPhysics_Monster@@UAE@XZ 100ba2b0 f i AI.obj
 0001:000b92b0       ??1idPhysics_Player@@UAE@XZ 100ba2b0 f i Player.obj
 0001:000b92c0       ?DrawRoute@idAI@@IBEXXZ    100ba2c0 f   AI.obj
 0001:000b9340       ?PathToGoal@idAI@@IBE_NAAUaasPath_s@@HABVidVec3@@H1@Z 100ba340 f   AI.obj
 0001:000b9440       ?MoveDone@idAI@@IBE_NXZ    100ba440 f   AI.obj
 0001:000b9450       ?FacingIdeal@idAI@@IAE_NXZ 100ba450 f   AI.obj
 0001:000b9540       ?TurnToward@idAI@@IAE_NM@Z 100ba540 f   AI.obj
 0001:000b95f0       ?ApplyImpulse@idAI@@MAEXPAVidEntity@@HABVidVec3@@1@Z 100ba5f0 f   AI.obj
 0001:000b9610       ?Seek@@YA?AVidVec3@@AAV1@ABV1@1M@Z 100ba610 f   AI.obj
 0001:000b96d0       ?FlySeekGoal@idAI@@IAEXAAVidVec3@@0@Z 100ba6d0 f   AI.obj
 0001:000b9770       ?AdjustFlySpeed@idAI@@IAEXAAVidVec3@@@Z 100ba770 f   AI.obj
 0001:000b9950       ?ReactionTo@idAI@@IAEHPBVidEntity@@@Z 100ba950 f   AI.obj
 0001:000b9a00       ?BeginAttack@idAI@@IAEXPBD@Z 100baa00 f   AI.obj
 0001:000b9a30       ?EndAttack@idAI@@IAEXXZ    100baa30 f   AI.obj
 0001:000b9a50       ?UpdateMuzzleFlash@idAI@@IAEXXZ 100baa50 f   AI.obj
 0001:000b9c50       ?GetType@idCombatNode@@UBEPAVidTypeInfo@@XZ 100bac50 f   AI.obj
 0001:000b9c60       ??0idCombatNode@@QAE@XZ    100bac60 f   AI.obj
 0001:000b9cd0       ?Save@idCombatNode@@QBEXPAVidSaveGame@@@Z 100bacd0 f   AI.obj
 0001:000b9d70       ?Restore@idCombatNode@@QAEXPAVidRestoreGame@@@Z 100bad70 f   AI.obj
 0001:000b9e00       ?IsDisabled@idCombatNode@@QBE_NXZ 100bae00 f   AI.obj
 0001:000b9e10       ?Event_Activate@idCombatNode@@AAEXPAVidEntity@@@Z 100bae10 f   AI.obj
 0001:000b9e30       ??0idMoveState@@QAE@XZ     100bae30 f   AI.obj
 0001:000b9ea0       ?Save@idMoveState@@QBEXPAVidSaveGame@@@Z 100baea0 f   AI.obj
 0001:000b9f90       ?Restore@idMoveState@@QAEXPAVidRestoreGame@@@Z 100baf90 f   AI.obj
 0001:000ba070       ??0idAASFindCover@@QAE@ABVidVec3@@@Z 100bb070 f   AI.obj
 0001:000ba160       ??_GidAASFindCover@@UAEPAXI@Z 100bb160 f i AI.obj
 0001:000ba160       ??_EidAASFindCover@@UAEPAXI@Z 100bb160 f i AI.obj
 0001:000ba180       ?TestArea@idAASFindCover@@UAE_NPBVidAAS@@H@Z 100bb180 f   AI.obj
 0001:000ba270       ??0idAASFindAttackPosition@@QAE@PBVidAI@@ABVidMat3@@PAVidEntity@@ABVidVec3@@3@Z 100bb270 f   AI.obj
 0001:000ba440       ??_EidAASFindAttackPosition@@UAEPAXI@Z 100bb440 f i AI.obj
 0001:000ba440       ??_GidAASFindAttackPosition@@UAEPAXI@Z 100bb440 f i AI.obj
 0001:000ba460       ?InitMuzzleFlash@idAI@@IAEXXZ 100bb460 f   AI.obj
 0001:000ba5a0       ?List_f@idAI@@SAXABVidCmdArgs@@@Z 100bb5a0 f   AI.obj
 0001:000ba670       ?DormantBegin@idAI@@MAEXXZ 100bb670 f   AI.obj
 0001:000ba6e0       ?ClientReceiveEvent@idAI@@UAE_NHHABVidBitMsg@@@Z 100bb6e0 f   AI.obj
 0001:000ba790       ?WriteToSnapshot@idAI@@UBEXAAVidBitMsgDelta@@@Z 100bb790 f   AI.obj
 0001:000ba860       ?ReadFromSnapshot@idAI@@UAEXABVidBitMsgDelta@@@Z 100bb860 f   AI.obj
 0001:000ba960       ?LinkScriptVariables@idAI@@IAEXXZ 100bb960 f   AI.obj
 0001:000bad00       ?UpdateAIScript@idAI@@IAEXXZ 100bbd00 f   AI.obj
 0001:000bad40       ?KickObstacles@idAI@@IAEXABVidVec3@@MPAVidEntity@@@Z 100bbd40 f   AI.obj
 0001:000bb390       ?ValidForBounds@@YA_NPBVidAASSettings@@ABVidBounds@@@Z 100bc390 f   AI.obj
 0001:000bb3e0       ?ReachedPos@idAI@@IBE_NABVidVec3@@W4moveCommand_t@@@Z 100bc3e0 f   AI.obj
 0001:000bb5f0       ?PointReachableAreaNum@idAI@@IBEHABVidVec3@@M@Z 100bc5f0 f   AI.obj
 0001:000bb6d0       ?TravelDistance@idAI@@IBEMABVidVec3@@0@Z 100bc6d0 f   AI.obj
 0001:000bba90       ?StopMove@idAI@@IAEXW4moveStatus_t@@@Z 100bca90 f   AI.obj
 0001:000bbb80       ?DirectMoveToPosition@idAI@@IAE_NABVidVec3@@@Z 100bcb80 f   AI.obj
 0001:000bbd60       ?MoveToEnemyHeight@idAI@@IAE_NXZ 100bcd60 f   AI.obj
 0001:000bbe50       ?MoveToAttackPosition@idAI@@IAE_NPAVidEntity@@H@Z 100bce50 f   AI.obj
 0001:000bc110       ?MoveToCover@idAI@@IAE_NPAVidEntity@@ABVidVec3@@@Z 100bd110 f   AI.obj
 0001:000bc360       ?SlideToPosition@idAI@@IAE_NABVidVec3@@M@Z 100bd360 f   AI.obj
 0001:000bc540       ?StepDirection@idAI@@IAE_NM@Z 100bd540 f   AI.obj
 0001:000bc8e0       ?NewWanderDir@idAI@@IAE_NABVidVec3@@@Z 100bd8e0 f   AI.obj
 0001:000bcdb0       ?BlockedFailSafe@idAI@@IAEXXZ 100bddb0 f   AI.obj
 0001:000bcf20       ?Turn@idAI@@IAEXXZ         100bdf20 f   AI.obj
 0001:000bd610       ?TurnToward@idAI@@IAE_NABVidVec3@@@Z 100be610 f   AI.obj
 0001:000bd7c0       ?GetMoveDelta@idAI@@IAEXABVidMat3@@0AAVidVec3@@@Z 100be7c0 f   AI.obj
 0001:000bda10       ?CheckObstacleAvoidance@idAI@@IAEXABVidVec3@@AAV2@@Z 100bea10 f   AI.obj
 0001:000bdfa0       ?DeadMove@idAI@@IAEXXZ     100befa0 f   AI.obj
 0001:000be010       ?AdjustFlyingAngles@idAI@@IAEXXZ 100bf010 f   AI.obj
 0001:000be300       ?AddFlyBob@idAI@@IAEXAAVidVec3@@@Z 100bf300 f   AI.obj
 0001:000be6d0       ?FlyTurn@idAI@@IAEXXZ      100bf6d0 f   AI.obj
 0001:000be7d0       ?SpawnParticlesOnJoint@idAI@@IAEPBVidDeclParticle@@AAUparticleEmitter_s@@PBD1@Z 100bf7d0 f   AI.obj
 0001:000be9b0       ?PlayCinematic@idAI@@IAEXXZ 100bf9b0 f   AI.obj
 0001:000becb0       ?TalkTo@idAI@@QAEXPAVidActor@@@Z 100bfcb0 f   AI.obj
 0001:000bed00       ?GetEnemy@idAI@@QBEPAVidActor@@XZ 100bfd00 f   AI.obj
 0001:000bed30       ?GetTalkState@idAI@@QBE?AW4talkState_t@@XZ 100bfd30 f   AI.obj
 0001:000bed70       ?SetEnemyPosition@idAI@@IAEXXZ 100bfd70 f   AI.obj
 0001:000bf0d0       ?UpdateEnemyPosition@idAI@@IAEXXZ 100c00d0 f   AI.obj
 0001:000bf360       ?CreateProjectileClipModel@idAI@@IBEXXZ 100c0360 f   AI.obj
 0001:000bf470       ?GetAimDir@idAI@@QBE_NABVidVec3@@PAVidEntity@@PBV3@AAV2@@Z 100c0470 f   AI.obj
 0001:000bf860       ?CreateProjectile@idAI@@IAEPAVidProjectile@@ABVidVec3@@0@Z 100c0860 f   AI.obj
 0001:000bf9a0       ?RemoveProjectile@idAI@@IAEXXZ 100c09a0 f   AI.obj
 0001:000bfa10       ?DamageFeedback@idAI@@MAEXPAVidEntity@@0AAH@Z 100c0a10 f   AI.obj
 0001:000bfa90       ?DirectDamage@idAI@@IAEXPBDPAVidEntity@@@Z 100c0a90 f   AI.obj
 0001:000bfce0       ?PushWithAF@idAI@@IAEXXZ   100c0ce0 f   AI.obj
 0001:000bff20       ?GetMuzzle@idAI@@IAEXPBDAAVidVec3@@AAVidMat3@@@Z 100c0f20 f   AI.obj
 0001:000c00f0       ?TriggerWeaponEffects@idAI@@IAEXABVidVec3@@@Z 100c10f0 f   AI.obj
 0001:000c0200       ?SetChatSound@idAI@@IAEXXZ 100c1200 f   AI.obj
 0001:000c0470       ?CanPlayChatterSounds@idAI@@MBE_NXZ 100c1470 f   AI.obj
 0001:000c0500       ?PlayChatter@idAI@@IAEXXZ  100c1500 f   AI.obj
 0001:000c05a0       ?UpdateParticles@idAI@@IAEXXZ 100c15a0 f   AI.obj
 0001:000c0a20       ?TriggerParticles@idAI@@IAEXPBD@Z 100c1a20 f   AI.obj
 0001:000c0a90       ?UpdateAnimationControllers@idAI@@MAE_NXZ 100c1a90 f   AI.obj
 0001:000c2280       ?CreateInstance@idCombatNode@@SAPAVidClass@@XZ 100c3280 f   AI.obj
 0001:000c2320       ?Spawn@idCombatNode@@QAEXXZ 100c3320 f   AI.obj
 0001:000c2540       ?EntityInView@idCombatNode@@QAE_NPAVidActor@@ABVidVec3@@@Z 100c3540 f   AI.obj
 0001:000c2700       ?Event_MarkUsed@idCombatNode@@AAEXXZ 100c3700 f   AI.obj
 0001:000c2740       ?TestArea@idAASFindAttackPosition@@UAE_NPBVidAAS@@H@Z 100c3740 f   AI.obj
 0001:000c2ad0       ??0idAI@@QAE@XZ            100c3ad0 f   AI.obj
 0001:000c2f80       ??1idAI@@UAE@XZ            100c3f80 f   AI.obj
 0001:000c30e0       ?Save@idAI@@QBEXPAVidSaveGame@@@Z 100c40e0 f   AI.obj
 0001:000c37b0       ?DormantEnd@idAI@@MAEXXZ   100c47b0 f   AI.obj
 0001:000c3880       ?SetAAS@idAI@@IAEXXZ       100c4880 f   AI.obj
 0001:000c39e0       ?FaceEnemy@idAI@@IAE_NXZ   100c49e0 f   AI.obj
 0001:000c3ad0       ?FaceEntity@idAI@@IAE_NPAVidEntity@@@Z 100c4ad0 f   AI.obj
 0001:000c3bd0       ?MoveToEnemy@idAI@@IAE_NXZ 100c4bd0 f   AI.obj
 0001:000c3e40       ?MoveToEntity@idAI@@IAE_NPAVidEntity@@@Z 100c4e40 f   AI.obj
 0001:000c4130       ?MoveOutOfRange@idAI@@IAE_NPAVidEntity@@M@Z 100c5130 f   AI.obj
 0001:000c43f0       ?MoveToPosition@idAI@@IAE_NABVidVec3@@@Z 100c53f0 f   AI.obj
 0001:000c45a0       ?WanderAround@idAI@@IAE_NXZ 100c55a0 f   AI.obj
 0001:000c4710       ?GetMovePos@idAI@@IAE_NAAVidVec3@@@Z 100c5710 f   AI.obj
 0001:000c4b60       ?EntityCanSeePos@idAI@@IAE_NPAVidActor@@ABVidVec3@@1@Z 100c5b60 f   AI.obj
 0001:000c4d40       ?AdjustFlyHeight@idAI@@IAEXAAVidVec3@@ABV2@@Z 100c5d40 f   AI.obj
 0001:000c4f60       ?SpawnParticles@idAI@@IAEXPBD@Z 100c5f60 f   AI.obj
 0001:000c53e0       ?ClearEnemy@idAI@@IAEXXZ   100c63e0 f   AI.obj
 0001:000c5460       ?EnemyPositionValid@idAI@@IBE_NXZ 100c6460 f   AI.obj
 0001:000c5530       ?CalculateAttackOffsets@idAI@@IAEXXZ 100c6530 f   AI.obj
 0001:000c5830       ?LaunchProjectile@idAI@@IAEPAVidProjectile@@PBDPAVidEntity@@_N@Z 100c6830 f   AI.obj
 0001:000c65b0       ?TestMelee@idAI@@IBE_NXZ   100c75b0 f   AI.obj
 0001:000c6880       ?AttackMelee@idAI@@IAE_NPBD@Z 100c7880 f   AI.obj
 0001:000c6b90       ?Hide@idAI@@MAEXXZ         100c7b90 f   AI.obj
 0001:000c6c10       ?Show@idAI@@MAEXXZ         100c7c10 f   AI.obj
 0001:000c6cf0       ?DrawDebugInfo@idCombatNode@@SAXXZ 100c7cf0 f   AI.obj
 0001:000c72e0       ?TestArea@idAASFindAreaOutOfRange@@UAE_NPBVidAAS@@H@Z 100c82e0 f   AI.obj
 0001:000c73c0       ??_GidAI_Vagary@@UAEPAXI@Z 100c83c0 f i AI_Vagary.obj
 0001:000c73c0       ??_EidAI_Vagary@@UAEPAXI@Z 100c83c0 f i AI_Vagary.obj
 0001:000c73c0       ??_EidAI@@UAEPAXI@Z        100c83c0 f i AI.obj
 0001:000c73c0       ??_GidAI@@UAEPAXI@Z        100c83c0 f i AI.obj
 0001:000c73e0       ?Restore@idAI@@QAEXPAVidRestoreGame@@@Z 100c83e0 f   AI.obj
 0001:000c80a0       ?Spawn@idAI@@QAEXXZ        100c90a0 f   AI.obj
 0001:000c9440       ?AnimMove@idAI@@IAEXXZ     100ca440 f   AI.obj
 0001:000c9bb0       ?SlideMove@idAI@@IAEXXZ    100cabb0 f   AI.obj
 0001:000ca4d0       ?FlyMove@idAI@@IAEXXZ      100cb4d0 f   AI.obj
 0001:000cab40       ?StaticMove@idAI@@IAEXXZ   100cbb40 f   AI.obj
 0001:000cae20       ?Killed@idAI@@MAEXPAVidEntity@@0HABVidVec3@@H@Z 100cbe20 f   AI.obj
 0001:000cb4e0       ?SetEnemy@idAI@@IAEXPAVidActor@@@Z 100cc4e0 f   AI.obj
 0001:000cb650       ?Think@idAI@@MAEXXZ        100cc650 f   AI.obj
 0001:000cb9b0       ?ClientPredictionThink@idAI@@UAEXXZ 100cc9b0 f   AI.obj
 0001:000cbc60       ?Pain@idAI@@MAE_NPAVidEntity@@0HABVidVec3@@H@Z 100ccc60 f   AI.obj
 0001:000cbda0       ?Activate@idAI@@IAEXPAVidEntity@@@Z 100ccda0 f   AI.obj
 0001:000cbfa0       ?TouchedByFlashlight@idAI@@QAEXPAVidActor@@@Z 100ccfa0 f   AI.obj
 0001:000cbfc0       ?CreateInstance@idAI@@SAPAVidClass@@XZ 100ccfc0 f   AI_events.obj
 0001:000cc060       ?GetType@idAI@@UBEPAVidTypeInfo@@XZ 100cd060 f   AI_events.obj
 0001:000cc070       ?Event_Activate@idAI@@IAEXPAVidEntity@@@Z 100cd070 f   AI_events.obj
 0001:000cc0a0       ?Event_FindEnemy@idAI@@IAEXH@Z 100cd0a0 f   AI_events.obj
 0001:000cc140       ?Event_ClearEnemy@idAI@@IAEXXZ 100cd140 f   AI_events.obj
 0001:000cc150       ?Event_FireMissileAtTarget@idAI@@IAEXPBD0@Z 100cd150 f   AI_events.obj
 0001:000cc1b0       ?Event_AttackMelee@idAI@@IAEXPBD@Z 100cd1b0 f   AI_events.obj
 0001:000cc1e0       ?Event_DirectDamage@idAI@@IAEXPAVidEntity@@PBD@Z 100cd1e0 f   AI_events.obj
 0001:000cc200       ?Event_BeginAttack@idAI@@IAEXPBD@Z 100cd200 f   AI_events.obj
 0001:000cc210       ?Event_EndAttack@idAI@@IAEXXZ 100cd210 f   AI_events.obj
 0001:000cc220       ?Event_CanBecomeSolid@idAI@@IAEXXZ 100cd220 f   AI_events.obj
 0001:000cc2d0       ?Event_BecomeNonSolid@idAI@@IAEXXZ 100cd2d0 f   AI_events.obj
 0001:000cc310       ?Event_BecomeRagdoll@idAI@@IAEXXZ 100cd310 f   AI_events.obj
 0001:000cc350       ?Event_StopRagdoll@idAI@@IAEXXZ 100cd350 f   AI_events.obj
 0001:000cc390       ?Event_GetHealth@idAI@@IAEXXZ 100cd390 f   AI_events.obj
 0001:000cc3b0       ?Event_AllowDamage@idAI@@IAEXXZ 100cd3b0 f   AI_events.obj
 0001:000cc3c0       ?Event_IgnoreDamage@idAI@@IAEXXZ 100cd3c0 f   AI_events.obj
 0001:000cc3d0       ?Event_GetCurrentYaw@idAI@@IAEXXZ 100cd3d0 f   AI_events.obj
 0001:000cc3f0       ?Event_TurnTo@idAI@@IAEXM@Z 100cd3f0 f   AI_events.obj
 0001:000cc400       ?Event_TurnToPos@idAI@@IAEXABVidVec3@@@Z 100cd400 f   AI_events.obj
 0001:000cc410       ?Event_TurnToEntity@idAI@@IAEXPAVidEntity@@@Z 100cd410 f   AI_events.obj
 0001:000cc440       ?Event_MoveStatus@idAI@@IAEXXZ 100cd440 f   AI_events.obj
 0001:000cc450       ?Event_StopMove@idAI@@IAEXXZ 100cd450 f   AI_events.obj
 0001:000cc460       ?Event_MoveToEnemyHeight@idAI@@IAEXXZ 100cd460 f   AI_events.obj
 0001:000cc480       ?Event_MoveOutOfRange@idAI@@IAEXPAVidEntity@@M@Z 100cd480 f   AI_events.obj
 0001:000cc4b0       ?Event_MoveToAttackPosition@idAI@@IAEXPAVidEntity@@PBD@Z 100cd4b0 f   AI_events.obj
 0001:000cc500       ?Event_MoveToEntity@idAI@@IAEXPAVidEntity@@@Z 100cd500 f   AI_events.obj
 0001:000cc520       ?Event_MoveToPosition@idAI@@IAEXABVidVec3@@@Z 100cd520 f   AI_events.obj
 0001:000cc540       ?Event_SlideTo@idAI@@IAEXABVidVec3@@M@Z 100cd540 f   AI_events.obj
 0001:000cc560       ?Event_Wander@idAI@@IAEXXZ 100cd560 f   AI_events.obj
 0001:000cc570       ?Event_FacingIdeal@idAI@@IAEXXZ 100cd570 f   AI_events.obj
 0001:000cc580       ?Event_FaceEnemy@idAI@@IAEXXZ 100cd580 f   AI_events.obj
 0001:000cc590       ?Event_FaceEntity@idAI@@IAEXPAVidEntity@@@Z 100cd590 f   AI_events.obj
 0001:000cc5a0       ?Event_WaitAction@idAI@@IAEXPBD@Z 100cd5a0 f   AI_events.obj
 0001:000cc5e0       ?Event_WaitMove@idAI@@IAEXXZ 100cd5e0 f   AI_events.obj
 0001:000cc610       ?Event_CanSeeEntity@idAI@@IAEXPAVidEntity@@@Z 100cd610 f   AI_events.obj
 0001:000cc640       ?Event_SetTalkState@idAI@@IAEXH@Z 100cd640 f   AI_events.obj
 0001:000cc670       ?Event_GetEnemyPos@idAI@@IAEXXZ 100cd670 f   AI_events.obj
 0001:000cc680       ?Event_GetEnemyEyePos@idAI@@IAEXXZ 100cd680 f   AI_events.obj
 0001:000cc6c0       ?Event_EnemyPositionValid@idAI@@IAEXXZ 100cd6c0 f   AI_events.obj
 0001:000cc6d0       ?Event_TestMeleeAttack@idAI@@IAEXXZ 100cd6d0 f   AI_events.obj
 0001:000cc6e0       ?Event_Shrivel@idAI@@IAEXM@Z 100cd6e0 f   AI_events.obj
 0001:000cc7b0       ?Event_PreBurn@idAI@@IAEXXZ 100cd7b0 f   AI_events.obj
 0001:000cc7e0       ?Event_Burn@idAI@@IAEXXZ   100cd7e0 f   AI_events.obj
 0001:000cc830       ?Event_StopThinking@idAI@@IAEXXZ 100cd830 f   AI_events.obj
 0001:000cc850       ?Event_GetTurnDelta@idAI@@IAEXXZ 100cd850 f   AI_events.obj
 0001:000cc920       ?Event_GetMoveType@idAI@@IAEXXZ 100cd920 f   AI_events.obj
 0001:000cc930       ?Event_SetMoveType@idAI@@IAEXH@Z 100cd930 f   AI_events.obj
 0001:000cc980       ??4idMoveState@@QAEAAV0@ABV0@@Z 100cd980 f i AI_events.obj
 0001:000cca30       ?Event_AllowMovement@idAI@@IAEXM@Z 100cda30 f   AI_events.obj
 0001:000cca60       ?Event_EnableClip@idAI@@IAEXXZ 100cda60 f   AI_events.obj
 0001:000cca90       ?Event_DisableClip@idAI@@IAEXXZ 100cda90 f   AI_events.obj
 0001:000ccac0       ?Event_EnableGravity@idAI@@IAEXXZ 100cdac0 f   AI_events.obj
 0001:000ccad0       ?Event_DisableGravity@idAI@@IAEXXZ 100cdad0 f   AI_events.obj
 0001:000ccae0       ?Event_EnableAFPush@idAI@@IAEXXZ 100cdae0 f   AI_events.obj
 0001:000ccaf0       ?Event_DisableAFPush@idAI@@IAEXXZ 100cdaf0 f   AI_events.obj
 0001:000ccb00       ?Event_SetFlySpeed@idAI@@IAEXM@Z 100cdb00 f   AI_events.obj
 0001:000ccb30       ?Event_SetFlyOffset@idAI@@IAEXH@Z 100cdb30 f   AI_events.obj
 0001:000ccb40       ?Event_ClearFlyOffset@idAI@@IAEXXZ 100cdb40 f   AI_events.obj
 0001:000ccb60       ?Event_TravelDistanceToPoint@idAI@@IAEXABVidVec3@@@Z 100cdb60 f   AI_events.obj
 0001:000ccba0       ?Event_TravelDistanceToEntity@idAI@@IAEXPAVidEntity@@@Z 100cdba0 f   AI_events.obj
 0001:000ccc00       ?Event_TravelDistanceBetweenPoints@idAI@@IAEXABVidVec3@@0@Z 100cdc00 f   AI_events.obj
 0001:000ccc30       ?Event_TravelDistanceBetweenEntities@idAI@@IAEXPAVidEntity@@0@Z 100cdc30 f   AI_events.obj
 0001:000ccc90       ?Event_SetJointMod@idAI@@IAEXH@Z 100cdc90 f   AI_events.obj
 0001:000cccb0       ?Event_ThrowMoveable@idAI@@IAEXXZ 100cdcb0 f   AI_events.obj
 0001:000ccd30       ?Event_ThrowAF@idAI@@IAEXXZ 100cdd30 f   AI_events.obj
 0001:000ccdb0       ?Event_GetAngles@idAI@@IAEXXZ 100cddb0 f   AI_events.obj
 0001:000ccde0       ?Event_RealKill@idAI@@IAEXXZ 100cdde0 f   AI_events.obj
 0001:000cce30       ?Event_Kill@idAI@@IAEXXZ   100cde30 f   AI_events.obj
 0001:000cce40       ?Event_WakeOnFlashlight@idAI@@IAEXH@Z 100cde40 f   AI_events.obj
 0001:000cce60       ?Event_PushPointIntoAAS@idAI@@IAEXABVidVec3@@@Z 100cde60 f   AI_events.obj
 0001:000cced0       ?Event_GetTurnRate@idAI@@IAEXXZ 100cded0 f   AI_events.obj
 0001:000ccef0       ?Event_SetTurnRate@idAI@@IAEXM@Z 100cdef0 f   AI_events.obj
 0001:000ccf00       ?Event_AnimTurn@idAI@@IAEXM@Z 100cdf00 f   AI_events.obj
 0001:000cd090       ?Event_AllowHiddenMovement@idAI@@IAEXH@Z 100ce090 f   AI_events.obj
 0001:000cd0b0       ?Event_TriggerParticles@idAI@@IAEXPBD@Z 100ce0b0 f   AI_events.obj
 0001:000cd0c0       ?Event_GetReachableEntityPosition@idAI@@IAEXPAVidEntity@@@Z 100ce0c0 f   AI_events.obj
 0001:000cd1a0       ?Event_Touch@idAI@@IAEXPAVidEntity@@PAUtrace_s@@@Z 100ce1a0 f   AI_events.obj
 0001:000cd200       ?Event_FindEnemyAI@idAI@@IAEXH@Z 100ce200 f   AI_events.obj
 0001:000cd3d0       ?Event_FindEnemyInCombatNodes@idAI@@IAEXXZ 100ce3d0 f   AI_events.obj
 0001:000cd530       ?Event_HeardSound@idAI@@IAEXH@Z 100ce530 f   AI_events.obj
 0001:000cd640       ?Event_SetEnemy@idAI@@IAEXPAVidEntity@@@Z 100ce640 f   AI_events.obj
 0001:000cd6a0       ?Event_MuzzleFlash@idAI@@IAEXPBD@Z 100ce6a0 f   AI_events.obj
 0001:000cd6d0       ?Event_CreateMissile@idAI@@IAEXPBD@Z 100ce6d0 f   AI_events.obj
 0001:000cd890       ?Event_AttackMissile@idAI@@IAEXPBD@Z 100ce890 f   AI_events.obj
 0001:000cd8e0       ?Event_RadiusDamageFromJoint@idAI@@IAEXPBD0@Z 100ce8e0 f   AI_events.obj
 0001:000cd990       ?Event_MeleeAttackToJoint@idAI@@IAEXPBD0@Z 100ce990 f   AI_events.obj
 0001:000cdc10       ?Event_BecomeSolid@idAI@@IAEXXZ 100cec10 f   AI_events.obj
 0001:000cdce0       ?Event_SetHealth@idAI@@IAEXM@Z 100cece0 f   AI_events.obj
 0001:000cdd20       ?Event_MoveToCover@idAI@@IAEXXZ 100ced20 f   AI_events.obj
 0001:000cdd70       ?Event_MoveToEnemy@idAI@@IAEXXZ 100ced70 f   AI_events.obj
 0001:000cddb0       ?Event_GetCombatNode@idAI@@IAEXXZ 100cedb0 f   AI_events.obj
 0001:000cdfc0       ?Event_EnemyInCombatCone@idAI@@IAEXPAVidEntity@@H@Z 100cefc0 f   AI_events.obj
 0001:000ce0a0       ?Event_GetJumpVelocity@idAI@@IAEXABVidVec3@@MM@Z 100cf0a0 f   AI_events.obj
 0001:000ce320       ?Event_EntityInAttackCone@idAI@@IAEXPAVidEntity@@@Z 100cf320 f   AI_events.obj
 0001:000ce5d0       ?Event_SetTalkTarget@idAI@@IAEXPAVidEntity@@@Z 100cf5d0 f   AI_events.obj
 0001:000ce660       ?Event_GetTalkTarget@idAI@@IAEXXZ 100cf660 f   AI_events.obj
 0001:000ce6a0       ?Event_EnemyRange@idAI@@IAEXXZ 100cf6a0 f   AI_events.obj
 0001:000ce7d0       ?Event_EnemyRange2D@idAI@@IAEXXZ 100cf7d0 f   AI_events.obj
 0001:000ce8f0       ?Event_GetEnemy@idAI@@IAEXXZ 100cf8f0 f   AI_events.obj
 0001:000ce930       ?Event_PredictEnemyPos@idAI@@IAEXM@Z 100cf930 f   AI_events.obj
 0001:000cea10       ?Event_CanHitEnemy@idAI@@IAEXXZ 100cfa10 f   AI_events.obj
 0001:000ceca0       ?Event_CanHitEnemyFromAnim@idAI@@IAEXPBD@Z 100cfca0 f   AI_events.obj
 0001:000cf2c0       ?Event_CanHitEnemyFromJoint@idAI@@IAEXPBD@Z 100d02c0 f   AI_events.obj
 0001:000cf7d0       ?Event_ChargeAttack@idAI@@IAEXPBD@Z 100d07d0 f   AI_events.obj
 0001:000cf8f0       ?Event_TestChargeAttack@idAI@@IAEXXZ 100d08f0 f   AI_events.obj
 0001:000cfbc0       ?Event_TestAnimMoveTowardEnemy@idAI@@IAEXPBD@Z 100d0bc0 f   AI_events.obj
 0001:000cff10       ?Event_TestAnimMove@idAI@@IAEXPBD@Z 100d0f10 f   AI_events.obj
 0001:000d01c0       ?Event_TestMoveToPosition@idAI@@IAEXABVidVec3@@@Z 100d11c0 f   AI_events.obj
 0001:000d0310       ?Event_TestAnimAttack@idAI@@IAEXPBD@Z 100d1310 f   AI_events.obj
 0001:000d0410       ?Event_ClearBurn@idAI@@IAEXXZ 100d1410 f   AI_events.obj
 0001:000d0470       ?Event_SetSmokeVisibility@idAI@@IAEXHH@Z 100d1470 f   AI_events.obj
 0001:000d0510       ?Event_NumSmokeEmitters@idAI@@IAEXXZ 100d1510 f   AI_events.obj
 0001:000d0520       ?Event_SaveMove@idAI@@IAEXXZ 100d1520 f   AI_events.obj
 0001:000d0540       ?Event_RestoreMove@idAI@@IAEXXZ 100d1540 f   AI_events.obj
 0001:000d0770       ?Event_JumpFrame@idAI@@IAEXXZ 100d1770 f   AI_events.obj
 0001:000d0790       ?Event_GetClosestHiddenTarget@idAI@@IAEXPBD@Z 100d1790 f   AI_events.obj
 0001:000d0990       ?Event_GetRandomTarget@idAI@@IAEXPBD@Z 100d1990 f   AI_events.obj
 0001:000d0a60       ?Event_LookAtEntity@idAI@@IAEXPAVidEntity@@M@Z 100d1a60 f   AI_events.obj
 0001:000d0b30       ?Event_LookAtEnemy@idAI@@IAEXM@Z 100d1b30 f   AI_events.obj
 0001:000d0c20       ?Event_SetAngles@idAI@@IAEXABVidAngles@@@Z 100d1c20 f   AI_events.obj
 0001:000d0cb0       ?Event_LocateEnemy@idAI@@IAEXXZ 100d1cb0 f   AI_events.obj
 0001:000d0d10       ?Event_KickObstacles@idAI@@IAEXPAVidEntity@@M@Z 100d1d10 f   AI_events.obj
 0001:000d0e80       ?Event_GetObstacle@idAI@@IAEXXZ 100d1e80 f   AI_events.obj
 0001:000d0ec0       ?Event_FindActorsInBounds@idAI@@IAEXABVidVec3@@0@Z 100d1ec0 f   AI_events.obj
 0001:000d0f90       ?Event_CanReachPosition@idAI@@IAEXABVidVec3@@@Z 100d1f90 f   AI_events.obj
 0001:000d1030       ?Event_CanReachEntity@idAI@@IAEXPAVidEntity@@@Z 100d2030 f   AI_events.obj
 0001:000d1150       ?Event_CanReachEnemy@idAI@@IAEXXZ 100d2150 f   AI_events.obj
 0001:000d1270       ?Event_ClosestReachableEnemyOfEntity@idAI@@IAEXPAVidEntity@@@Z 100d2270 f   AI_events.obj
 0001:000d1420       ?Event_LaunchMissile@idAI@@IAEXABVidVec3@@ABVidAngles@@@Z 100d2420 f   AI_events.obj
 0001:000d17f0       ?PointInsideObstacle@@YAHPBUobstacle_s@@HABVidVec2@@@Z 100d27f0 f   AI_pathing.obj
 0001:000d1880       ?Shutdown@?$idBlockAlloc@UpathNode_s@@$0IA@@@QAEXXZ 100d2880 f i AI_pathing.obj
 0001:000d18d0       ?Add@?$idQueueTemplate@UpathNode_s@@$0DA@@@QAEXPAUpathNode_s@@@Z 100d28d0 f i AI_pathing.obj
 0001:000d1900       ??4idBox@@QAEAAV0@ABV0@@Z  100d2900 f i AI_pathing.obj
 0001:000d1970       ?Init@pathNode_s@@QAEXXZ   100d2970 f   AI_pathing.obj
 0001:000d19a0       ?LineIntersectsPath@@YA_NABVidVec2@@0PBUpathNode_s@@@Z 100d29a0 f   AI_pathing.obj
 0001:000d1ad0       ?GetPointOutsideObstacles@@YAXPBUobstacle_s@@HAAVidVec2@@PAH2@Z 100d2ad0 f   AI_pathing.obj
 0001:000d2050       ?GetFirstBlockingObstacle@@YA_NPBUobstacle_s@@HHABVidVec2@@1AAMAAH3@Z 100d3050 f   AI_pathing.obj
 0001:000d2270       ?GetObstacles@@YAHPBVidPhysics@@PBVidAAS@@PBVidEntity@@HABVidVec3@@3PAUobstacle_s@@HAAVidBounds@@@Z 100d3270 f   AI_pathing.obj
 0001:000d3330       ?FreePathTree_r@@YAXPAUpathNode_s@@@Z 100d4330 f   AI_pathing.obj
 0001:000d3370       ?DrawPathTree@@YAXPBUpathNode_s@@M@Z 100d4370 f   AI_pathing.obj
 0001:000d3420       ?GetPathNodeDelta@@YA_NPAUpathNode_s@@PBUobstacle_s@@ABVidVec2@@_N@Z 100d4420 f   AI_pathing.obj
 0001:000d3670       ?PrunePathTree@@YAXPAUpathNode_s@@ABVidVec2@@@Z 100d4670 f   AI_pathing.obj
 0001:000d3790       ?OptimizePath@@YAHPBUpathNode_s@@0PBUobstacle_s@@HQAVidVec2@@@Z 100d4790 f   AI_pathing.obj
 0001:000d3a80       ?PathLength@@YAMQAVidVec2@@HABV1@@Z 100d4a80 f   AI_pathing.obj
 0001:000d3d90       ?FindOptimalPath@@YA_NPBUpathNode_s@@PBUobstacle_s@@HMABVidVec3@@AAV3@@Z 100d4d90 f   AI_pathing.obj
 0001:000d4010       ?FreeObstacleAvoidanceNodes@idAI@@SAXXZ 100d5010 f   AI_pathing.obj
 0001:000d43d0       ?TestTrajectory@idAI@@SA_NABVidVec3@@0MMMMPBVidClipModel@@HPBVidEntity@@2H@Z 100d53d0 f   AI_pathing.obj
 0001:000d4930       ?PredictTrajectory@idAI@@SA_NABVidVec3@@0M0PBVidClipModel@@HMPBVidEntity@@2HAAV2@@Z 100d5930 f   AI_pathing.obj
 0001:000d5220       ?PathTrace@@YA_NPBVidEntity@@PBVidAAS@@ABVidVec3@@2HAAUpathTrace_s@@AAUpredictedPath_s@@@Z 100d6220 f   AI_pathing.obj
 0001:000d5590       ?PredictPath@idAI@@SA_NPBVidEntity@@PBVidAAS@@ABVidVec3@@2HHHAAUpredictedPath_s@@@Z 100d6590 f   AI_pathing.obj
 0001:000d6170       ?Alloc@?$idBlockAlloc@UpathNode_s@@$0IA@@@QAEPAUpathNode_s@@XZ 100d7170 f i AI_pathing.obj
 0001:000d61e0       ?BuildPathTree@@YAPAUpathNode_s@@PBUobstacle_s@@HABVidBounds@@ABVidVec2@@2AAUobstaclePath_s@@@Z 100d71e0 f   AI_pathing.obj
 0001:000d65f0       ?FindPathAroundObstacles@idAI@@SA_NPBVidPhysics@@PBVidAAS@@PBVidEntity@@ABVidVec3@@3AAUobstaclePath_s@@@Z 100d75f0 f   AI_pathing.obj
 0001:000d6920       ?GetType@idAI_Vagary@@UBEPAVidTypeInfo@@XZ 100d7920 f   AI_Vagary.obj
 0001:000d6930       ?CreateInstance@idAI_Vagary@@SAPAVidClass@@XZ 100d7930 f   AI_Vagary.obj
 0001:000d69e0       ?Event_ChooseObjectToThrow@idAI_Vagary@@AAEXABVidVec3@@0MMM@Z 100d79e0 f   AI_Vagary.obj
 0001:000d6e10       ?Event_ThrowObjectAtEnemy@idAI_Vagary@@AAEXPAVidEntity@@M@Z 100d7e10 f   AI_Vagary.obj
 0001:000d7010       ?NumJoints@idMD5Anim@@QBEHXZ 100d8010 f   Anim.obj
 0001:000d7020       ?Length@idMD5Anim@@QBEHXZ  100d8020 f   Anim.obj
 0001:000d7020       ?Name@idTypeDef@@QBEPBDXZ  100d8020 f   Script_Program.obj
 0001:000d7030       ?TotalMovementDelta@idMD5Anim@@QBEABVidVec3@@XZ 100d8030 f   Anim.obj
 0001:000d7040       ?IncreaseRefs@idMD5Anim@@QBEXXZ 100d8040 f   Anim.obj
 0001:000d7050       ?DecreaseRefs@idMD5Anim@@QBEXXZ 100d8050 f   Anim.obj
 0001:000d7060       ?ConvertTimeToFrame@idMD5Anim@@QBEXHHAAUframeBlend_t@@@Z 100d8060 f   Anim.obj
 0001:000d7160       ?Free@idMD5Anim@@QAEXXZ    100d8160 f   Anim.obj
 0001:000d71e0       ?Name@idMD5Anim@@QBEPBDXZ  100d81e0 f   Anim.obj
 0001:000d71f0       ?GetOrigin@idMD5Anim@@QBEXAAVidVec3@@HH@Z 100d81f0 f   Anim.obj
 0001:000d7310       ?GetOriginRotation@idMD5Anim@@QBEXAAVidQuat@@HH@Z 100d8310 f   Anim.obj
 0001:000d78f0       ?GetBounds@idMD5Anim@@QBEXAAVidBounds@@HH@Z 100d88f0 f   Anim.obj
 0001:000d7ab0       ?GetInterpolatedFrame@idMD5Anim@@QBEXAAUframeBlend_t@@PAVidJointQuat@@PBHH@Z 100d8ab0 f   Anim.obj
 0001:000d8290       ?GetSingleFrame@idMD5Anim@@QBEXHPAVidJointQuat@@PBHH@Z 100d9290 f   Anim.obj
 0001:000d83e0       ??0hashnode_s@?$idHashTable@PAVidMD5Anim@@@@QAE@PBDPAVidMD5Anim@@PAU01@@Z 100d93e0 f i Anim.obj
 0001:000d8460       ??0idMD5Anim@@QAE@XZ       100d9460 f   Anim.obj
 0001:000d84f0       ??1idMD5Anim@@QAE@XZ       100d94f0 f   Anim.obj
 0001:000d85c0       ?CheckModelHierarchy@idMD5Anim@@QBEXPBVidRenderModel@@@Z 100d95c0 f   Anim.obj
 0001:000d86e0       ?ListAnims@idAnimManager@@QBEXXZ 100d96e0 f   Anim.obj
 0001:000d8840       ??1?$idHashTable@PAVidMD5Anim@@@@QAE@XZ 100d9840 f i Anim.obj
 0001:000d88b0       ??0idAnimManager@@QAE@XZ   100d98b0 f   Anim.obj
 0001:000d8950       ?Shutdown@idAnimManager@@QAEXXZ 100d9950 f   Anim.obj
 0001:000d8a00       ?JointIndex@idAnimManager@@QAEHPBD@Z 100d9a00 f   Anim.obj
 0001:000d8e20       ?FlushUnusedAnims@idAnimManager@@QAEXXZ 100d9e20 f   Anim.obj
 0001:000d9110       ?LoadAnim@idMD5Anim@@QAE_NPBD@Z 100da110 f   Anim.obj
 0001:000d9cd0       ??1idAnimManager@@QAE@XZ   100dacd0 f   Anim.obj
 0001:000d9db0       ?GetAnim@idAnimManager@@QAEPAVidMD5Anim@@PBD@Z 100dadb0 f   Anim.obj
 0001:000da070       ?Reload@idMD5Anim@@QAE_NXZ 100db070 f   Anim.obj
 0001:000da120       ?ReloadAnims@idAnimManager@@QAEXXZ 100db120 f   Anim.obj
 0001:000da190       ?MD5Anim@idAnim@@QBEPBVidMD5Anim@@H@Z 100db190 f   Anim_Blend.obj
 0001:000da1b0       ?Save@idAnimBlend@@QBEXPAVidSaveGame@@@Z 100db1b0 f   Anim_Blend.obj
 0001:000da280       ?GetWeight@idAnimBlend@@QBEMH@Z 100db280 f   Anim_Blend.obj
 0001:000da2e0       ?Clear@idAnimBlend@@QAEXHH@Z 100db2e0 f   Anim_Blend.obj
 0001:000da360       ?GetCycleCount@idAnimBlend@@QBEHXZ 100db360 f   Anim_Blend.obj
 0001:000da370       ?GetStartTime@idAnimBlend@@QBEHXZ 100db370 f   Anim_Blend.obj
 0001:000da380       ?GetEndTime@idAnimBlend@@QBEHXZ 100db380 f   Anim_Blend.obj
 0001:000da390       ?PlayLength@idAnimBlend@@QBEHXZ 100db390 f   Anim_Blend.obj
 0001:000da3b0       ?AnimNum@idAnimBlend@@QBEHXZ 100db3b0 f   Anim_Blend.obj
 0001:000da3c0       ?Size@idDeclModelDef@@UBEIXZ 100db3c0 f   Anim_Blend.obj
 0001:000da3d0       ?DefaultDefinition@idDeclModelDef@@UBEPBDXZ 100db3d0 f   Anim_Blend.obj
 0001:000da3e0       ?GetRestStartTime@idPhysics_Monster@@UBEHXZ 100db3e0 f   Physics_Monster.obj
 0001:000da3e0       ?ModelHandle@idDeclModelDef@@QBEPAVidRenderModel@@XZ 100db3e0 f   Anim_Blend.obj
 0001:000da3f0       ?Touch@idDeclModelDef@@QBEXXZ 100db3f0 f   Anim_Blend.obj
 0001:000da420       ?GetDefaultSkin@idDeclModelDef@@QBEPBVidDeclSkin@@XZ 100db420 f   Anim_Blend.obj
 0001:000da420       ?GetSkin@idDeclModelDef@@QBEPBVidDeclSkin@@XZ 100db420 f   Anim_Blend.obj
 0001:000da430       ?GetModelName@idDeclModelDef@@QBEPBDXZ 100db430 f   Anim_Blend.obj
 0001:000da450       ?GetVisualOffset@idDeclModelDef@@QBEABVidVec3@@XZ 100db450 f   Anim_Blend.obj
 0001:000da460       ?RemoveOriginOffset@idAnimator@@QAEX_N@Z 100db460 f   Anim_Blend.obj
 0001:000da470       ?RemoveOrigin@idAnimator@@QBE_NXZ 100db470 f   Anim_Blend.obj
 0001:000da480       ?NumJoints@idAnimator@@QBEHXZ 100db480 f   Anim_Blend.obj
 0001:000da490       ?ModelHandle@idAnimator@@QBEPAVidRenderModel@@XZ 100db490 f   Anim_Blend.obj
 0001:000da4a0       ?NumFrames@idMD5Anim@@QBEHXZ 100db4a0 f   Anim.obj
 0001:000da4a0       ?ModelDef@idAnimator@@QBEPBVidDeclModelDef@@XZ 100db4a0 f   Anim_Blend.obj
 0001:000da4a0       ?Type@idTypeDef@@QBE?AW4etype_t@@XZ 100db4a0 f   Script_Program.obj
 0001:000da4a0       ?GetTypeDef@idScriptObject@@QBEPAVidTypeDef@@XZ 100db4a0 f   Script_Program.obj
 0001:000da4a0       ?GetBuildNumber@idRestoreGame@@QAEHXZ 100db4a0 f   SaveGame.obj
 0001:000da4b0       ?CurrentAnim@idAnimator@@QAEPAVidAnimBlend@@H@Z 100db4b0 f   Anim_Blend.obj
 0001:000da4f0       ?SetAFPoseBlendWeight@idAnimator@@QAEXM@Z 100db4f0 f   Anim_Blend.obj
 0001:000da500       ?ForceUpdate@idAnimator@@QAEXXZ 100db500 f   Anim_Blend.obj
 0001:000da520       ?ClearForceUpdate@idAnimator@@QAEXXZ 100db520 f   Anim_Blend.obj
 0001:000da530       ?GetJointHandle@idAnimator@@QBE?AW4jointHandle_t@@PBD@Z 100db530 f   Anim_Blend.obj
 0001:000da560       ?GetJointName@idAnimator@@QBEPBDW4jointHandle_t@@@Z 100db560 f   Anim_Blend.obj
 0001:000da590       ?GetJoints@idAnimator@@QAEXPAHPAPAVidJointMat@@@Z 100db590 f   Anim_Blend.obj
 0001:000da5b0       ?ANIM_GetModelFromEntityDef@idGameEdit@@UAEPAVidRenderModel@@PBD@Z 100db5b0 f   Anim_Blend.obj
 0001:000da5e0       ?ANIM_GetModelFromName@idGameEdit@@UAEPAVidRenderModel@@PBD@Z 100db5e0 f   Anim_Blend.obj
 0001:000da620       ?ANIM_GetAnim@idGameEdit@@UAEPBVidMD5Anim@@PBD@Z 100db620 f   Anim_Blend.obj
 0001:000da630       ?ANIM_GetLength@idGameEdit@@UAEHPBVidMD5Anim@@@Z 100db630 f   Anim_Blend.obj
 0001:000da650       ?ANIM_GetNumFrames@idGameEdit@@UAEHPBVidMD5Anim@@@Z 100db650 f   Anim_Blend.obj
 0001:000da670       ?SetAnim@idAnim@@QAEXPBVidDeclModelDef@@PBD1HQAPBVidMD5Anim@@@Z 100db670 f   Anim_Blend.obj
 0001:000da760       ?Name@idAnim@@QBEPBDXZ     100db760 f   Anim_Blend.obj
 0001:000da760       ?GetNumClipModels@idPhysics_StaticMulti@@UBEHXZ 100db760 f   Physics_StaticMulti.obj
 0001:000da770       ?GetOriginRotation@idAnim@@QBE_NAAVidQuat@@HHH@Z 100db770 f   Anim_Blend.obj
 0001:000da7b0       ?FindFrameForFrameCommand@idAnim@@QBEHW4frameCommandType_t@@PAPBUframeCommand_t@@@Z 100db7b0 f   Anim_Blend.obj
 0001:000da850       ?FindJoint@idDeclModelDef@@QBEPBUjointInfo_t@@PBD@Z 100db850 f   Anim_Blend.obj
 0001:000da8c0       ?SetupJoints@idDeclModelDef@@QBEXPAHPAPAVidJointMat@@AAVidBounds@@_N@Z 100db8c0 f   Anim_Blend.obj
 0001:000daa70       ?HasAnim@idDeclModelDef@@QBE_NPBD@Z 100dba70 f   Anim_Blend.obj
 0001:000daac0       ?NumAnims@idDeclModelDef@@QBEHXZ 100dbac0 f   Anim_Blend.obj
 0001:000daad0       ?GetSpecificAnim@idDeclModelDef@@QBEHPBD@Z 100dbad0 f   Anim_Blend.obj
 0001:000dab20       ?GetAnim@idDeclModelDef@@QBEPBVidAnim@@H@Z 100dbb20 f   Anim_Blend.obj
 0001:000dab50       ?GetAnim@idDeclModelDef@@QBEHPBD@Z 100dbb50 f   Anim_Blend.obj
 0001:000dac20       ?NumJointsOnChannel@idDeclModelDef@@QBEHH@Z 100dbc20 f   Anim_Blend.obj
 0001:000dac50       ?GetChannelJoints@idDeclModelDef@@QBEPBHH@Z 100dbc50 f   Anim_Blend.obj
 0001:000dac90       ?Allocated@idAnimator@@QBEIXZ 100dbc90 f   Anim_Blend.obj
 0001:000dacd0       ?Save@idAnimator@@QBEXPAVidSaveGame@@@Z 100dbcd0 f   Anim_Blend.obj
 0001:000dafb0       ?PushAnims@idAnimator@@AAEXHHH@Z 100dbfb0 f   Anim_Blend.obj
 0001:000db080       ?NumAnims@idAnimator@@QBEHXZ 100dc080 f   Anim_Blend.obj
 0001:000db0a0       ?GetAnim@idAnimator@@QBEPBVidAnim@@H@Z 100dc0a0 f   Anim_Blend.obj
 0001:000db0d0       ?GetAnim@idAnimator@@QBEHPBD@Z 100dc0d0 f   Anim_Blend.obj
 0001:000db0e0       ?HasAnim@idAnimator@@QBE_NPBD@Z 100dc0e0 f   Anim_Blend.obj
 0001:000db0f0       ?Clear@idAnimator@@QAEXHHH@Z 100dc0f0 f   Anim_Blend.obj
 0001:000db160       ?ClearJoint@idAnimator@@QAEXW4jointHandle_t@@@Z 100dc160 f   Anim_Blend.obj
 0001:000db230       ?IsAnimating@idAnimator@@QBE_NH@Z 100dc230 f   Anim_Blend.obj
 0001:000db2c0       ?GetChannelForJoint@idAnimator@@QBEHW4jointHandle_t@@@Z 100dc2c0 f   Anim_Blend.obj
 0001:000db330       ?GetFirstChild@idAnimator@@QBE?AW4jointHandle_t@@W42@@Z 100dc330 f   Anim_Blend.obj
 0001:000db390       ?GetAnimFlags@idAnimator@@QBE?BUanimFlags_t@@H@Z 100dc390 f   Anim_Blend.obj
 0001:000db3d0       ?NumFrames@idAnimator@@QBEHH@Z 100dc3d0 f   Anim_Blend.obj
 0001:000db410       ?AnimFullName@idAnimator@@QBEPBDH@Z 100dc410 f   Anim_Blend.obj
 0001:000db450       ?AnimLength@idAnimator@@QBEHH@Z 100dc450 f   Anim_Blend.obj
 0001:000db490       ?TotalMovementDelta@idAnimator@@QBEABVidVec3@@H@Z 100dc490 f   Anim_Blend.obj
 0001:000db4d0       ?ANIM_GetModelDefFromEntityDef@@YAPBVidDeclModelDef@@PBVidDict@@@Z 100dc4d0 f   Anim_Blend.obj
 0001:000db5e0       ?ANIM_GetModelFromEntityDef@idGameEdit@@UAEPAVidRenderModel@@PBVidDict@@@Z 100dc5e0 f   Anim_Blend.obj
 0001:000db720       ?ANIM_GetModelOffsetFromEntityDef@idGameEdit@@UAEABVidVec3@@PBD@Z 100dc720 f   Anim_Blend.obj
 0001:000db750       ?ANIM_GetAnimFromEntityDef@idGameEdit@@UAEPBVidMD5Anim@@PBD0@Z 100dc750 f   Anim_Blend.obj
 0001:000db7f0       ?ANIM_GetNumAnimsFromEntityDef@idGameEdit@@UAEHPBVidDict@@@Z 100dc7f0 f   Anim_Blend.obj
 0001:000db840       ?ANIM_GetAnimNameFromEntityDef@idGameEdit@@UAEPBDPBVidDict@@H@Z 100dc840 f   Anim_Blend.obj
 0001:000db8b0       ?ANIM_CreateAnimFrame@idGameEdit@@UAEXPBVidRenderModel@@PBVidMD5Anim@@HPAVidJointMat@@HABVidVec3@@_N@Z 100dc8b0 f   Anim_Blend.obj
 0001:000dbe80       ??$ArgCompletion_Integer@$0A@$01@idCmdSystem@@SAXABVidCmdArgs@@P6AXPBD@Z@Z 100dce80 f i Anim_Blend.obj
 0001:000dbec0       ??0idAFPoseJointMod@@QAE@XZ 100dcec0 f i Anim_Blend.obj
 0001:000dbf30       ??0idAnim@@QAE@XZ          100dcf30 f   Anim_Blend.obj
 0001:000dbfb0       ??0idAnim@@QAE@PBVidDeclModelDef@@PBV0@@Z 100dcfb0 f   Anim_Blend.obj
 0001:000dc310       ??1idAnim@@QAE@XZ          100dd310 f   Anim_Blend.obj
 0001:000dc400       ?AddFrameCommand@idAnim@@QAEPBDPBVidDeclModelDef@@HAAVidLexer@@PBVidDict@@@Z 100dd400 f   Anim_Blend.obj
 0001:000dde50       ?CallFrameCommands@idAnim@@QBEXPAVidEntity@@HH@Z 100dee50 f   Anim_Blend.obj
 0001:000de700       ?Restore@idAnimBlend@@QAEXPAVidRestoreGame@@PBVidDeclModelDef@@@Z 100df700 f   Anim_Blend.obj
 0001:000de820       ?SetFrame@idAnimBlend@@AAEXPBVidDeclModelDef@@HHHH@Z 100df820 f   Anim_Blend.obj
 0001:000de990       ?CycleAnim@idAnimBlend@@AAEXPBVidDeclModelDef@@HHH@Z 100df990 f   Anim_Blend.obj
 0001:000deb30       ?PlayAnim@idAnimBlend@@AAEXPBVidDeclModelDef@@HHH@Z 100dfb30 f   Anim_Blend.obj
 0001:000dec70       ?Anim@idAnimBlend@@QBEPBVidAnim@@XZ 100dfc70 f   Anim_Blend.obj
 0001:000deca0       ?AnimTime@idAnimBlend@@QBEHH@Z 100dfca0 f   Anim_Blend.obj
 0001:000ded80       ?GetFrameNumber@idAnimBlend@@QBEHH@Z 100dfd80 f   Anim_Blend.obj
 0001:000dee10       ?CallFrameCommands@idAnimBlend@@ABEXPAVidEntity@@HH@Z 100dfe10 f   Anim_Blend.obj
 0001:000def10       ?BlendAnim@idAnimBlend@@ABE_NHHHPAVidJointQuat@@AAM_N22@Z 100dff10 f   Anim_Blend.obj
 0001:000df660       ?BlendDelta@idAnimBlend@@ABEXHHAAVidVec3@@AAM@Z 100e0660 f   Anim_Blend.obj
 0001:000df920       ?BlendDeltaRotation@idAnimBlend@@ABEXHHAAVidQuat@@AAM@Z 100e0920 f   Anim_Blend.obj
 0001:000dfc50       ?AddBounds@idAnimBlend@@ABE_NHAAVidBounds@@_N@Z 100e0c50 f   Anim_Blend.obj
 0001:000dfe30       ?CopyDecl@idDeclModelDef@@AAEXPBV1@@Z 100e0e30 f   Anim_Blend.obj
 0001:000e0170       ?ParseAnim@idDeclModelDef@@AAE_NAAVidLexer@@H@Z 100e1170 f   Anim_Blend.obj
 0001:000e08d0       ?FreeData@idAnimator@@AAEXXZ 100e18d0 f   Anim_Blend.obj
 0001:000e09d0       ?SetModel@idAnimator@@QAEPAVidRenderModel@@PBD@Z 100e19d0 f   Anim_Blend.obj
 0001:000e0ac0       ?SetFrame@idAnimator@@QAEXHHHHH@Z 100e1ac0 f   Anim_Blend.obj
 0001:000e0b50       ?CycleAnim@idAnimator@@QAEXHHHH@Z 100e1b50 f   Anim_Blend.obj
 0001:000e0be0       ?PlayAnim@idAnimator@@QAEXHHHH@Z 100e1be0 f   Anim_Blend.obj
 0001:000e0c70       ?SyncAnimChannels@idAnimator@@QAEXHHHH@Z 100e1c70 f   Anim_Blend.obj
 0001:000e0dd0       ?SetJointPos@idAnimator@@QAEXW4jointHandle_t@@W4jointModTransform_t@@ABVidVec3@@@Z 100e1dd0 f   Anim_Blend.obj
 0001:000e10c0       ?SetJointAxis@idAnimator@@QAEXW4jointHandle_t@@W4jointModTransform_t@@ABVidMat3@@@Z 100e20c0 f   Anim_Blend.obj
 0001:000e1380       ?ClearAllJoints@idAnimator@@QAEXXZ 100e2380 f   Anim_Blend.obj
 0001:000e1410       ?GetDelta@idAnimator@@QBEXHHAAVidVec3@@@Z 100e2410 f   Anim_Blend.obj
 0001:000e14e0       ?GetDeltaRotation@idAnimator@@QBE_NHHAAVidMat3@@@Z 100e24e0 f   Anim_Blend.obj
 0001:000e1650       ?GetBounds@idAnimator@@QAE_NHAAVidBounds@@@Z 100e2650 f   Anim_Blend.obj
 0001:000e18c0       ?SetAFPoseJointMod@idAnimator@@QAEXW4jointHandle_t@@W4AFJointModType_t@@ABVidMat3@@ABVidVec3@@@Z 100e28c0 f   Anim_Blend.obj
 0001:000e1b60       ?FinishAFPose@idAnimator@@QAEXHABVidBounds@@H@Z 100e2b60 f   Anim_Blend.obj
 0001:000e2430       ?ClearAFPose@idAnimator@@QAEXXZ 100e3430 f   Anim_Blend.obj
 0001:000e24e0       ?ServiceAnims@idAnimator@@QAEXHH@Z 100e34e0 f   Anim_Blend.obj
 0001:000e2570       ?CreateFrame@idAnimator@@QAE_NH_N@Z 100e3570 f   Anim_Blend.obj
 0001:000e3bc0       ?GetJointTransform@idAnimator@@QAE_NW4jointHandle_t@@HAAVidVec3@@AAVidMat3@@@Z 100e4bc0 f   Anim_Blend.obj
 0001:000e3ce0       ?GetJointLocalTransform@idAnimator@@QAE_NW4jointHandle_t@@HAAVidVec3@@AAVidMat3@@@Z 100e4ce0 f   Anim_Blend.obj
 0001:000e4140       ?GetFirstChild@idAnimator@@QBE?AW4jointHandle_t@@PBD@Z 100e5140 f   Anim_Blend.obj
 0001:000e4180       ?ANIM_CreateMeshForAnim@idGameEdit@@UAEPAVidRenderModel@@PAV2@PBD1H_N@Z 100e5180 f   Anim_Blend.obj
 0001:000e44e0       ?AnimFullName@idAnimBlend@@QBEPBDXZ 100e54e0 f   Anim_Blend.obj
 0001:000e4510       ?AnimName@idAnimBlend@@QBEPBDXZ 100e5510 f   Anim_Blend.obj
 0001:000e4540       ?NumFrames@idAnimBlend@@QBEHXZ 100e5540 f   Anim_Blend.obj
 0001:000e4580       ?SetSyncedAnimWeight@idAnimBlend@@QAE_NHM@Z 100e5580 f   Anim_Blend.obj
 0001:000e45d0       ?SetCycleCount@idAnimBlend@@QAEXH@Z 100e55d0 f   Anim_Blend.obj
 0001:000e4760       ?SetStartTime@idAnimBlend@@QAEXH@Z 100e5760 f   Anim_Blend.obj
 0001:000e4780       ??0idDeclModelDef@@QAE@XZ  100e5780 f   Anim_Blend.obj
 0001:000e4860       ?FreeData@idDeclModelDef@@UAEXXZ 100e5860 f   Anim_Blend.obj
 0001:000e4950       ?GetJointList@idDeclModelDef@@QBEXPBDAAV?$idList@W4jointHandle_t@@@@@Z 100e5950 f   Anim_Blend.obj
 0001:000e4ec0       ?Parse@idDeclModelDef@@UAE_NPBDH@Z 100e5ec0 f   Anim_Blend.obj
 0001:000e5e20       ??1idAnimator@@QAE@XZ      100e6e20 f   Anim_Blend.obj
 0001:000e5f10       ?GetJointList@idAnimator@@QBEXPBDAAV?$idList@W4jointHandle_t@@@@@Z 100e6f10 f   Anim_Blend.obj
 0001:000e5f20       ?ClearAllAnims@idAnimator@@QAEXHH@Z 100e6f20 f   Anim_Blend.obj
 0001:000e5f70       ?FrameHasChanged@idAnimator@@QBE_NH@Z 100e6f70 f   Anim_Blend.obj
 0001:000e6070       ??1idDeclModelDef@@UAE@XZ  100e7070 f   Anim_Blend.obj
 0001:000e6140       ??0idAnimator@@QAE@XZ      100e7140 f   Anim_Blend.obj
 0001:000e6600       ?Restore@idAnimator@@QAEXPAVidRestoreGame@@@Z 100e7600 f   Anim_Blend.obj
 0001:000e7020       ?InitAFPose@idAnimator@@QAEXXZ 100e8020 f   Anim_Blend.obj
 0001:000e7370       ??_GidDeclModelDef@@UAEPAXI@Z 100e8370 f i Anim_Blend.obj
 0001:000e7370       ??_EidDeclModelDef@@UAEPAXI@Z 100e8370 f i Anim_Blend.obj
 0001:000e7390       ?LoadMayaDll@idModelExport@@CAXXZ 100e8390 f   Anim_Import.obj
 0001:000e74c0       ??0idModelExport@@QAE@XZ   100e84c0 f   Anim_Import.obj
 0001:000e7560       ?Shutdown@idModelExport@@SAXXZ 100e8560 f   Anim_Import.obj
 0001:000e75d0       ?ConvertMayaToMD5@idModelExport@@AAE_NXZ 100e85d0 f   Anim_Import.obj
 0001:000e7960       ?ExportModel@idModelExport@@QAE_NPBD@Z 100e8960 f   Anim_Import.obj
 0001:000e7a40       ?ParseOptions@idModelExport@@AAE_NAAVidLexer@@@Z 100e8a40 f   Anim_Import.obj
 0001:000e7ef0       ?ParseExportSection@idModelExport@@AAEHAAVidParser@@@Z 100e8ef0 f   Anim_Import.obj
 0001:000e85d0       ?ExportDefFile@idModelExport@@QAEHPBD@Z 100e95d0 f   Anim_Import.obj
 0001:000e8730       ?ExportModels@idModelExport@@QAEHPBD0@Z 100e9730 f   Anim_Import.obj
 0001:000e8840       ?GetType@idTestModel@@UBEPAVidTypeInfo@@XZ 100e9840 f   Anim_Testmodel.obj
 0001:000e8850       ?Restore@idTestModel@@QAEXPAVidRestoreGame@@@Z 100e9850 f   Anim_Testmodel.obj
 0001:000e8870       ?Event_Footstep@idTestModel@@AAEXXZ 100e9870 f   Anim_Testmodel.obj
 0001:000e8870       ?Event_Footstep@idAnimated@@AAEXXZ 100e9870 f   Misc.obj
 0001:000e8890       ?KeepTestModel_f@idTestModel@@SAXABVidCmdArgs@@@Z 100e9890 f   Anim_Testmodel.obj
 0001:000e88d0       ?TestParticleStopTime_f@idTestModel@@SAXABVidCmdArgs@@@Z 100e98d0 f   Anim_Testmodel.obj
 0001:000e8910       ?Think@idTestModel@@EAEXXZ 100e9910 f   Anim_Testmodel.obj
 0001:000e9540       ?NextAnim@idTestModel@@QAEXABVidCmdArgs@@@Z 100ea540 f   Anim_Testmodel.obj
 0001:000e9740       ?PrevAnim@idTestModel@@QAEXABVidCmdArgs@@@Z 100ea740 f   Anim_Testmodel.obj
 0001:000e9940       ?NextFrame@idTestModel@@QAEXABVidCmdArgs@@@Z 100ea940 f   Anim_Testmodel.obj
 0001:000e99d0       ?PrevFrame@idTestModel@@QAEXABVidCmdArgs@@@Z 100ea9d0 f   Anim_Testmodel.obj
 0001:000e9a60       ?BlendAnim@idTestModel@@QAEXABVidCmdArgs@@@Z 100eaa60 f   Anim_Testmodel.obj
 0001:000e9bc0       ?ArgCompletion_TestAnim@idTestModel@@SAXABVidCmdArgs@@P6AXPBD@Z@Z 100eabc0 f   Anim_Testmodel.obj
 0001:000e9c30       ?TestBlend_f@idTestModel@@SAXABVidCmdArgs@@@Z 100eac30 f   Anim_Testmodel.obj
 0001:000e9c60       ?TestModelNextAnim_f@idTestModel@@SAXABVidCmdArgs@@@Z 100eac60 f   Anim_Testmodel.obj
 0001:000e9c90       ?TestModelPrevAnim_f@idTestModel@@SAXABVidCmdArgs@@@Z 100eac90 f   Anim_Testmodel.obj
 0001:000e9cc0       ?TestModelNextFrame_f@idTestModel@@SAXABVidCmdArgs@@@Z 100eacc0 f   Anim_Testmodel.obj
 0001:000e9cf0       ?TestModelPrevFrame_f@idTestModel@@SAXABVidCmdArgs@@@Z 100eacf0 f   Anim_Testmodel.obj
 0001:000e9d20       ??0idTestModel@@QAE@XZ     100ead20 f   Anim_Testmodel.obj
 0001:000e9df0       ?Spawn@idTestModel@@QAEXXZ 100eadf0 f   Anim_Testmodel.obj
 0001:000ea830       ??1idTestModel@@UAE@XZ     100eb830 f   Anim_Testmodel.obj
 0001:000ea9b0       ?TestAnim@idTestModel@@QAEXABVidCmdArgs@@@Z 100eb9b0 f   Anim_Testmodel.obj
 0001:000eac20       ?TestSkin_f@idTestModel@@SAXABVidCmdArgs@@@Z 100ebc20 f   Anim_Testmodel.obj
 0001:000eaea0       ?TestShaderParm_f@idTestModel@@SAXABVidCmdArgs@@@Z 100ebea0 f   Anim_Testmodel.obj
 0001:000eb190       ?TestModel_f@idTestModel@@SAXABVidCmdArgs@@@Z 100ec190 f   Anim_Testmodel.obj
 0001:000eb600       ?ArgCompletion_TestModel@idTestModel@@SAXABVidCmdArgs@@P6AXPBD@Z@Z 100ec600 f   Anim_Testmodel.obj
 0001:000eb900       ?TestAnim_f@idTestModel@@SAXABVidCmdArgs@@@Z 100ec900 f   Anim_Testmodel.obj
 0001:000eb930       ?CreateInstance@idTestModel@@SAPAVidClass@@XZ 100ec930 f   Anim_Testmodel.obj
 0001:000eb9d0       ??_GidTestModel@@UAEPAXI@Z 100ec9d0 f i Anim_Testmodel.obj
 0001:000eb9d0       ??_EidTestModel@@UAEPAXI@Z 100ec9d0 f i Anim_Testmodel.obj
 0001:000eb9f0       ?CreateInstance@idClass@@SAPAV1@XZ 100ec9f0 f   Class.obj
 0001:000eba10       ?GetType@idClass@@UBEPAVidTypeInfo@@XZ 100eca10 f   Class.obj
 0001:000eba20       ?CallSpawnFunc@idClass@@AAEP81@AEXXZPAVidTypeInfo@@@Z 100eca20 f   Class.obj
 0001:000eba50       ??1idClass@@UAE@XZ         100eca50 f   Class.obj
 0001:000eba70       ?DisplayInfo_f@idClass@@SAXABVidCmdArgs@@@Z 100eca70 f   Class.obj
 0001:000eba90       ??2idClass@@SAPAXI@Z       100eca90 f   Class.obj
 0001:000ebac0       ??3idClass@@SAXPAX@Z       100ecac0 f   Class.obj
 0001:000ebaf0       ?GetClassname@idClass@@QBEPBDXZ 100ecaf0 f   Class.obj
 0001:000ebb00       ?CancelEvents@idClass@@QAEXPBVidEventDef@@@Z 100ecb00 f   Class.obj
 0001:000ebb20       ?PostEventArgs@idClass@@AAA_NPBVidEventDef@@HHZZ 100ecb20 f   Class.obj
 0001:000ebbb0       ?PostEventMS@idClass@@QAE_NPBVidEventDef@@H@Z 100ecbb0 f   Class.obj
 0001:000ebbd0       ?PostEventMS@idClass@@QAE_NPBVidEventDef@@HVidEventArg@@@Z 100ecbd0 f   Class.obj
 0001:000ebbf0       ?PostEventMS@idClass@@QAE_NPBVidEventDef@@HVidEventArg@@1@Z 100ecbf0 f   Class.obj
 0001:000ebc20       ?PostEventMS@idClass@@QAE_NPBVidEventDef@@HVidEventArg@@111@Z 100ecc20 f   Class.obj
 0001:000ebc50       ?PostEventMS@idClass@@QAE_NPBVidEventDef@@HVidEventArg@@1111@Z 100ecc50 f   Class.obj
 0001:000ebc90       ?PostEventSec@idClass@@QAE_NPBVidEventDef@@M@Z 100ecc90 f   Class.obj
 0001:000ebcc0       ?PostEventSec@idClass@@QAE_NPBVidEventDef@@MVidEventArg@@@Z 100eccc0 f   Class.obj
 0001:000ebd00       ?PostEventSec@idClass@@QAE_NPBVidEventDef@@MVidEventArg@@1@Z 100ecd00 f   Class.obj
 0001:000ebd40       ?Event_Remove@idClass@@QAEXXZ 100ecd40 f   Class.obj
 0001:000ebd50       ?Event_SafeRemove@idClass@@AAEXXZ 100ecd50 f   Class.obj
 0001:000ebd70       ?GetPriorSiblingNode@?$idHierarchy@VidTypeInfo@@@@ABEPAV1@XZ 100ecd70 f i Class.obj
 0001:000ebdb0       ?CallSpawn@idClass@@QAEXXZ 100ecdb0 f   Class.obj
 0001:000ebde0       ?ListClasses_f@idClass@@SAXABVidCmdArgs@@@Z 100ecde0 f   Class.obj
 0001:000ebe70       ?Shutdown@idClass@@SAXXZ   100ece70 f   Class.obj
 0001:000ebf00       ?GetClass@idClass@@SAPAVidTypeInfo@@PBD@Z 100ecf00 f   Class.obj
 0001:000ebfa0       ?GetType@idClass@@SAPAVidTypeInfo@@H@Z 100ecfa0 f   Class.obj
 0001:000ebfe0       ?ProcessEventArgPtr@idClass@@QAE_NPBVidEventDef@@PAH@Z 100ecfe0 f   Class.obj
 0001:000ec1c0       ?ProcessEventArgs@idClass@@AAA_NPBVidEventDef@@HZZ 100ed1c0 f   Class.obj
 0001:000ec220       ?ProcessEvent@idClass@@QAE_NPBVidEventDef@@@Z 100ed220 f   Class.obj
 0001:000ec240       ?ProcessEvent@idClass@@QAE_NPBVidEventDef@@VidEventArg@@@Z 100ed240 f   Class.obj
 0001:000ec260       ?ProcessEvent@idClass@@QAE_NPBVidEventDef@@VidEventArg@@1@Z 100ed260 f   Class.obj
 0001:000ec280       ?ProcessEvent@idClass@@QAE_NPBVidEventDef@@VidEventArg@@111@Z 100ed280 f   Class.obj
 0001:000ec2b0       ?ParentTo@?$idHierarchy@VidTypeInfo@@@@QAEXAAV1@@Z 100ed2b0 f i Class.obj
 0001:000ec2f0       ?RemoveFromHierarchy@?$idHierarchy@VidTypeInfo@@@@QAEXXZ 100ed2f0 f i Class.obj
 0001:000ec3f0       ?Init@idTypeInfo@@QAEXXZ   100ed3f0 f   Class.obj
 0001:000ec550       ?Init@idClass@@SAXXZ       100ed550 f   Class.obj
 0001:000ec910       ??1?$idHierarchy@VidTypeInfo@@@@QAE@XZ 100ed910 f i Class.obj
 0001:000ec920       ??0idTypeInfo@@QAE@PBD0PAU?$idEventFunc@VidClass@@@@P6APAVidClass@@XZP82@AEXXZP82@BEXPAVidSaveGame@@@ZP82@AEXPAVidRestoreGame@@@Z@Z 100ed920 f   Class.obj
 0001:000eca40       ??1idTypeInfo@@QAE@XZ      100eda40 f   Class.obj
 0001:000ecab0       ??0idEventDef@@QAE@PBD0D@Z 100edab0 f   Event.obj
 0001:000ecd20       ?NumEventCommands@idEventDef@@SAHXZ 100edd20 f   Event.obj
 0001:000ecd30       ?FindEvent@idEventDef@@SAPBV1@PBD@Z 100edd30 f   Event.obj
 0001:000ecd70       ?CopyArgs@idEvent@@SAXPBVidEventDef@@HPADQAH@Z 100edd70 f   Event.obj
 0001:000ece00       ?RestoreTrace@idEvent@@SAXPAVidRestoreGame@@AAUtrace_s@@@Z 100ede00 f   Event.obj
 0001:000ecea0       ?SaveTrace@idEvent@@SAXPAVidSaveGame@@ABUtrace_s@@@Z 100edea0 f   Event.obj
 0001:000ecf50       ?Shutdown@?$idBlockAlloc@V?$idBTreeNode@V?$idDynamicBlock@E@@H@@$0IA@@@QAEXXZ 100edf50 f i Event.obj
 0001:000ecf50       ?Shutdown@?$idBlockAlloc@V?$idBTreeNode@V?$idDynamicBlock@D@@H@@$0IA@@@QAEXXZ 100edf50 f i idLib:Str.obj
 0001:000ecfa0       ??4contactInfo_t@@QAEAAU0@ABU0@@Z 100edfa0 f i Event.obj
 0001:000ed000       ?Save@idEvent@@SAXPAVidSaveGame@@@Z 100ee000 f   Event.obj
 0001:000ed1c0       ?Clear@?$idLinkList@VidEntity@@@@QAEXXZ 100ee1c0 f i Entity.obj
 0001:000ed1c0       ?Clear@?$idLinkList@VidEvent@@@@QAEXXZ 100ee1c0 f i Event.obj
 0001:000ed1c0       ?Clear@?$idLinkList@VidActor@@@@QAEXXZ 100ee1c0 f i Actor.obj
 0001:000ed210       ??1?$idBlockAlloc@V?$idBTreeNode@V?$idDynamicBlock@E@@H@@$0IA@@@QAE@XZ 100ee210 f i Event.obj
 0001:000ed210       ??1?$idBlockAlloc@V?$idBTreeNode@V?$idDynamicBlock@D@@H@@$0IA@@@QAE@XZ 100ee210 f i idLib:Str.obj
 0001:000ed220       ??4trace_s@@QAEAAU0@ABU0@@Z 100ee220 f i Event.obj
 0001:000ed290       ?Schedule@idEvent@@QAEXPAVidClass@@PBVidTypeInfo@@H@Z 100ee290 f   Event.obj
 0001:000ed350       ??0idEvent@@QAE@XZ         100ee350 f i Event.obj
 0001:000ed370       ?AllocInternal@?$idDynamicBlockAlloc@E$0EAAA@$0BAA@@@AAEPAV?$idDynamicBlock@E@@H@Z 100ee370 f i Event.obj
 0001:000ed6a0       ?ResizeInternal@?$idDynamicBlockAlloc@E$0EAAA@$0BAA@@@AAEPAV?$idDynamicBlock@E@@PAV2@H@Z 100ee6a0 f i Event.obj
 0001:000eda30       ?Free@idEvent@@QAEXXZ      100eea30 f   Event.obj
 0001:000edac0       ?CancelEvents@idEvent@@SAXPBVidClass@@PBVidEventDef@@@Z 100eeac0 f   Event.obj
 0001:000edb20       ?ClearEventList@idEvent@@SAXXZ 100eeb20 f   Event.obj
 0001:000edb60       ?ServiceEvents@idEvent@@SAXXZ 100eeb60 f   Event.obj
 0001:000edd50       ?Init@idEvent@@SAXXZ       100eed50 f   Event.obj
 0001:000eddf0       ?Shutdown@idEvent@@SAXXZ   100eedf0 f   Event.obj
 0001:000ede40       ??1idEvent@@QAE@XZ         100eee40 f   Event.obj
 0001:000ede90       ?Alloc@idEvent@@SAPAV1@PBVidEventDef@@HPAD@Z 100eee90 f   Event.obj
 0001:000ee170       ?Restore@idEvent@@SAXPAVidRestoreGame@@@Z 100ef170 f   Event.obj
 0001:000ee4e0       ?CallSave_r@idSaveGame@@AAEXPBVidTypeInfo@@PBVidClass@@@Z 100ef4e0 f   SaveGame.obj
 0001:000ee520       ?Write@idSaveGame@@QAEXPBXH@Z 100ef520 f   SaveGame.obj
 0001:000ee530       ?WriteInt@idSaveGame@@QAEXH@Z 100ef530 f   SaveGame.obj
 0001:000ee530       ?WriteJoint@idSaveGame@@QAEXW4jointHandle_t@@@Z 100ef530 f   SaveGame.obj
 0001:000ee540       ?WriteShort@idSaveGame@@QAEXF@Z 100ef540 f   SaveGame.obj
 0001:000ee550       ?WriteByte@idSaveGame@@QAEXE@Z 100ef550 f   SaveGame.obj
 0001:000ee570       ?WriteFloat@idSaveGame@@QAEXM@Z 100ef570 f   SaveGame.obj
 0001:000ee590       ?WriteBool@idSaveGame@@QAEX_N@Z 100ef590 f   SaveGame.obj
 0001:000ee5a0       ?WriteString@idSaveGame@@QAEXPBD@Z 100ef5a0 f   SaveGame.obj
 0001:000ee5e0       ?WriteVec2@idSaveGame@@QAEXABVidVec2@@@Z 100ef5e0 f   SaveGame.obj
 0001:000ee5f0       ?WriteVec3@idSaveGame@@QAEXABVidVec3@@@Z 100ef5f0 f   SaveGame.obj
 0001:000ee600       ?WriteVec4@idSaveGame@@QAEXABVidVec4@@@Z 100ef600 f   SaveGame.obj
 0001:000ee610       ?WriteVec6@idSaveGame@@QAEXABVidVec6@@@Z 100ef610 f   SaveGame.obj
 0001:000ee620       ?WriteBounds@idSaveGame@@QAEXABVidBounds@@@Z 100ef620 f   SaveGame.obj
 0001:000ee680       ?WriteMat3@idSaveGame@@QAEXABVidMat3@@@Z 100ef680 f   SaveGame.obj
 0001:000ee690       ?WriteAngles@idSaveGame@@QAEXABVidAngles@@@Z 100ef690 f   SaveGame.obj
 0001:000ee6e0       ?WriteStaticObject@idSaveGame@@QAEXABVidClass@@@Z 100ef6e0 f   SaveGame.obj
 0001:000ee720       ?WriteModel@idSaveGame@@QAEXPBVidRenderModel@@@Z 100ef720 f   SaveGame.obj
 0001:000ee790       ?WriteUserInterface@idSaveGame@@QAEXPBVidUserInterface@@_N@Z 100ef790 f   SaveGame.obj
 0001:000ee830       ?WriteRenderView@idSaveGame@@QAEXABUrenderView_s@@@Z 100ef830 f   SaveGame.obj
 0001:000ee910       ?WriteUsercmd@idSaveGame@@QAEXABVusercmd_t@@@Z 100ef910 f   SaveGame.obj
 0001:000eea30       ?WriteTraceModel@idSaveGame@@QAEXABVidTraceModel@@@Z 100efa30 f   SaveGame.obj
 0001:000eec40       ?WriteClipModel@idSaveGame@@QAEXPBVidClipModel@@@Z 100efc40 f   SaveGame.obj
 0001:000eec80       ?WriteBuildNumber@idSaveGame@@QAEXH@Z 100efc80 f   SaveGame.obj
 0001:000eeca0       ?CallRestore_r@idRestoreGame@@AAEXPBVidTypeInfo@@PAVidClass@@@Z 100efca0 f   SaveGame.obj
 0001:000eece0       ?Read@idRestoreGame@@QAEXPAXH@Z 100efce0 f   SaveGame.obj
 0001:000eecf0       ?ReadInt@idRestoreGame@@QAEXAAH@Z 100efcf0 f   SaveGame.obj
 0001:000eecf0       ?ReadJoint@idRestoreGame@@QAEXAAW4jointHandle_t@@@Z 100efcf0 f   SaveGame.obj
 0001:000eed00       ?ReadShort@idRestoreGame@@QAEXAAF@Z 100efd00 f   SaveGame.obj
 0001:000eed10       ?ReadByte@idRestoreGame@@QAEXAAE@Z 100efd10 f   SaveGame.obj
 0001:000eed30       ?ReadBool@idRestoreGame@@QAEXAA_N@Z 100efd30 f   SaveGame.obj
 0001:000eed40       ?ReadVec2@idRestoreGame@@QAEXAAVidVec2@@@Z 100efd40 f   SaveGame.obj
 0001:000eed50       ?ReadVec3@idRestoreGame@@QAEXAAVidVec3@@@Z 100efd50 f   SaveGame.obj
 0001:000eed60       ?ReadVec4@idRestoreGame@@QAEXAAVidVec4@@@Z 100efd60 f   SaveGame.obj
 0001:000eed70       ?ReadVec6@idRestoreGame@@QAEXAAVidVec6@@@Z 100efd70 f   SaveGame.obj
 0001:000eed80       ?ReadBounds@idRestoreGame@@QAEXAAVidBounds@@@Z 100efd80 f   SaveGame.obj
 0001:000eedb0       ?ReadMat3@idRestoreGame@@QAEXAAVidMat3@@@Z 100efdb0 f   SaveGame.obj
 0001:000eedc0       ?ReadAngles@idRestoreGame@@QAEXAAVidAngles@@@Z 100efdc0 f   SaveGame.obj
 0001:000eedf0       ?ReadStaticObject@idRestoreGame@@QAEXAAVidClass@@@Z 100efdf0 f   SaveGame.obj
 0001:000eee30       ?ReadRenderView@idRestoreGame@@QAEXAAUrenderView_s@@@Z 100efe30 f   SaveGame.obj
 0001:000eef00       ?ReadUsercmd@idRestoreGame@@QAEXAAVusercmd_t@@@Z 100eff00 f   SaveGame.obj
 0001:000eeff0       ?ReadTraceModel@idRestoreGame@@QAEXAAVidTraceModel@@@Z 100efff0 f   SaveGame.obj
 0001:000ef170       ?ReadClipModel@idRestoreGame@@QAEXAAPAVidClipModel@@@Z 100f0170 f   SaveGame.obj
 0001:000ef210       ?ReadBuildNumber@idRestoreGame@@QAEXXZ 100f0210 f   SaveGame.obj
 0001:000ef220       ?Close@idSaveGame@@QAEXXZ  100f0220 f   SaveGame.obj
 0001:000ef2b0       ?WriteObjectList@idSaveGame@@QAEXXZ 100f02b0 f   SaveGame.obj
 0001:000ef320       ?WriteWinding@idSaveGame@@QAEXABVidWinding@@@Z 100f0320 f   SaveGame.obj
 0001:000ef3a0       ?WriteObject@idSaveGame@@QAEXPBVidClass@@@Z 100f03a0 f   SaveGame.obj
 0001:000ef3f0       ?WriteDict@idSaveGame@@QAEXPBVidDict@@@Z 100f03f0 f   SaveGame.obj
 0001:000ef4d0       ?WriteSkin@idSaveGame@@QAEXPBVidDeclSkin@@@Z 100f04d0 f   SaveGame.obj
 0001:000ef4d0       ?WriteMaterial@idSaveGame@@QAEXPBVidMaterial@@@Z 100f04d0 f   SaveGame.obj
 0001:000ef4d0       ?WriteModelDef@idSaveGame@@QAEXPBVidDeclModelDef@@@Z 100f04d0 f   SaveGame.obj
 0001:000ef4d0       ?WriteSoundShader@idSaveGame@@QAEXPBVidSoundShader@@@Z 100f04d0 f   SaveGame.obj
 0001:000ef4d0       ?WriteFX@idSaveGame@@QAEXPBVidDeclFX@@@Z 100f04d0 f   SaveGame.obj
 0001:000ef4d0       ?WriteParticle@idSaveGame@@QAEXPBVidDeclParticle@@@Z 100f04d0 f   SaveGame.obj
 0001:000ef540       ?WriteRenderEntity@idSaveGame@@QAEXABUrenderEntity_s@@@Z 100f0540 f   SaveGame.obj
 0001:000ef6e0       ?WriteRenderLight@idSaveGame@@QAEXABUrenderLight_s@@@Z 100f06e0 f   SaveGame.obj
 0001:000ef860       ?WriteRefSound@idSaveGame@@QAEXABUrefSound_t@@@Z 100f0860 f   SaveGame.obj
 0001:000ef940       ?WriteContactInfo@idSaveGame@@QAEXABUcontactInfo_t@@@Z 100f0940 f   SaveGame.obj
 0001:000ef9e0       ?WriteTrace@idSaveGame@@QAEXABUtrace_s@@@Z 100f09e0 f   SaveGame.obj
 0001:000efa30       ?RestoreObjects@idRestoreGame@@QAEXXZ 100f0a30 f   SaveGame.obj
 0001:000efb00       ??0idSaveGame@@QAE@PAVidFile@@@Z 100f0b00 f   SaveGame.obj
 0001:000efc80       ??1idSaveGame@@QAE@XZ      100f0c80 f   SaveGame.obj
 0001:000efce0       ?AddObject@idSaveGame@@QAEXPBVidClass@@@Z 100f0ce0 f   SaveGame.obj
 0001:000efe30       ??0idRestoreGame@@QAE@PAVidFile@@@Z 100f0e30 f   SaveGame.obj
 0001:000efe50       ??1idRestoreGame@@QAE@XZ   100f0e50 f   SaveGame.obj
 0001:000efe80       ?DeleteObjects@idRestoreGame@@QAEXXZ 100f0e80 f   SaveGame.obj
 0001:000eff00       ?Error@idRestoreGame@@QAAXPBDZZ 100f0f00 f   SaveGame.obj
 0001:000effa0       ?ReadString@idRestoreGame@@QAEXAAVidStr@@@Z 100f0fa0 f   SaveGame.obj
 0001:000f0020       ?ReadWinding@idRestoreGame@@QAEXAAVidWinding@@@Z 100f1020 f   SaveGame.obj
 0001:000f00a0       ?ReadObject@idRestoreGame@@QAEXAAPAVidClass@@@Z 100f10a0 f   SaveGame.obj
 0001:000f00f0       ?ReadDict@idRestoreGame@@QAEXPAVidDict@@@Z 100f10f0 f   SaveGame.obj
 0001:000f01e0       ?ReadMaterial@idRestoreGame@@QAEXAAPBVidMaterial@@@Z 100f11e0 f   SaveGame.obj
 0001:000f0280       ?ReadSkin@idRestoreGame@@QAEXAAPBVidDeclSkin@@@Z 100f1280 f   SaveGame.obj
 0001:000f0320       ?ReadParticle@idRestoreGame@@QAEXAAPBVidDeclParticle@@@Z 100f1320 f   SaveGame.obj
 0001:000f03c0       ?ReadFX@idRestoreGame@@QAEXAAPBVidDeclFX@@@Z 100f13c0 f   SaveGame.obj
 0001:000f0460       ?ReadSoundShader@idRestoreGame@@QAEXAAPBVidSoundShader@@@Z 100f1460 f   SaveGame.obj
 0001:000f0500       ?ReadModelDef@idRestoreGame@@QAEXAAPBVidDeclModelDef@@@Z 100f1500 f   SaveGame.obj
 0001:000f05a0       ?ReadModel@idRestoreGame@@QAEXAAPAVidRenderModel@@@Z 100f15a0 f   SaveGame.obj
 0001:000f0630       ?ReadUserInterface@idRestoreGame@@QAEXAAPAVidUserInterface@@@Z 100f1630 f   SaveGame.obj
 0001:000f0720       ?ReadRenderEntity@idRestoreGame@@QAEXAAUrenderEntity_s@@@Z 100f1720 f   SaveGame.obj
 0001:000f08d0       ?ReadRenderLight@idRestoreGame@@QAEXAAUrenderLight_s@@@Z 100f18d0 f   SaveGame.obj
 0001:000f0a30       ?ReadRefSound@idRestoreGame@@QAEXAAUrefSound_t@@@Z 100f1a30 f   SaveGame.obj
 0001:000f0b00       ?ReadContactInfo@idRestoreGame@@QAEXAAUcontactInfo_t@@@Z 100f1b00 f   SaveGame.obj
 0001:000f0ba0       ?ReadTrace@idRestoreGame@@QAEXAAUtrace_s@@@Z 100f1ba0 f   SaveGame.obj
 0001:000f0be0       ?CreateObjects@idRestoreGame@@QAEXXZ 100f1be0 f   SaveGame.obj
 0001:000f0d40       ?Cmd_ReloadScript_f@@YAXABVidCmdArgs@@@Z 100f1d40 f   SysCmds.obj
 0001:000f0d70       ?Cmd_God_f@@YAXABVidCmdArgs@@@Z 100f1d70 f   SysCmds.obj
 0001:000f0dd0       ?Cmd_Notarget_f@@YAXABVidCmdArgs@@@Z 100f1dd0 f   SysCmds.obj
 0001:000f0e30       ?Cmd_Noclip_f@@YAXABVidCmdArgs@@@Z 100f1e30 f   SysCmds.obj
 0001:000f11a0       ?ShutdownConsoleCommands@idGameLocal@@AAEXXZ 100f21a0 f   SysCmds.obj
 0001:000f11b0       ??$ArgCompletion_Decl@$03@idCmdSystem@@SAXABVidCmdArgs@@P6AXPBD@Z@Z 100f21b0 f i SysCmds.obj
 0001:000f11d0       ??$ArgCompletion_Decl@$05@idCmdSystem@@SAXABVidCmdArgs@@P6AXPBD@Z@Z 100f21d0 f i SysCmds.obj
 0001:000f11f0       ??$ArgCompletion_Decl@$01@idCmdSystem@@SAXABVidCmdArgs@@P6AXPBD@Z@Z 100f21f0 f i SysCmds.obj
 0001:000f1210       ?Cmd_EntityList_f@@YAXABVidCmdArgs@@@Z 100f2210 f   SysCmds.obj
 0001:000f1370       ?Cmd_ActiveEntityList_f@@YAXABVidCmdArgs@@@Z 100f2370 f   SysCmds.obj
 0001:000f1430       ?Cmd_ListSpawnArgs_f@@YAXABVidCmdArgs@@@Z 100f2430 f   SysCmds.obj
 0001:000f14b0       ?Cmd_Script_f@@YAXABVidCmdArgs@@@Z 100f24b0 f   SysCmds.obj
 0001:000f1640       ?Cmd_Give_f@@YAXABVidCmdArgs@@@Z 100f2640 f   SysCmds.obj
 0001:000f1a20       ?Cmd_CenterView_f@@YAXABVidCmdArgs@@@Z 100f2a20 f   SysCmds.obj
 0001:000f1a70       ?Cmd_Kill_f@@YAXABVidCmdArgs@@@Z 100f2a70 f   SysCmds.obj
 0001:000f1b90       ?Cmd_PlayerModel_f@@YAXABVidCmdArgs@@@Z 100f2b90 f   SysCmds.obj
 0001:000f1f80       ?Cmd_GetViewpos_f@@YAXABVidCmdArgs@@@Z 100f2f80 f   SysCmds.obj
 0001:000f2000       ?Cmd_SetViewpos_f@@YAXABVidCmdArgs@@@Z 100f3000 f   SysCmds.obj
 0001:000f2100       ?Cmd_Teleport_f@@YAXABVidCmdArgs@@@Z 100f3100 f   SysCmds.obj
 0001:000f21f0       ?Cmd_Trigger_f@@YAXABVidCmdArgs@@@Z 100f31f0 f   SysCmds.obj
 0001:000f2290       ?Cmd_Damage_f@@YAXABVidCmdArgs@@@Z 100f3290 f   SysCmds.obj
 0001:000f2360       ?Cmd_Remove_f@@YAXABVidCmdArgs@@@Z 100f3360 f   SysCmds.obj
 0001:000f23d0       ?Cmd_PopLight_f@@YAXABVidCmdArgs@@@Z 100f33d0 f   SysCmds.obj
 0001:000f24e0       ?Cmd_ClearLights_f@@YAXABVidCmdArgs@@@Z 100f34e0 f   SysCmds.obj
 0001:000f28f0       ?D_DrawDebugLines@@YAXXZ   100f38f0 f   SysCmds.obj
 0001:000f32f0       ?FindEntityGUIs@@YA_NPAVidEntity@@PAPBUmodelSurface_s@@HAAH@Z 100f42f0 f   SysCmds.obj
 0001:000f3380       ?Cmd_NextGUI_f@@YAXABVidCmdArgs@@@Z 100f4380 f   SysCmds.obj
 0001:000f3900       ?Cmd_Spawn_f@@YAXABVidCmdArgs@@@Z 100f4900 f   SysCmds.obj
 0001:000f3c90       ?Cmd_TestLight_f@@YAXABVidCmdArgs@@@Z 100f4c90 f   SysCmds.obj
 0001:000f4150       ?Cmd_TestPointLight_f@@YAXABVidCmdArgs@@@Z 100f5150 f   SysCmds.obj
 0001:000f4410       ?Cmd_TestFx_f@@YAXABVidCmdArgs@@@Z 100f5410 f   SysCmds.obj
 0001:000f6530       ?Cmd_TestId_f@@YAXABVidCmdArgs@@@Z 100f7530 f   SysCmds.obj
 0001:000f6730       ?KillEntities@@YAXABVidCmdArgs@@ABVidTypeInfo@@@Z 100f7730 f   SysCmds.obj
 0001:000f6bb0       ?Cmd_KillMonsters_f@@YAXABVidCmdArgs@@@Z 100f7bb0 f   SysCmds.obj
 0001:000f6bd0       ?Cmd_KillMovables_f@@YAXABVidCmdArgs@@@Z 100f7bd0 f   SysCmds.obj
 0001:000f6c10       ?Cmd_KillRagdolls_f@@YAXABVidCmdArgs@@@Z 100f7c10 f   SysCmds.obj
 0001:000f6c50       ?InitConsoleCommands@idGameLocal@@AAEXXZ 100f7c50 f   SysCmds.obj
 0001:000f77e0       ?ArgCompletion_MapName@idCmdSystem@@SAXABVidCmdArgs@@P6AXPBD@Z@Z 100f87e0 f i SysCvar.obj
 0001:000f7810       ??$ArgCompletion_String@$1?si_gameTypeArgs@@3PAPBDA@idCmdSystem@@SAXABVidCmdArgs@@P6AXPBD@Z@Z 100f8810 f i SysCvar.obj
 0001:000f7860       ??$ArgCompletion_String@$1?ui_skinArgs@@3PAPBDA@idCmdSystem@@SAXABVidCmdArgs@@P6AXPBD@Z@Z 100f8860 f i SysCvar.obj
 0001:000f78b0       ??$ArgCompletion_String@$1?ui_teamArgs@@3PAPBDA@idCmdSystem@@SAXABVidCmdArgs@@P6AXPBD@Z@Z 100f88b0 f i SysCvar.obj
 0001:000f7900       ??$ArgCompletion_String@$1?si_readyArgs@@3PAPBDA@idCmdSystem@@SAXABVidCmdArgs@@P6AXPBD@Z@Z 100f8900 f i SysCvar.obj
 0001:000f7950       ??$ArgCompletion_String@$1?si_spectateArgs@@3PAPBDA@idCmdSystem@@SAXABVidCmdArgs@@P6AXPBD@Z@Z 100f8950 f i SysCvar.obj
 0001:000f79a0       ??$ArgCompletion_Integer@$0A@$06@idCmdSystem@@SAXABVidCmdArgs@@P6AXPBD@Z@Z 100f89a0 f i SysCvar.obj
 0001:000f79e0       ??$ArgCompletion_Integer@$0A@$03@idCmdSystem@@SAXABVidCmdArgs@@P6AXPBD@Z@Z 100f89e0 f i SysCvar.obj
 0001:000f7a20       ?FindClassInfo@idTypeInfoTools@@SAPBUclassTypeInfo_t@@PBD@Z 100f8a20 f   TypeInfo.obj
 0001:000f7a70       ?FindEnumInfo@idTypeInfoTools@@SAPBUenumTypeInfo_t@@PBD@Z 100f8a70 f   TypeInfo.obj
 0001:000f7ac0       ?IsSubclassOf@idTypeInfoTools@@SA_NPBD0@Z 100f8ac0 f   TypeInfo.obj
 0001:000f7b60       ?OutputString@idTypeInfoTools@@SAPBDPBD@Z 100f8b60 f   TypeInfo.obj
 0001:000f7c80       ?IsAllowedToChangedFromSaveGames@@YA_NPBD00000@Z 100f8c80 f   TypeInfo.obj
 0001:000f7de0       ?IsRenderHandleVariable@@YA_NPBD00000@Z 100f8de0 f   TypeInfo.obj
 0001:000f7fe0       ?WriteGameStateVariable@idTypeInfoTools@@SAXPBD00000PBXH@Z 100f8fe0 f   TypeInfo.obj
 0001:000f8130       ?TestSaveGame_f@@YAXABVidCmdArgs@@@Z 100f9130 f   TypeInfo.obj
 0001:000f8260       ?SortTypeInfoByName@@YAHPBH0@Z 100f9260 f   TypeInfo.obj
 0001:000f8290       ?SortTypeInfoBySize@@YAHPBH0@Z 100f9290 f   TypeInfo.obj
 0001:000f82c0       ?ParseTemplateArguments@idTypeInfoTools@@SA_NAAVidLexer@@AAVidStr@@@Z 100f92c0 f   TypeInfo.obj
 0001:000f8450       ?WriteVariable_r@idTypeInfoTools@@SAHPBXPBD111H@Z 100f9450 f   TypeInfo.obj
 0001:000fc180       ?WriteClass_r@idTypeInfoTools@@SAXPBXPBD111H@Z 100fd180 f   TypeInfo.obj
 0001:000fc210       ?WriteGameState@idTypeInfoTools@@SAXPBD@Z 100fd210 f   TypeInfo.obj
 0001:000fc320       ?WriteGameState_f@@YAXABVidCmdArgs@@@Z 100fd320 f   TypeInfo.obj
 0001:000fc3b0       ?ListTypeInfo_f@@YAXABVidCmdArgs@@@Z 100fd3b0 f   TypeInfo.obj
 0001:000fc610       ?Save@idClipModel@@QBEXPAVidSaveGame@@@Z 100fd610 f   Clip.obj
 0001:000fc6f0       ?CheckModel@idClipModel@@SAHPBD@Z 100fd6f0 f   Clip.obj
 0001:000fc710       ?PrintStatistics@idClip@@QAEXXZ 100fd710 f   Clip.obj
 0001:000fc780       ?Shutdown@?$idBlockAlloc@UclipLink_s@@$0EAA@@@QAEXXZ 100fd780 f i Clip.obj
 0001:000fc7d0       ?Alloc@?$idBlockAlloc@UclipLink_s@@$0EAA@@@QAEPAUclipLink_s@@XZ 100fd7d0 f i Clip.obj
 0001:000fc840       ?GetCachedTraceModel@idClipModel@@CAPAVidTraceModel@@H@Z 100fd840 f   Clip.obj
 0001:000fc850       ?SaveTraceModels@idClipModel@@SAXPAVidSaveGame@@@Z 100fd850 f   Clip.obj
 0001:000fc8c0       ?LoadModel@idClipModel@@QAE_NPBD@Z 100fd8c0 f   Clip.obj
 0001:000fc980       ?LoadModel@idClipModel@@QAEXH@Z 100fd980 f   Clip.obj
 0001:000fca30       ?Handle@idClipModel@@QBEHXZ 100fda30 f   Clip.obj
 0001:000fca90       ?GetMassProperties@idClipModel@@QBEXMAAMAAVidVec3@@AAVidMat3@@@Z 100fda90 f   Clip.obj
 0001:000fcbb0       ?Unlink@idClipModel@@QAEXXZ 100fdbb0 f   Clip.obj
 0001:000fcc10       ?Link_r@idClipModel@@AAEXPAUclipSector_s@@@Z 100fdc10 f   Clip.obj
 0001:000fcca0       ?Link@idClipModel@@QAEXAAVidClip@@@Z 100fdca0 f   Clip.obj
 0001:000fce60       ?Link@idClipModel@@QAEXAAVidClip@@PAVidEntity@@HABVidVec3@@ABVidMat3@@H@Z 100fde60 f   Clip.obj
 0001:000fcf20       ?CreateClipSectors_r@idClip@@AAEPAUclipSector_s@@HABVidBounds@@AAVidVec3@@@Z 100fdf20 f   Clip.obj
 0001:000fd0d0       ?Shutdown@idClip@@QAEXXZ   100fe0d0 f   Clip.obj
 0001:000fd1a0       ?ClipModelsTouchingBounds_r@idClip@@ABEXPBUclipSector_s@@AAUlistParms_s@@@Z 100fe1a0 f   Clip.obj
 0001:000fd2c0       ?TraceModelForClipModel@idClip@@ABEPBVidTraceModel@@PBVidClipModel@@@Z 100fe2c0 f   Clip.obj
 0001:000fd330       ??4idRotation@@QAEAAV0@ABV0@@Z 100fe330 f i Clip.obj
 0001:000fd3a0       ?TranslationModel@idClip@@QAEXAAUtrace_s@@ABVidVec3@@1PBVidClipModel@@ABVidMat3@@HH13@Z 100fe3a0 f   Clip.obj
 0001:000fd3f0       ?RotationModel@idClip@@QAEXAAUtrace_s@@ABVidVec3@@ABVidRotation@@PBVidClipModel@@ABVidMat3@@HH14@Z 100fe3f0 f   Clip.obj
 0001:000fd440       ?ContentsModel@idClip@@QAEHABVidVec3@@PBVidClipModel@@ABVidMat3@@HH02@Z 100fe440 f   Clip.obj
 0001:000fd490       ?ClearTraceModelCache@idClipModel@@SAXXZ 100fe490 f   Clip.obj
 0001:000fd510       ?RestoreTraceModels@idClipModel@@SAXPAVidRestoreGame@@@Z 100fe510 f   Clip.obj
 0001:000fd730       ?Init@idClipModel@@AAEXXZ  100fe730 f   Clip.obj
 0001:000fd7f0       ??0idClipModel@@QAE@XZ     100fe7f0 f   Clip.obj
 0001:000fd800       ??0idClipModel@@QAE@PBD@Z  100fe800 f   Clip.obj
 0001:000fd820       ??0idClipModel@@QAE@H@Z    100fe820 f   Clip.obj
 0001:000fd840       ??1idClipModel@@QAE@XZ     100fe840 f   Clip.obj
 0001:000fd890       ?Restore@idClipModel@@QAEXPAVidRestoreGame@@@Z 100fe890 f   Clip.obj
 0001:000fda20       ?SetPosition@idClipModel@@QAEXABVidVec3@@ABVidMat3@@@Z 100fea20 f   Clip.obj
 0001:000fda80       ??0idClip@@QAE@XZ          100fea80 f   Clip.obj
 0001:000fdae0       ?ClipModelsTouchingBounds@idClip@@QBEHABVidBounds@@HPAPAVidClipModel@@H@Z 100feae0 f   Clip.obj
 0001:000fdbf0       ?EntitiesTouchingBounds@idClip@@QBEHABVidBounds@@HPAPAVidEntity@@H@Z 100febf0 f   Clip.obj
 0001:000fdca0       ?GetTraceClipModels@idClip@@ABEHABVidBounds@@HPBVidEntity@@PAPAVidClipModel@@@Z 100feca0 f   Clip.obj
 0001:000fdd40       ?TraceRenderModel@idClip@@ABEXAAUtrace_s@@ABVidVec3@@1MABVidMat3@@PAVidClipModel@@@Z 100fed40 f   Clip.obj
 0001:000fdec0       ?Translation@idClip@@QAE_NAAUtrace_s@@ABVidVec3@@1PBVidClipModel@@ABVidMat3@@HPBVidEntity@@@Z 100feec0 f   Clip.obj
 0001:000fe2a0       ?Rotation@idClip@@QAE_NAAUtrace_s@@ABVidVec3@@ABVidRotation@@PBVidClipModel@@ABVidMat3@@HPBVidEntity@@@Z 100ff2a0 f   Clip.obj
 0001:000fe5b0       ?Motion@idClip@@QAE_NAAUtrace_s@@ABVidVec3@@1ABVidRotation@@PBVidClipModel@@ABVidMat3@@HPBVidEntity@@@Z 100ff5b0 f   Clip.obj
 0001:000fef80       ?Contacts@idClip@@QAEHPAUcontactInfo_t@@HABVidVec3@@ABVidVec6@@MPBVidClipModel@@ABVidMat3@@HPBVidEntity@@@Z 100fff80 f   Clip.obj
 0001:000ff2b0       ?Contents@idClip@@QAEHABVidVec3@@PBVidClipModel@@ABVidMat3@@HPBVidEntity@@@Z 101002b0 f   Clip.obj
 0001:000ff570       ?DrawClipModels@idClip@@QAEXABVidVec3@@MPBVidEntity@@@Z 10100570 f   Clip.obj
 0001:000ff6c0       ?AllocTraceModel@idClipModel@@CAHABVidTraceModel@@@Z 101006c0 f   Clip.obj
 0001:000ff9c0       ?LoadModel@idClipModel@@QAEXABVidTraceModel@@@Z 101009c0 f   Clip.obj
 0001:000ffa60       ??0idClipModel@@QAE@ABVidTraceModel@@@Z 10100a60 f   Clip.obj
 0001:000ffa80       ??0idClipModel@@QAE@PBV0@@Z 10100a80 f   Clip.obj
 0001:000ffb90       ?Init@idClip@@QAEXXZ       10100b90 f   Clip.obj
 0001:000ffd50       ?TranslationEntities@idClip@@QAEXAAUtrace_s@@ABVidVec3@@1PBVidClipModel@@ABVidMat3@@HPBVidEntity@@@Z 10100d50 f   Clip.obj
 0001:001000a0       ?GetType@idForce@@UBEPAVidTypeInfo@@XZ 101010a0 f   Force.obj
 0001:001000b0       ?DeletePhysics@idForce@@SAXPBVidPhysics@@@Z 101010b0 f   Force.obj
 0001:001000e0       ?ClearForceList@idForce@@SAXXZ 101010e0 f   Force.obj
 0001:00100120       ??0idForce@@QAE@XZ         10101120 f   Force.obj
 0001:001002e0       ??1idForce@@UAE@XZ         101012e0 f   Force.obj
 0001:00100350       ?CreateInstance@idForce@@SAPAVidClass@@XZ 10101350 f   Force.obj
 0001:001003f0       ??_GidForce@@UAEPAXI@Z     101013f0 f i Force.obj
 0001:001003f0       ??_EidForce@@UAEPAXI@Z     101013f0 f i Force.obj
 0001:00100410       ?GetType@idForce_Constant@@UBEPAVidTypeInfo@@XZ 10101410 f   Force_Constant.obj
 0001:00100420       ??1idForce_Constant@@UAE@XZ 10101420 f   Force_Constant.obj
 0001:00100430       ?Save@idForce_Constant@@QBEXPAVidSaveGame@@@Z 10101430 f   Force_Constant.obj
 0001:00100460       ?Restore@idForce_Constant@@QAEXPAVidRestoreGame@@@Z 10101460 f   Force_Constant.obj
 0001:00100490       ?SetPhysics@idForce_Constant@@QAEXPAVidPhysics@@@Z 10101490 f   Force_Constant.obj
 0001:001004a0       ?RemovePhysics@idForce_Constant@@UAEXPBVidPhysics@@@Z 101014a0 f   Force_Constant.obj
 0001:001004c0       ??0idForce_Constant@@QAE@XZ 101014c0 f   Force_Constant.obj
 0001:00100510       ??_GidForce_Constant@@UAEPAXI@Z 10101510 f i Force_Constant.obj
 0001:00100510       ??_EidForce_Constant@@UAEPAXI@Z 10101510 f i Force_Constant.obj
 0001:00100540       ?SetPosition@idForce_Constant@@QAEXPAVidPhysics@@HABVidVec3@@@Z 10101540 f   Force_Constant.obj
 0001:00100570       ?SetForce@idForce_Constant@@QAEXABVidVec3@@@Z 10101570 f   Force_Constant.obj
 0001:00100590       ?Evaluate@idForce_Constant@@UAEXH@Z 10101590 f   Force_Constant.obj
 0001:00100670       ?CreateInstance@idForce_Constant@@SAPAVidClass@@XZ 10101670 f   Force_Constant.obj
 0001:00100710       ?GetType@idForce_Drag@@UBEPAVidTypeInfo@@XZ 10101710 f   Force_Drag.obj
 0001:00100720       ??1idForce_Drag@@UAE@XZ    10101720 f   Force_Drag.obj
 0001:00100730       ?Init@idForce_Drag@@QAEXM@Z 10101730 f   Force_Drag.obj
 0001:00100760       ?RemovePhysics@idForce_Drag@@UAEXPBVidPhysics@@@Z 10101760 f   Force_Drag.obj
 0001:00100780       ??0idForce_Drag@@QAE@XZ    10101780 f   Force_Drag.obj
 0001:00100800       ??_EidForce_Drag@@UAEPAXI@Z 10101800 f i Force_Drag.obj
 0001:00100800       ??_GidForce_Drag@@UAEPAXI@Z 10101800 f i Force_Drag.obj
 0001:00100830       ?SetPhysics@idForce_Drag@@QAEXPAVidPhysics@@HABVidVec3@@@Z 10101830 f   Force_Drag.obj
 0001:00100860       ?SetDragPosition@idForce_Drag@@QAEXABVidVec3@@@Z 10101860 f   Force_Drag.obj
 0001:00100880       ?Evaluate@idForce_Drag@@UAEXH@Z 10101880 f   Force_Drag.obj
 0001:00100e50       ?CreateInstance@idForce_Drag@@SAPAVidClass@@XZ 10101e50 f   Force_Drag.obj
 0001:00100ef0       ?GetType@idForce_Field@@UBEPAVidTypeInfo@@XZ 10101ef0 f   Force_Field.obj
 0001:00100f00       ?Save@idForce_Field@@QBEXPAVidSaveGame@@@Z 10101f00 f   Force_Field.obj
 0001:00100f70       ?Restore@idForce_Field@@QAEXPAVidRestoreGame@@@Z 10101f70 f   Force_Field.obj
 0001:00100fe0       ?SetClipModel@idForce_Field@@QAEXPAVidClipModel@@@Z 10101fe0 f   Force_Field.obj
 0001:00101020       ?Explosion@idForce_Field@@QAEXM@Z 10102020 f   Force_Field.obj
 0001:00101040       ?Implosion@idForce_Field@@QAEXM@Z 10102040 f   Force_Field.obj
 0001:00101060       ?RandomTorque@idForce_Field@@QAEXM@Z 10102060 f   Force_Field.obj
 0001:00101070       ??0idForce_Field@@QAE@XZ   10102070 f   Force_Field.obj
 0001:001010b0       ??1idForce_Field@@UAE@XZ   101020b0 f   Force_Field.obj
 0001:00101120       ?Uniform@idForce_Field@@QAEXABVidVec3@@@Z 10102120 f   Force_Field.obj
 0001:001011f0       ?Evaluate@idForce_Field@@UAEXH@Z 101021f0 f   Force_Field.obj
 0001:00101a00       ?CreateInstance@idForce_Field@@SAPAVidClass@@XZ 10102a00 f   Force_Field.obj
 0001:00101ad0       ??_EidForce_Field@@UAEPAXI@Z 10102ad0 f i Force_Field.obj
 0001:00101ad0       ??_GidForce_Field@@UAEPAXI@Z 10102ad0 f i Force_Field.obj
 0001:00101af0       ?GetType@idForce_Spring@@UBEPAVidTypeInfo@@XZ 10102af0 f   Force_Spring.obj
 0001:00101b00       ??1idForce_Spring@@UAE@XZ  10102b00 f   Force_Spring.obj
 0001:00101b10       ?InitSpring@idForce_Spring@@QAEXMMMM@Z 10102b10 f   Force_Spring.obj
 0001:00101b30       ?RemovePhysics@idForce_Spring@@UAEXPBVidPhysics@@@Z 10102b30 f   Force_Spring.obj
 0001:00101b50       ??0idForce_Spring@@QAE@XZ  10102b50 f   Force_Spring.obj
 0001:00101bc0       ??_EidForce_Spring@@UAEPAXI@Z 10102bc0 f i Force_Spring.obj
 0001:00101bc0       ??_GidForce_Spring@@UAEPAXI@Z 10102bc0 f i Force_Spring.obj
 0001:00101bf0       ?SetPosition@idForce_Spring@@QAEXPAVidPhysics@@HABVidVec3@@0H1@Z 10102bf0 f   Force_Spring.obj
 0001:00101c40       ?CreateInstance@idForce_Spring@@SAPAVidClass@@XZ 10102c40 f   Force_Spring.obj
 0001:00101ce0       ?Evaluate@idForce_Spring@@UAEXH@Z 10102ce0 f   Force_Spring.obj
 0001:00102310       ?CreateInstance@idPhysics@@SAPAVidClass@@XZ 10103310 f   Physics.obj
 0001:00102330       ?GetType@idPhysics@@UBEPAVidTypeInfo@@XZ 10103330 f   Physics.obj
 0001:00102340       ??1idPhysics@@UAE@XZ       10103340 f   Physics.obj
 0001:00102350       ??_GidPhysics@@UAEPAXI@Z   10103350 f i Physics.obj
 0001:00102350       ??_EidPhysics@@UAEPAXI@Z   10103350 f i Physics.obj
 0001:00102380       ?SnapTimeToPhysicsFrame@idPhysics@@SAHH@Z 10103380 f   Physics.obj
 0001:001023a0       ?SetClipBox@idPhysics@@UAEXABVidBounds@@M@Z 101033a0 f   Physics.obj
 0001:00102450       ?GetType@idPhysics_Actor@@UBEPAVidTypeInfo@@XZ 10103450 f   Physics_Actor.obj
 0001:00102460       ?GetGravityAxis@idPhysics_Actor@@QBEABVidMat3@@XZ 10103460 f   Physics_Actor.obj
 0001:00102470       ?GetMasterDeltaYaw@idPhysics_Actor@@QBEMXZ 10103470 f   Physics_Actor.obj
 0001:00102480       ?SetClipModel@idPhysics_Actor@@UAEXPAVidClipModel@@MH_N@Z 10103480 f   Physics_Actor.obj
 0001:001024d0       ?GetClipModel@idPhysics_Actor@@UBEPAVidClipModel@@H@Z 101034d0 f   Physics_Actor.obj
 0001:001024e0       ?GetDefaultSurfaceType@idAnimatedEntity@@UBEHXZ 101034e0 f   Entity.obj
 0001:001024e0       ?GetNumClipModels@idPhysics_RigidBody@@UBEHXZ 101034e0 f   Physics_RigidBody.obj
 0001:001024e0       ?GetNumClipModels@idPhysics_Actor@@UBEHXZ 101034e0 f   Physics_Actor.obj
 0001:001024f0       ?SetMass@idPhysics_Actor@@UAEXMH@Z 101034f0 f   Physics_Actor.obj
 0001:00102510       ?GetMass@idPhysics_Actor@@UBEMH@Z 10103510 f   Physics_Actor.obj
 0001:00102520       ?SetContents@idPhysics_Actor@@UAEXHH@Z 10103520 f   Physics_Actor.obj
 0001:00102530       ?GetContents@idPhysics_Actor@@UBEHH@Z 10103530 f   Physics_Actor.obj
 0001:00102540       ?GetBounds@idPhysics_Actor@@UBEABVidBounds@@H@Z 10103540 f   Physics_Actor.obj
 0001:00102550       ?GetAbsBounds@idPhysics_Actor@@UBEABVidBounds@@H@Z 10103550 f   Physics_Actor.obj
 0001:00102560       ?IsPushable@idPhysics_Actor@@UBE_NXZ 10103560 f   Physics_Actor.obj
 0001:00102570       ?GetOrigin@idPhysics_Actor@@UBEABVidVec3@@H@Z 10103570 f   Physics_Actor.obj
 0001:00102580       ?GetAxis@idPhysics_Actor@@UBEABVidMat3@@H@Z 10103580 f   Physics_Actor.obj
 0001:00102590       ?ClipRotation@idPhysics_Actor@@UBEXAAUtrace_s@@ABVidRotation@@PBVidClipModel@@@Z 10103590 f   Physics_Actor.obj
 0001:00102610       ?ClipContents@idPhysics_Actor@@UBEHPBVidClipModel@@@Z 10103610 f   Physics_Actor.obj
 0001:00102670       ?DisableClip@idPhysics_Actor@@UAEXXZ 10103670 f   Physics_Actor.obj
 0001:00102680       ?EnableClip@idPhysics_Actor@@UAEXXZ 10103680 f   Physics_Actor.obj
 0001:00102690       ?UnlinkClip@idPhysics_Actor@@UAEXXZ 10103690 f   Physics_Actor.obj
 0001:001026a0       ?LinkClip@idPhysics_Actor@@UAEXXZ 101036a0 f   Physics_Actor.obj
 0001:001026c0       ??1idPhysics_Actor@@UAE@XZ 101036c0 f   Physics_Actor.obj
 0001:00102730       ?Save@idPhysics_Actor@@QBEXPAVidSaveGame@@@Z 10103730 f   Physics_Actor.obj
 0001:001027b0       ?Restore@idPhysics_Actor@@QAEXPAVidRestoreGame@@@Z 101037b0 f   Physics_Actor.obj
 0001:00102820       ?GetGroundEntity@idPhysics_Actor@@QBEPAVidEntity@@XZ 10103820 f   Physics_Actor.obj
 0001:00102850       ?ClipTranslation@idPhysics_Actor@@UBEXAAUtrace_s@@ABVidVec3@@PBVidClipModel@@@Z 10103850 f   Physics_Actor.obj
 0001:00102930       ?EvaluateContacts@idPhysics_Actor@@UAE_NXZ 10103930 f   Physics_Actor.obj
 0001:00102960       ?SetClipModelAxis@idPhysics_Actor@@QAEXXZ 10103960 f   Physics_Actor.obj
 0001:00102b90       ?SetGravity@idPhysics_Actor@@UAEXABVidVec3@@@Z 10103b90 f   Physics_Actor.obj
 0001:00102be0       ??0idPhysics_Actor@@QAE@XZ 10103be0 f   Physics_Actor.obj
 0001:00102c60       ?CreateInstance@idPhysics_Actor@@SAPAVidClass@@XZ 10103c60 f   Physics_Actor.obj
 0001:00102d00       ?GetType@idPhysics_AF@@UBEPAVidTypeInfo@@XZ 10103d00 f   Physics_AF.obj
 0001:00102d10       ?SetBody1@idAFConstraint@@UAEXPAVidAFBody@@@Z 10103d10 f   Physics_AF.obj
 0001:00102d30       ?SetBody2@idAFConstraint@@UAEXPAVidAFBody@@@Z 10103d30 f   Physics_AF.obj
 0001:00102d50       ?Save@idAFConstraint@@UBEXPAVidSaveGame@@@Z 10103d50 f   Physics_AF.obj
 0001:00102d60       ?Restore@idAFConstraint@@UAEXPAVidRestoreGame@@@Z 10103d60 f   Physics_AF.obj
 0001:00102d80       ?DebugDraw@idAFConstraint_Fixed@@UAEXXZ 10103d80 f   Physics_AF.obj
 0001:00102df0       ?Save@idAFConstraint_Fixed@@UBEXPAVidSaveGame@@@Z 10103df0 f   Physics_AF.obj
 0001:00102e30       ?Restore@idAFConstraint_Fixed@@UAEXPAVidRestoreGame@@@Z 10103e30 f   Physics_AF.obj
 0001:00102e70       ?SetNoLimit@idAFConstraint_BallAndSocketJoint@@QAEXXZ 10103e70 f   Physics_AF.obj
 0001:00102eb0       ?Save@idAFConstraint_BallAndSocketJoint@@UBEXPAVidSaveGame@@@Z 10103eb0 f   Physics_AF.obj
 0001:00102f30       ?Restore@idAFConstraint_BallAndSocketJoint@@UAEXPAVidRestoreGame@@@Z 10103f30 f   Physics_AF.obj
 0001:00102fb0       ?SetNoLimit@idAFConstraint_UniversalJoint@@QAEXXZ 10103fb0 f   Physics_AF.obj
 0001:00102ff0       ?Translate@idAFConstraint_UniversalJoint@@UAEXABVidVec3@@@Z 10103ff0 f   Physics_AF.obj
 0001:00103060       ?Save@idAFConstraint_UniversalJoint@@UBEXPAVidSaveGame@@@Z 10104060 f   Physics_AF.obj
 0001:00103110       ?Restore@idAFConstraint_UniversalJoint@@UAEXPAVidRestoreGame@@@Z 10104110 f   Physics_AF.obj
 0001:001031c0       ?SetNoLimit@idAFConstraint_Hinge@@QAEXXZ 101041c0 f   Physics_AF.obj
 0001:001031f0       ?SetSteerSpeed@idAFConstraint_Hinge@@QAEXM@Z 101041f0 f   Physics_AF.obj
 0001:00103210       ?Translate@idAFConstraint_Hinge@@UAEXABVidVec3@@@Z 10104210 f   Physics_AF.obj
 0001:00103270       ?Save@idAFConstraint_Hinge@@UBEXPAVidSaveGame@@@Z 10104270 f   Physics_AF.obj
 0001:00103360       ??1idVecX@@QAE@XZ          10104360 f i Physics_AF.obj
 0001:00103390       ?Save@idAFEntity_SteamPipe@@QBEXPAVidSaveGame@@@Z 10104390 f   AFEntity.obj
 0001:00103390       ?SetGravity@idPhysics_StaticMulti@@UAEXABVidVec3@@@Z 10104390 f   Physics_StaticMulti.obj
 0001:00103390       ?ApplyFriction@idAFConstraint_ConeLimit@@MAEXM@Z 10104390 f   Physics_AF.obj
 0001:00103390       ?Event_SetMoveSound@idMover@@AAEXPBD@Z 10104390 f   Mover.obj
 0001:00103390       ?Evaluate@idAFConstraint_HingeSteering@@MAEXM@Z 10104390 f   Physics_AF.obj
 0001:00103390       ?WriteToSnapshot@idEntity@@UBEXAAVidBitMsgDelta@@@Z 10104390 f   Entity.obj
 0001:00103390       ?Evaluate@idAFConstraint_Contact@@MAEXM@Z 10104390 f   Physics_AF.obj
 0001:00103390       ?SetGravity@idPhysics_Static@@UAEXABVidVec3@@@Z 10104390 f   Physics_Static.obj
 0001:00103390       ?Translate@idAFConstraint_BallAndSocketJointFriction@@UAEXABVidVec3@@@Z 10104390 f   Physics_AF.obj
 0001:00103390       ?Translate@idAFConstraint_HingeSteering@@UAEXABVidVec3@@@Z 10104390 f   Physics_AF.obj
 0001:00103390       ?SetPushed@idPhysics_Static@@UAEXH@Z 10104390 f   Physics_Static.obj
 0001:00103390       ?RemoveContactEntity@idPhysics_Static@@UAEXPAVidEntity@@@Z 10104390 f   Physics_Static.obj
 0001:00103390       ?Rotate@idAFConstraint_ContactFriction@@UAEXABVidRotation@@@Z 10104390 f   Physics_AF.obj
 0001:00103390       ?Rotate@idAFConstraint@@UAEXABVidRotation@@@Z 10104390 f   Physics_AF.obj
 0001:00103390       ?Evaluate@idAFConstraint_PyramidLimit@@MAEXM@Z 10104390 f   Physics_AF.obj
 0001:00103390       ?Evaluate@idAFConstraint_ConeLimit@@MAEXM@Z 10104390 f   Physics_AF.obj
 0001:00103390       ?UpdateTime@idPhysics_RigidBody@@UAEXH@Z 10104390 f   Physics_RigidBody.obj
 0001:00103390       ?ReadFromSnapshot@idPhysics_Base@@UAEXABVidBitMsgDelta@@@Z 10104390 f   Physics_Base.obj
 0001:00103390       ?Evaluate@idAFConstraint_UniversalJointFriction@@MAEXM@Z 10104390 f   Physics_AF.obj
 0001:00103390       ?AddContactEntity@idPhysics_StaticMulti@@UAEXPAVidEntity@@@Z 10104390 f   Physics_StaticMulti.obj
 0001:00103390       ?UpdateTime@idPhysics_AF@@UAEXH@Z 10104390 f   Physics_AF.obj
 0001:00103390       ?ApplyFriction@idAFConstraint_Spring@@MAEXM@Z 10104390 f   Physics_AF.obj
 0001:00103390       ?SelectTimeGroup@idGameLocal@@EAEXH@Z 10104390 f   Game_local.obj
 0001:00103390       ?GetMapLoadingGUI@idGameLocal@@EAEXQAD@Z 10104390 f   Game_local.obj
 0001:00103390       ?UpdateTime@idPhysics_Static@@UAEXH@Z 10104390 f   Physics_Static.obj
 0001:00103390       ?Rotate@idAFConstraint_BallAndSocketJointFriction@@UAEXABVidRotation@@@Z 10104390 f   Physics_AF.obj
 0001:00103390       ?Rotate@idAFConstraint_UniversalJointFriction@@UAEXABVidRotation@@@Z 10104390 f   Physics_AF.obj
 0001:00103390       ?ApplyFriction@idAFConstraint_Suspension@@MAEXM@Z 10104390 f   Physics_AF.obj
 0001:00103390       ?AddContactEntity@idPhysics_Static@@UAEXPAVidEntity@@@Z 10104390 f   Physics_Static.obj
 0001:00103390       ?UpdateTime@idPhysics_StaticMulti@@UAEXH@Z 10104390 f   Physics_StaticMulti.obj
 0001:00103390       ?InternalSetBool@idCVar@@EAEX_N@Z 10104390 f   Game_local.obj
 0001:00103390       ?Rotate@idAFConstraint_Contact@@UAEXABVidRotation@@@Z 10104390 f   Physics_AF.obj
 0001:00103390       ?InternalSetString@idCVar@@EAEXPBD@Z 10104390 f   Game_local.obj
 0001:00103390       ?Translate@idAFConstraint_Suspension@@UAEXABVidVec3@@@Z 10104390 f   Physics_AF.obj
 0001:00103390       ?Save@idPhysics@@QBEXPAVidSaveGame@@@Z 10104390 f   Physics.obj
 0001:00103390       ?ApplyFriction@idAFConstraint_PyramidLimit@@MAEXM@Z 10104390 f   Physics_AF.obj
 0001:00103390       ?Translate@idAFConstraint_ContactFriction@@UAEXABVidVec3@@@Z 10104390 f   Physics_AF.obj
 0001:00103390       ?RemoveContactEntity@idPhysics_StaticMulti@@UAEXPAVidEntity@@@Z 10104390 f   Physics_StaticMulti.obj
 0001:00103390       ?Restore@idClass@@QAEXPAVidRestoreGame@@@Z 10104390 f   Class.obj
 0001:00103390       ?Evaluate@idForce@@UAEXH@Z 10104390 f   Force.obj
 0001:00103390       ?UpdateTime@idPhysics_Base@@UAEXH@Z 10104390 f   Physics_Base.obj
 0001:00103390       ?Evaluate@idAFConstraint_HingeFriction@@MAEXM@Z 10104390 f   Physics_AF.obj
 0001:00103390       ?ApplyFriction@idAFConstraint_UniversalJointFriction@@MAEXM@Z 10104390 f   Physics_AF.obj
 0001:00103390       ?ApplyFriction@idAFConstraint_BallAndSocketJointFriction@@MAEXM@Z 10104390 f   Physics_AF.obj
 0001:00103390       ?Event_SetAccelSound@idMover@@AAEXPBD@Z 10104390 f   Mover.obj
 0001:00103390       ?Event_SetDecelSound@idMover@@AAEXPBD@Z 10104390 f   Mover.obj
 0001:00103390       ?Rotate@idAFConstraint_Suspension@@UAEXABVidRotation@@@Z 10104390 f   Physics_AF.obj
 0001:00103390       ?ApplyFriction@idAFConstraint_ContactFriction@@MAEXM@Z 10104390 f   Physics_AF.obj
 0001:00103390       ?RemovePhysics@idForce@@UAEXPBVidPhysics@@@Z 10104390 f   Force.obj
 0001:00103390       ?Save@idTestModel@@QAEXPAVidSaveGame@@@Z 10104390 f   Anim_Testmodel.obj
 0001:00103390       ?Translate@idAFConstraint@@UAEXABVidVec3@@@Z 10104390 f   Physics_AF.obj
 0001:00103390       ?Evaluate@idAFConstraint_ContactFriction@@MAEXM@Z 10104390 f   Physics_AF.obj
 0001:00103390       ?Translate@idAFConstraint_HingeFriction@@UAEXABVidVec3@@@Z 10104390 f   Physics_AF.obj
 0001:00103390       ?Event_Assert@idThread@@AAEXM@Z 10104390 f   Script_Thread.obj
 0001:00103390       ?Rotate@idAFConstraint_HingeSteering@@UAEXABVidRotation@@@Z 10104390 f   Physics_AF.obj
 0001:00103390       ?Translate@idAFConstraint_UniversalJointFriction@@UAEXABVidVec3@@@Z 10104390 f   Physics_AF.obj
 0001:00103390       ?Translate@idAFConstraint_Contact@@UAEXABVidVec3@@@Z 10104390 f   Physics_AF.obj
 0001:00103390       ?Save@idClass@@QBEXPAVidSaveGame@@@Z 10104390 f   Class.obj
 0001:00103390       ?SetPushed@idPhysics_StaticMulti@@UAEXH@Z 10104390 f   Physics_StaticMulti.obj
 0001:00103390       ?ApplyFriction@idAFConstraint_Slider@@MAEXM@Z 10104390 f   Physics_AF.obj
 0001:00103390       ?Restore@idPhysics@@QAEXPAVidRestoreGame@@@Z 10104390 f   Physics.obj
 0001:00103390       ?ApplyFriction@idAFConstraint_HingeSteering@@MAEXM@Z 10104390 f   Physics_AF.obj
 0001:00103390       ?ApplyFriction@idAFConstraint@@MAEXM@Z 10104390 f   Physics_AF.obj
 0001:00103390       ?ReadFromSnapshot@idEntity@@UAEXABVidBitMsgDelta@@@Z 10104390 f   Entity.obj
 0001:00103390       ?Save@idLiquid@@QBEXPAVidSaveGame@@@Z 10104390 f   Misc.obj
 0001:00103390       ?UpdateTime@idPhysics_Player@@UAEXH@Z 10104390 f   Physics_Player.obj
 0001:00103390       ?InternalSetInteger@idCVar@@EAEXH@Z 10104390 f   Game_local.obj
 0001:00103390       ?ApplyFriction@idAFConstraint_Fixed@@MAEXM@Z 10104390 f   Physics_AF.obj
 0001:00103390       ?WriteToSnapshot@idPhysics_Base@@UBEXAAVidBitMsgDelta@@@Z 10104390 f   Physics_Base.obj
 0001:00103390       ?Rotate@idAFConstraint_HingeFriction@@UAEXABVidRotation@@@Z 10104390 f   Physics_AF.obj
 0001:00103390       ?SetPushed@idPhysics_Base@@UAEXH@Z 10104390 f   Physics_Base.obj
 0001:00103390       ?Save@idWorldspawn@@QAEXPAVidRestoreGame@@@Z 10104390 f   WorldSpawn.obj
 0001:00103390       ?Evaluate@idAFConstraint@@MAEXM@Z 10104390 f   Physics_AF.obj
 0001:00103390       ?InternalSetFloat@idCVar@@EAEXM@Z 10104390 f   Game_local.obj
 0001:00103390       ?Evaluate@idAFConstraint_BallAndSocketJointFriction@@MAEXM@Z 10104390 f   Physics_AF.obj
 0001:00103390       ?Restore@idLiquid@@QAEXPAVidRestoreGame@@@Z 10104390 f   Misc.obj
 0001:00103390       ?UpdateTime@idPhysics_Monster@@UAEXH@Z 10104390 f   Physics_Monster.obj
 0001:00103390       ?ApplyFriction@idAFConstraint_HingeFriction@@MAEXM@Z 10104390 f   Physics_AF.obj
 0001:001033a0       ?Save@idAFConstraint_HingeSteering@@UBEXPAVidSaveGame@@@Z 101043a0 f   Physics_AF.obj
 0001:001033e0       ?Restore@idAFConstraint_HingeSteering@@UAEXPAVidRestoreGame@@@Z 101043e0 f   Physics_AF.obj
 0001:00103420       ?Save@idAFConstraint_Slider@@UBEXPAVidSaveGame@@@Z 10104420 f   Physics_AF.obj
 0001:00103470       ?Restore@idAFConstraint_Slider@@UAEXPAVidRestoreGame@@@Z 10104470 f   Physics_AF.obj
 0001:001034c0       ?SetSpring@idAFConstraint_Spring@@QAEXMMMM@Z 101044c0 f   Physics_AF.obj
 0001:001034f0       ?SetLimit@idAFConstraint_Spring@@QAEXMM@Z 101044f0 f   Physics_AF.obj
 0001:00103510       ?Translate@idAFConstraint_Slider@@UAEXABVidVec3@@@Z 10104510 f   Physics_AF.obj
 0001:00103510       ?Translate@idAFConstraint_Spring@@UAEXABVidVec3@@@Z 10104510 f   Physics_AF.obj
 0001:00103550       ?Save@idAFConstraint_Spring@@UBEXPAVidSaveGame@@@Z 10104550 f   Physics_AF.obj
 0001:001035f0       ?Restore@idAFConstraint_Spring@@UAEXPAVidRestoreGame@@@Z 101045f0 f   Physics_AF.obj
 0001:00103680       ?GetCenter@idAFConstraint_Contact@@UAEXAAVidVec3@@@Z 10104680 f   Physics_AF.obj
 0001:001036b0       ?DebugDraw@idAFConstraint_Contact@@UAEXXZ 101046b0 f   Physics_AF.obj
 0001:001039b0       ?Setup@idAFConstraint_ConeLimit@@QAEXPAVidAFBody@@0ABVidVec3@@1M1@Z 101049b0 f   Physics_AF.obj
 0001:00103c10       ?DebugDraw@idAFConstraint_ConeLimit@@UAEXXZ 10104c10 f   Physics_AF.obj
 0001:001042b0       ?Save@idAFConstraint_ConeLimit@@UBEXPAVidSaveGame@@@Z 101052b0 f   Physics_AF.obj
 0001:00104340       ?Restore@idAFConstraint_ConeLimit@@UAEXPAVidRestoreGame@@@Z 10105340 f   Physics_AF.obj
 0001:001043c0       ?Setup@idAFConstraint_PyramidLimit@@QAEXPAVidAFBody@@0ABVidVec3@@11MM1@Z 101053c0 f   Physics_AF.obj
 0001:001047d0       ?Translate@idAFConstraint_PyramidLimit@@UAEXABVidVec3@@@Z 101057d0 f   Physics_AF.obj
 0001:001047d0       ?Translate@idAFConstraint_ConeLimit@@UAEXABVidVec3@@@Z 101057d0 f   Physics_AF.obj
 0001:001047d0       ?Translate@idAFConstraint_Fixed@@UAEXABVidVec3@@@Z 101057d0 f   Physics_AF.obj
 0001:00104810       ?Save@idAFConstraint_PyramidLimit@@UBEXPAVidSaveGame@@@Z 10105810 f   Physics_AF.obj
 0001:001048d0       ?Restore@idAFConstraint_PyramidLimit@@UAEXPAVidRestoreGame@@@Z 101058d0 f   Physics_AF.obj
 0001:00104980       ?Setup@idAFConstraint_Suspension@@QAEXPBDPAVidAFBody@@ABVidVec3@@ABVidMat3@@PAVidClipModel@@@Z 10105980 f   Physics_AF.obj
 0001:00104be0       ?SetSuspension@idAFConstraint_Suspension@@QAEXMMMMM@Z 10105be0 f   Physics_AF.obj
 0001:00104c20       ?GetWheelOrigin@idAFConstraint_Suspension@@QBE?BVidVec3@@XZ 10105c20 f   Physics_AF.obj
 0001:00104cc0       ??4AFBodyPState_s@@QAEAAU0@ABU0@@Z 10105cc0 f i Physics_AF.obj
 0001:00104d60       ?Init@idAFBody@@QAEXXZ     10105d60 f   Physics_AF.obj
 0001:001052a0       ?SetClipModel@idAFBody@@QAEXPAVidClipModel@@@Z 101062a0 f   Physics_AF.obj
 0001:001052e0       ?SetFriction@idAFBody@@QAEXMMM@Z 101062e0 f   Physics_AF.obj
 0001:00105370       ?SetFrictionDirection@idAFBody@@QAEXABVidVec3@@@Z 10106370 f   Physics_AF.obj
 0001:00105440       ?GetFrictionDirection@idAFBody@@QBE_NAAVidVec3@@@Z 10106440 f   Physics_AF.obj
 0001:001054d0       ?SetContactMotorDirection@idAFBody@@QAEXABVidVec3@@@Z 101064d0 f   Physics_AF.obj
 0001:001055a0       ?GetContactMotorDirection@idAFBody@@QBE_NAAVidVec3@@@Z 101065a0 f   Physics_AF.obj
 0001:00105630       ?GetPointVelocity@idAFBody@@QBE?AVidVec3@@ABV2@@Z 10106630 f   Physics_AF.obj
 0001:001056d0       ?AddForce@idAFBody@@QAEXABVidVec3@@0@Z 101066d0 f   Physics_AF.obj
 0001:00105780       ?Save@idAFBody@@QAEXPAVidSaveGame@@@Z 10106780 f   Physics_AF.obj
 0001:001058b0       ?Restore@idAFBody@@QAEXPAVidRestoreGame@@@Z 101068b0 f   Physics_AF.obj
 0001:001059d0       ??1idMatX@@QAE@XZ          101069d0 f i Physics_AF.obj
 0001:00105a00       ??DidMatX@@QBE?AVidVecX@@ABV1@@Z 10106a00 f i Physics_AF.obj
 0001:00105ad0       ?SetSuspendSpeed@idPhysics_AF@@QAEXABVidVec2@@0@Z 10106ad0 f   Physics_AF.obj
 0001:00105b00       ?SetSuspendTime@idPhysics_AF@@QAEXMM@Z 10106b00 f   Physics_AF.obj
 0001:00105b20       ?SetSuspendTolerance@idPhysics_AF@@QAEXMMM@Z 10106b20 f   Physics_AF.obj
 0001:00105b50       ?SetTimeScaleRamp@idPhysics_AF@@QAEXMM@Z 10106b50 f   Physics_AF.obj
 0001:00105b70       ?SetJointFrictionDent@idPhysics_AF@@QAEXMMM@Z 10106b70 f   Physics_AF.obj
 0001:00105ba0       ?SetContactFrictionDent@idPhysics_AF@@QAEXMMM@Z 10106ba0 f   Physics_AF.obj
 0001:00105bd0       ?Transpose@idMatX@@QBE?AV1@XZ 10106bd0 f i Physics_AF.obj
 0001:00105cb0       ?EnableImpact@idPhysics_AF@@QAEXXZ 10106cb0 f   Physics_AF.obj
 0001:00105cc0       ?TransposeMultiply@idMatX@@QBE?AV1@ABV1@@Z 10106cc0 f i Physics_AF.obj
 0001:00105db0       ?SetDefaultFriction@idPhysics_AF@@QAEXMMM@Z 10106db0 f   Physics_AF.obj
 0001:00105e20       ?IsAtRest@idPhysics_AF@@UBE_NXZ 10106e20 f   Physics_AF.obj
 0001:00105e30       ?GetRestStartTime@idPhysics_AF@@UBEHXZ 10106e30 f   Physics_AF.obj
 0001:00105e40       ?IsPushable@idPhysics_AF@@UBE_NXZ 10106e40 f   Physics_AF.obj
 0001:00105e70       ?GetPushedLinearVelocity@idPhysics_AF@@UBEABVidVec3@@H@Z 10106e70 f   Physics_AF.obj
 0001:00105e80       ?GetPushedAngularVelocity@idPhysics_AF@@UBEABVidVec3@@H@Z 10106e80 f   Physics_AF.obj
 0001:00105e90       ?GetInverseWorldInertia@idAFBody@@QBE?AVidMat3@@XZ 10106e90 f i Physics_AF.obj
 0001:00106060       ??0idAFConstraint@@QAE@XZ  10107060 f   Physics_AF.obj
 0001:001063e0       ??1idAFConstraint@@UAE@XZ  101073e0 f   Physics_AF.obj
 0001:00106650       ?GetForce@idAFConstraint@@UAEXPAVidAFBody@@AAVidVec6@@@Z 10107650 f   Physics_AF.obj
 0001:00106770       ?GetCenter@idAFConstraint@@UAEXAAVidVec3@@@Z 10107770 f   Physics_AF.obj
 0001:00106790       ?InitSize@idAFConstraint@@IAEXH@Z 10107790 f   Physics_AF.obj
 0001:00106a70       ?InitOffset@idAFConstraint_Fixed@@IAEXXZ 10107a70 f   Physics_AF.obj
 0001:00106d60       ?SetBody1@idAFConstraint_Fixed@@UAEXPAVidAFBody@@@Z 10107d60 f   Physics_AF.obj
 0001:00106d90       ?SetBody2@idAFConstraint_Fixed@@UAEXPAVidAFBody@@@Z 10107d90 f   Physics_AF.obj
 0001:00106dc0       ?Rotate@idAFConstraint_Fixed@@UAEXABVidRotation@@@Z 10107dc0 f   Physics_AF.obj
 0001:00106f20       ?GetCenter@idAFConstraint_Fixed@@UAEXAAVidVec3@@@Z 10107f20 f   Physics_AF.obj
 0001:00106f40       ??1idAFConstraint_BallAndSocketJoint@@UAE@XZ 10107f40 f   Physics_AF.obj
 0001:00106fb0       ?SetAnchor@idAFConstraint_BallAndSocketJoint@@QAEXABVidVec3@@@Z 10107fb0 f   Physics_AF.obj
 0001:001071f0       ?GetForce@idAFConstraint_UniversalJoint@@UAEXPAVidAFBody@@AAVidVec6@@@Z 101081f0 f   Physics_AF.obj
 0001:001071f0       ?GetForce@idAFConstraint_Hinge@@UAEXPAVidAFBody@@AAVidVec6@@@Z 101081f0 f   Physics_AF.obj
 0001:001071f0       ?GetForce@idAFConstraint_BallAndSocketJoint@@UAEXPAVidAFBody@@AAVidVec6@@@Z 101081f0 f   Physics_AF.obj
 0001:00107200       ?Translate@idAFConstraint_BallAndSocketJoint@@UAEXABVidVec3@@@Z 10108200 f   Physics_AF.obj
 0001:00107270       ?Rotate@idAFConstraint_BallAndSocketJoint@@UAEXABVidRotation@@@Z 10108270 f   Physics_AF.obj
 0001:001073a0       ?DebugDraw@idAFConstraint_BallAndSocketJoint@@UAEXXZ 101083a0 f   Physics_AF.obj
 0001:001075e0       ??0idAFConstraint_BallAndSocketJointFriction@@QAE@XZ 101085e0 f   Physics_AF.obj
 0001:00107660       ??1idAFConstraint_UniversalJoint@@UAE@XZ 10108660 f   Physics_AF.obj
 0001:001076e0       ?SetAnchor@idAFConstraint_UniversalJoint@@QAEXABVidVec3@@@Z 101086e0 f   Physics_AF.obj
 0001:00107920       ?SetShafts@idAFConstraint_UniversalJoint@@QAEXABVidVec3@@0@Z 10108920 f   Physics_AF.obj
 0001:00108160       ?Rotate@idAFConstraint_UniversalJoint@@UAEXABVidRotation@@@Z 10109160 f   Physics_AF.obj
 0001:00108390       ?DebugDraw@idAFConstraint_UniversalJoint@@UAEXXZ 10109390 f   Physics_AF.obj
 0001:00108cb0       ??0idAFConstraint_UniversalJointFriction@@QAE@XZ 10109cb0 f   Physics_AF.obj
 0001:00108d30       ??1idAFConstraint_Hinge@@UAE@XZ 10109d30 f   Physics_AF.obj
 0001:00108db0       ?SetAnchor@idAFConstraint_Hinge@@QAEXABVidVec3@@@Z 10109db0 f   Physics_AF.obj
 0001:00108fc0       ?GetAnchor@idAFConstraint_Hinge@@QBE?AVidVec3@@XZ 10109fc0 f   Physics_AF.obj
 0001:00108fc0       ?GetAnchor@idAFConstraint_UniversalJoint@@QBE?AVidVec3@@XZ 10109fc0 f   Physics_AF.obj
 0001:00108fc0       ?GetAnchor@idAFConstraint_BallAndSocketJoint@@QBE?AVidVec3@@XZ 10109fc0 f   Physics_AF.obj
 0001:00109090       ?SetAxis@idAFConstraint_Hinge@@QAEXABVidVec3@@@Z 1010a090 f   Physics_AF.obj
 0001:00109300       ?GetAngle@idAFConstraint_Hinge@@QBEMXZ 1010a300 f   Physics_AF.obj
 0001:00109630       ?Rotate@idAFConstraint_Hinge@@UAEXABVidRotation@@@Z 1010a630 f   Physics_AF.obj
 0001:001097c0       ?GetCenter@idAFConstraint_BallAndSocketJoint@@UAEXAAVidVec3@@@Z 1010a7c0 f   Physics_AF.obj
 0001:001097c0       ?GetCenter@idAFConstraint_UniversalJoint@@UAEXAAVidVec3@@@Z 1010a7c0 f   Physics_AF.obj
 0001:001097c0       ?GetCenter@idAFConstraint_Hinge@@UAEXAAVidVec3@@@Z 1010a7c0 f   Physics_AF.obj
 0001:00109880       ?DebugDraw@idAFConstraint_Hinge@@UAEXXZ 1010a880 f   Physics_AF.obj
 0001:00109da0       ??0idAFConstraint_HingeFriction@@QAE@XZ 1010ada0 f   Physics_AF.obj
 0001:00109e20       ??HidVecX@@QBE?AV0@ABV0@@Z 1010ae20 f i Physics_AF.obj
 0001:00109ef0       ??DidVecX@@QBE?AV0@M@Z     1010aef0 f i Physics_AF.obj
 0001:00109fc0       ??0idAFConstraint_HingeSteering@@QAE@XZ 1010afc0 f   Physics_AF.obj
 0001:0010a050       ??D@YA?AVidVecX@@MV0@@Z    1010b050 f i Physics_AF.obj
 0001:0010a0e0       ?SetAxis@idAFConstraint_Slider@@QAEXABVidVec3@@@Z 1010b0e0 f   Physics_AF.obj
 0001:0010a270       ?Rotate@idAFConstraint_Spring@@UAEXABVidRotation@@@Z 1010b270 f   Physics_AF.obj
 0001:0010a270       ?Rotate@idAFConstraint_Slider@@UAEXABVidRotation@@@Z 1010b270 f   Physics_AF.obj
 0001:0010a360       ?GetCenter@idAFConstraint_Slider@@UAEXAAVidVec3@@@Z 1010b360 f   Physics_AF.obj
 0001:0010a4a0       ?DebugDraw@idAFConstraint_Slider@@UAEXXZ 1010b4a0 f   Physics_AF.obj
 0001:0010a680       ?SetAnchor@idAFConstraint_Spring@@QAEXABVidVec3@@0@Z 1010b680 f   Physics_AF.obj
 0001:0010a880       ?GetCenter@idAFConstraint_Spring@@UAEXAAVidVec3@@@Z 1010b880 f   Physics_AF.obj
 0001:0010aa50       ?DebugDraw@idAFConstraint_Spring@@UAEXXZ 1010ba50 f   Physics_AF.obj
 0001:0010b0e0       ??0idAFConstraint_Contact@@QAE@XZ 1010c0e0 f   Physics_AF.obj
 0001:0010b160       ??1idAFConstraint_Contact@@UAE@XZ 1010c160 f   Physics_AF.obj
 0001:0010b1c0       ??0idAFConstraint_ContactFriction@@QAE@XZ 1010c1c0 f   Physics_AF.obj
 0001:0010b240       ??0idAFConstraint_ConeLimit@@QAE@XZ 1010c240 f   Physics_AF.obj
 0001:0010b2b0       ?Rotate@idAFConstraint_ConeLimit@@UAEXABVidRotation@@@Z 1010c2b0 f   Physics_AF.obj
 0001:0010b420       ??0idAFConstraint_PyramidLimit@@QAE@XZ 1010c420 f   Physics_AF.obj
 0001:0010b490       ?Rotate@idAFConstraint_PyramidLimit@@UAEXABVidRotation@@@Z 1010c490 f   Physics_AF.obj
 0001:0010b710       ?DebugDraw@idAFConstraint_PyramidLimit@@UAEXXZ 1010c710 f   Physics_AF.obj
 0001:0010c100       ??0idAFConstraint_Suspension@@QAE@XZ 1010d100 f   Physics_AF.obj
 0001:0010c260       ?DebugDraw@idAFConstraint_Suspension@@UAEXXZ 1010d260 f   Physics_AF.obj
 0001:0010c6a0       ?SetDensity@idAFBody@@QAEXMABVidMat3@@@Z 1010d6a0 f   Physics_AF.obj
 0001:0010cb60       ?Solve@idAFTree@@QBEXH@Z   1010db60 f   Physics_AF.obj
 0001:0010d060       ?Response@idAFTree@@QBEXPBVidAFConstraint@@HH@Z 1010e060 f   Physics_AF.obj
 0001:0010d680       ?CalculateForces@idAFTree@@QBEXM@Z 1010e680 f   Physics_AF.obj
 0001:0010dc90       ?SetMaxSubTreeAuxiliaryIndex@idAFTree@@QAEXXZ 1010ec90 f   Physics_AF.obj
 0001:0010dcf0       ?DebugDraw@idAFTree@@QBEXABVidVec4@@@Z 1010ecf0 f   Physics_AF.obj
 0001:0010dd40       ?ApplyFriction@idPhysics_AF@@AAEXMM@Z 1010ed40 f   Physics_AF.obj
 0001:0010df40       ?AuxiliaryForces@idPhysics_AF@@AAEXM@Z 1010ef40 f   Physics_AF.obj
 0001:0010ef00       ?VerifyContactConstraints@idPhysics_AF@@AAEXXZ 1010ff00 f   Physics_AF.obj
 0001:0010f0d0       ?Evolve@idPhysics_AF@@AAEXM@Z 101100d0 f   Physics_AF.obj
 0001:0010fc00       ?CollisionImpulse@idPhysics_AF@@AAE_NMPAVidAFBody@@AAUtrace_s@@@Z 10110c00 f   Physics_AF.obj
 0001:00110320       ??DidMatX@@QBE?AV0@ABV0@@Z 10111320 f i Physics_AF.obj
 0001:00110410       ?ApplyCollisions@idPhysics_AF@@AAE_NM@Z 10111410 f   Physics_AF.obj
 0001:00110460       ?SetupCollisionForBody@idPhysics_AF@@ABEPAVidEntity@@PAVidAFBody@@@Z 10111460 f   Physics_AF.obj
 0001:00110570       ?ClearExternalForce@idPhysics_AF@@AAEXXZ 10111570 f   Physics_AF.obj
 0001:001105c0       ?AddGravity@idPhysics_AF@@AAEXXZ 101115c0 f   Physics_AF.obj
 0001:00110650       ?UpdateClipModels@idPhysics_AF@@QAEXXZ 10111650 f   Physics_AF.obj
 0001:001106a0       ?GetJointFrictionScale@idPhysics_AF@@QBEMXZ 101116a0 f   Physics_AF.obj
 0001:001106f0       ?GetContactFrictionScale@idPhysics_AF@@QBEMXZ 101116f0 f   Physics_AF.obj
 0001:00110740       ?TestIfAtRest@idPhysics_AF@@AAE_NM@Z 10111740 f   Physics_AF.obj
 0001:00110c20       ?Rest@idPhysics_AF@@AAEXXZ 10111c20 f   Physics_AF.obj
 0001:00110c90       ?Activate@idPhysics_AF@@UAEXXZ 10111c90 f   Physics_AF.obj
 0001:00110cd0       ?PutToRest@idPhysics_AF@@UAEXXZ 10111cd0 f   Physics_AF.obj
 0001:00110ce0       ?AddPushVelocity@idPhysics_AF@@AAEXABVidVec6@@@Z 10111ce0 f   Physics_AF.obj
 0001:00110db0       ?GetClipModel@idPhysics_AF@@UBEPAVidClipModel@@H@Z 10111db0 f   Physics_AF.obj
 0001:00110dd0       ?GetNumClipModels@idPhysics_AF@@UBEHXZ 10111dd0 f   Physics_AF.obj
 0001:00110dd0       ?GetNumBodies@idPhysics_AF@@QBEHXZ 10111dd0 f   Physics_AF.obj
 0001:00110de0       ?InverseFast@idMatX@@QBE?AV1@XZ 10111de0 f i Physics_AF.obj
 0001:00110f70       ?SetMass@idPhysics_AF@@UAEXMH@Z 10111f70 f   Physics_AF.obj
 0001:00110fa0       ?GetMass@idPhysics_AF@@UBEMH@Z 10111fa0 f   Physics_AF.obj
 0001:00110fd0       ?SetContents@idPhysics_AF@@UAEXHH@Z 10111fd0 f   Physics_AF.obj
 0001:00111020       ?GetContents@idPhysics_AF@@UBEHH@Z 10112020 f   Physics_AF.obj
 0001:00111070       ?Save@idPhysics_AF@@QBEXPAVidSaveGame@@@Z 10112070 f   Physics_AF.obj
 0001:001113e0       ?ForceBodyId@idPhysics_AF@@QAEXPAVidAFBody@@H@Z 101123e0 f   Physics_AF.obj
 0001:00111450       ?GetBodyId@idPhysics_AF@@QBEHPAVidAFBody@@@Z 10112450 f   Physics_AF.obj
 0001:001114a0       ?GetBodyId@idPhysics_AF@@QBEHPBD@Z 101124a0 f   Physics_AF.obj
 0001:00111500       ?GetNumConstraints@idPhysics_AF@@QBEHXZ 10112500 f   Physics_AF.obj
 0001:00111510       ?GetBody@idPhysics_AF@@QBEPAVidAFBody@@PBD@Z 10112510 f   Physics_AF.obj
 0001:00111560       ?GetBody@idPhysics_AF@@QBEPAVidAFBody@@H@Z 10112560 f   Physics_AF.obj
 0001:00111590       ?GetConstraint@idPhysics_AF@@QBEPAVidAFConstraint@@PBD@Z 10112590 f   Physics_AF.obj
 0001:001115e0       ?GetConstraint@idPhysics_AF@@QBEPAVidAFConstraint@@H@Z 101125e0 f   Physics_AF.obj
 0001:00111610       ?DeleteConstraint@idPhysics_AF@@QAEXH@Z 10112610 f   Physics_AF.obj
 0001:00111680       ?GetBodyContactConstraints@idPhysics_AF@@QBEHHQAPAVidAFConstraint_Contact@@H@Z 10112680 f   Physics_AF.obj
 0001:001116f0       ?GetImpactInfo@idPhysics_AF@@UBEXHABVidVec3@@PAUimpactInfo_s@@@Z 101126f0 f   Physics_AF.obj
 0001:00111a50       ?ApplyImpulse@idPhysics_AF@@UAEXHABVidVec3@@0@Z 10112a50 f   Physics_AF.obj
 0001:00111e40       ?AddForce@idPhysics_AF@@UAEXHABVidVec3@@0@Z 10112e40 f   Physics_AF.obj
 0001:00111f30       ?SaveState@idPhysics_AF@@UAEXXZ 10112f30 f   Physics_AF.obj
 0001:00111f80       ?RestoreState@idPhysics_AF@@UAEXXZ 10112f80 f   Physics_AF.obj
 0001:00111fd0       ?SetOrigin@idPhysics_AF@@UAEXABVidVec3@@H@Z 10112fd0 f   Physics_AF.obj
 0001:00112100       ?SetAxis@idPhysics_AF@@UAEXABVidMat3@@H@Z 10113100 f   Physics_AF.obj
 0001:00112590       ?Translate@idPhysics_AF@@UAEXABVidVec3@@H@Z 10113590 f   Physics_AF.obj
 0001:00112620       ?Rotate@idPhysics_AF@@UAEXABVidRotation@@H@Z 10113620 f   Physics_AF.obj
 0001:001127e0       ?GetOrigin@idPhysics_AF@@UBEABVidVec3@@H@Z 101137e0 f   Physics_AF.obj
 0001:00112810       ?GetAxis@idPhysics_AF@@UBEABVidMat3@@H@Z 10113810 f   Physics_AF.obj
 0001:00112840       ?SetLinearVelocity@idPhysics_AF@@UAEXABVidVec3@@H@Z 10113840 f   Physics_AF.obj
 0001:00112880       ?SetAngularVelocity@idPhysics_AF@@UAEXABVidVec3@@H@Z 10113880 f   Physics_AF.obj
 0001:001128c0       ?GetLinearVelocity@idPhysics_AF@@UBEABVidVec3@@H@Z 101138c0 f   Physics_AF.obj
 0001:001128f0       ?GetAngularVelocity@idPhysics_AF@@UBEABVidVec3@@H@Z 101138f0 f   Physics_AF.obj
 0001:00112920       ?ClipTranslation@idPhysics_AF@@UBEXAAUtrace_s@@ABVidVec3@@PBVidClipModel@@@Z 10113920 f   Physics_AF.obj
 0001:00112b20       ?ClipRotation@idPhysics_AF@@UBEXAAUtrace_s@@ABVidRotation@@PBVidClipModel@@@Z 10113b20 f   Physics_AF.obj
 0001:00112f00       ?ClipContents@idPhysics_AF@@UBEHPBVidClipModel@@@Z 10113f00 f   Physics_AF.obj
 0001:00112fa0       ?DisableClip@idPhysics_AF@@UAEXXZ 10113fa0 f   Physics_AF.obj
 0001:00112fc0       ?EnableClip@idPhysics_AF@@UAEXXZ 10113fc0 f   Physics_AF.obj
 0001:00112fe0       ?UnlinkClip@idPhysics_AF@@UAEXXZ 10113fe0 f   Physics_AF.obj
 0001:00113010       ?LinkClip@idPhysics_AF@@UAEXXZ 10114010 f   Physics_AF.obj
 0001:00113020       ?SetPushed@idPhysics_AF@@UAEXH@Z 10114020 f   Physics_AF.obj
 0001:001132b0       ?WriteToSnapshot@idPhysics_AF@@UBEXAAVidBitMsgDelta@@@Z 101142b0 f   Physics_AF.obj
 0001:00113800       ?ReadFromSnapshot@idPhysics_AF@@UAEXABVidBitMsgDelta@@@Z 10114800 f   Physics_AF.obj
 0001:00113c60       ??0idAFConstraint_Fixed@@QAE@ABVidStr@@PAVidAFBody@@1@Z 10114c60 f   Physics_AF.obj
 0001:00113d10       ?Evaluate@idAFConstraint_Fixed@@MAEXM@Z 10114d10 f   Physics_AF.obj
 0001:001146f0       ??0idAFConstraint_BallAndSocketJoint@@QAE@ABVidStr@@PAVidAFBody@@1@Z 101156f0 f   Physics_AF.obj
 0001:001147b0       ??_EidAFConstraint_BallAndSocketJoint@@UAEPAXI@Z 101157b0 f i Physics_AF.obj
 0001:001147b0       ??_GidAFConstraint_BallAndSocketJoint@@UAEPAXI@Z 101157b0 f i Physics_AF.obj
 0001:001147d0       ?SetConeLimit@idAFConstraint_BallAndSocketJoint@@QAEXABVidVec3@@M0@Z 101157d0 f   Physics_AF.obj
 0001:00114a90       ?SetPyramidLimit@idAFConstraint_BallAndSocketJoint@@QAEXABVidVec3@@0MM0@Z 10115a90 f   Physics_AF.obj
 0001:00114e00       ??0idAFConstraint_UniversalJoint@@QAE@ABVidStr@@PAVidAFBody@@1@Z 10115e00 f   Physics_AF.obj
 0001:00114ec0       ??_EidAFConstraint_UniversalJoint@@UAEPAXI@Z 10115ec0 f i Physics_AF.obj
 0001:00114ec0       ??_GidAFConstraint_UniversalJoint@@UAEPAXI@Z 10115ec0 f i Physics_AF.obj
 0001:00114ee0       ?SetConeLimit@idAFConstraint_UniversalJoint@@QAEXABVidVec3@@M@Z 10115ee0 f   Physics_AF.obj
 0001:00115060       ?SetPyramidLimit@idAFConstraint_UniversalJoint@@QAEXABVidVec3@@0MM@Z 10116060 f   Physics_AF.obj
 0001:001152a0       ??0idAFConstraint_Hinge@@QAE@ABVidStr@@PAVidAFBody@@1@Z 101162a0 f   Physics_AF.obj
 0001:001154c0       ??_GidAFConstraint_Hinge@@UAEPAXI@Z 101164c0 f i Physics_AF.obj
 0001:001154c0       ??_EidAFConstraint_Hinge@@UAEPAXI@Z 101164c0 f i Physics_AF.obj
 0001:001154e0       ?SetLimit@idAFConstraint_Hinge@@QAEXABVidVec3@@M0@Z 101164e0 f   Physics_AF.obj
 0001:00115780       ?SetSteerAngle@idAFConstraint_Hinge@@QAEXM@Z 10116780 f   Physics_AF.obj
 0001:00115820       ?Restore@idAFConstraint_Hinge@@UAEXPAVidRestoreGame@@@Z 10116820 f   Physics_AF.obj
 0001:00115a10       ??0idAFConstraint_Slider@@QAE@ABVidStr@@PAVidAFBody@@1@Z 10116a10 f   Physics_AF.obj
 0001:00115d70       ?Evaluate@idAFConstraint_Slider@@MAEXM@Z 10116d70 f   Physics_AF.obj
 0001:00116c70       ??0idAFConstraint_Spring@@QAE@ABVidStr@@PAVidAFBody@@1@Z 10117c70 f   Physics_AF.obj
 0001:00116d40       ?Evaluate@idAFConstraint_Spring@@MAEXM@Z 10117d40 f   Physics_AF.obj
 0001:00117620       ??_GidAFConstraint_Contact@@UAEPAXI@Z 10118620 f i Physics_AF.obj
 0001:00117620       ??_EidAFConstraint_Contact@@UAEPAXI@Z 10118620 f i Physics_AF.obj
 0001:00117640       ?Setup@idAFConstraint_Contact@@QAEXPAVidAFBody@@0AAUcontactInfo_t@@@Z 10118640 f   Physics_AF.obj
 0001:00117a00       ??_GidAFConstraint_HingeFriction@@UAEPAXI@Z 10118a00 f i Physics_AF.obj
 0001:00117a00       ??_GidAFConstraint@@UAEPAXI@Z 10118a00 f i Physics_AF.obj
 0001:00117a00       ??_GidAFConstraint_ContactFriction@@UAEPAXI@Z 10118a00 f i Physics_AF.obj
 0001:00117a00       ??_EidAFConstraint_Suspension@@UAEPAXI@Z 10118a00 f i Physics_AF.obj
 0001:00117a00       ??_GidAFConstraint_Fixed@@UAEPAXI@Z 10118a00 f i Physics_AF.obj
 0001:00117a00       ??_EidAFConstraint_ConeLimit@@UAEPAXI@Z 10118a00 f i Physics_AF.obj
 0001:00117a00       ??_GidAFConstraint_Spring@@UAEPAXI@Z 10118a00 f i Physics_AF.obj
 0001:00117a00       ??_GidAFConstraint_BallAndSocketJointFriction@@UAEPAXI@Z 10118a00 f i Physics_AF.obj
 0001:00117a00       ??_EidAFConstraint_BallAndSocketJointFriction@@UAEPAXI@Z 10118a00 f i Physics_AF.obj
 0001:00117a00       ??_EidAFConstraint_Spring@@UAEPAXI@Z 10118a00 f i Physics_AF.obj
 0001:00117a00       ??_EidAFConstraint_PyramidLimit@@UAEPAXI@Z 10118a00 f i Physics_AF.obj
 0001:00117a00       ??_EidAFConstraint_Slider@@UAEPAXI@Z 10118a00 f i Physics_AF.obj
 0001:00117a00       ??_GidAFConstraint_PyramidLimit@@UAEPAXI@Z 10118a00 f i Physics_AF.obj
 0001:00117a00       ??_GidAFConstraint_UniversalJointFriction@@UAEPAXI@Z 10118a00 f i Physics_AF.obj
 0001:00117a00       ??_GidAFConstraint_HingeSteering@@UAEPAXI@Z 10118a00 f i Physics_AF.obj
 0001:00117a00       ??_EidAFConstraint@@UAEPAXI@Z 10118a00 f i Physics_AF.obj
 0001:00117a00       ??_GidAFConstraint_ConeLimit@@UAEPAXI@Z 10118a00 f i Physics_AF.obj
 0001:00117a00       ??_EidAFConstraint_Fixed@@UAEPAXI@Z 10118a00 f i Physics_AF.obj
 0001:00117a00       ??_EidAFConstraint_UniversalJointFriction@@UAEPAXI@Z 10118a00 f i Physics_AF.obj
 0001:00117a00       ??_EidAFConstraint_HingeSteering@@UAEPAXI@Z 10118a00 f i Physics_AF.obj
 0001:00117a00       ??_GidAFConstraint_Suspension@@UAEPAXI@Z 10118a00 f i Physics_AF.obj
 0001:00117a00       ??_GidAFConstraint_Slider@@UAEPAXI@Z 10118a00 f i Physics_AF.obj
 0001:00117a00       ??_EidAFConstraint_HingeFriction@@UAEPAXI@Z 10118a00 f i Physics_AF.obj
 0001:00117a00       ??_EidAFConstraint_ContactFriction@@UAEPAXI@Z 10118a00 f i Physics_AF.obj
 0001:00117a20       ?Evaluate@idAFConstraint_Suspension@@MAEXM@Z 10118a20 f   Physics_AF.obj
 0001:00118a00       ??0idAFBody@@QAE@XZ        10119a00 f   Physics_AF.obj
 0001:00118b20       ??0idAFBody@@QAE@ABVidStr@@PAVidClipModel@@M@Z 10119b20 f   Physics_AF.obj
 0001:00118cf0       ??1idAFBody@@QAE@XZ        10119cf0 f   Physics_AF.obj
 0001:00118f30       ?Factor@idAFTree@@QBEXXZ   10119f30 f   Physics_AF.obj
 0001:00119790       ?SortBodies_r@idAFTree@@QAEXAAV?$idList@PAVidAFBody@@@@PAVidAFBody@@@Z 1011a790 f   Physics_AF.obj
 0001:00119920       ?SortBodies@idAFTree@@QAEXXZ 1011a920 f   Physics_AF.obj
 0001:00119a80       ?EvaluateBodies@idPhysics_AF@@AAEXM@Z 1011aa80 f   Physics_AF.obj
 0001:0011aaf0       ?AddFrameConstraints@idPhysics_AF@@AAEXXZ 1011baf0 f   Physics_AF.obj
 0001:0011acc0       ?RemoveFrameConstraints@idPhysics_AF@@AAEXXZ 1011bcc0 f   Physics_AF.obj
 0001:0011adb0       ?EvaluateContacts@idPhysics_AF@@UAE_NXZ 1011bdb0 f   Physics_AF.obj
 0001:0011b710       ?SetupContactConstraints@idPhysics_AF@@AAEXXZ 1011c710 f   Physics_AF.obj
 0001:0011b9a0       ?GetBounds@idPhysics_AF@@UBEABVidBounds@@H@Z 1011c9a0 f   Physics_AF.obj
 0001:0011bd30       ?GetAbsBounds@idPhysics_AF@@UBEABVidBounds@@H@Z 1011cd30 f   Physics_AF.obj
 0001:0011beb0       ?DebugDraw@idPhysics_AF@@AAEXXZ 1011ceb0 f   Physics_AF.obj
 0001:0011c760       ??0idPhysics_AF@@QAE@XZ    1011d760 f   Physics_AF.obj
 0001:0011cad0       ?Restore@idPhysics_AF@@QAEXPAVidRestoreGame@@@Z 1011dad0 f   Physics_AF.obj
 0001:0011ce20       ?AddBody@idPhysics_AF@@QAEHPAVidAFBody@@@Z 1011de20 f   Physics_AF.obj
 0001:0011d030       ?AddConstraint@idPhysics_AF@@QAEXPAVidAFConstraint@@@Z 1011e030 f   Physics_AF.obj
 0001:0011d290       ?AddFrameConstraint@idPhysics_AF@@QAEXPAVidAFConstraint@@@Z 1011e290 f   Physics_AF.obj
 0001:0011d430       ?DeleteBody@idPhysics_AF@@QAEXH@Z 1011e430 f   Physics_AF.obj
 0001:0011d540       ?DeleteConstraint@idPhysics_AF@@QAEXPBD@Z 1011e540 f   Physics_AF.obj
 0001:0011d5b0       ?SetMaster@idPhysics_AF@@UAEXPAVidEntity@@_N@Z 1011e5b0 f   Physics_AF.obj
 0001:0011d820       ?CreateInstance@idPhysics_AF@@SAPAVidClass@@XZ 1011e820 f   Physics_AF.obj
 0001:0011d8c0       ?Add@idAFConstraint_BallAndSocketJointFriction@@QAE_NPAVidPhysics_AF@@M@Z 1011e8c0 f   Physics_AF.obj
 0001:0011dbb0       ?Add@idAFConstraint_UniversalJointFriction@@QAE_NPAVidPhysics_AF@@M@Z 1011ebb0 f   Physics_AF.obj
 0001:0011e060       ?Add@idAFConstraint_HingeFriction@@QAE_NPAVidPhysics_AF@@M@Z 1011f060 f   Physics_AF.obj
 0001:0011e430       ?Add@idAFConstraint_HingeSteering@@QAE_NPAVidPhysics_AF@@M@Z 1011f430 f   Physics_AF.obj
 0001:0011e700       ?Add@idAFConstraint_ContactFriction@@QAE_NPAVidPhysics_AF@@M@Z 1011f700 f   Physics_AF.obj
 0001:0011f660       ?Add@idAFConstraint_ConeLimit@@QAE_NPAVidPhysics_AF@@M@Z 10120660 f   Physics_AF.obj
 0001:0011ff80       ?Add@idAFConstraint_PyramidLimit@@QAE_NPAVidPhysics_AF@@M@Z 10120f80 f   Physics_AF.obj
 0001:00120c30       ?EvaluateConstraints@idPhysics_AF@@AAEXM@Z 10121c30 f   Physics_AF.obj
 0001:00120f20       ?CheckForCollisions@idPhysics_AF@@AAEXM@Z 10121f20 f   Physics_AF.obj
 0001:001212c0       ?Evaluate@idAFConstraint_BallAndSocketJoint@@MAEXM@Z 101222c0 f   Physics_AF.obj
 0001:00121930       ?ApplyFriction@idAFConstraint_BallAndSocketJoint@@MAEXM@Z 10122930 f   Physics_AF.obj
 0001:00121bc0       ?Evaluate@idAFConstraint_UniversalJoint@@MAEXM@Z 10122bc0 f   Physics_AF.obj
 0001:00122af0       ?ApplyFriction@idAFConstraint_UniversalJoint@@MAEXM@Z 10123af0 f   Physics_AF.obj
 0001:00122d80       ?Evaluate@idAFConstraint_Hinge@@MAEXM@Z 10123d80 f   Physics_AF.obj
 0001:00123b00       ?ApplyFriction@idAFConstraint_Hinge@@MAEXM@Z 10124b00 f   Physics_AF.obj
 0001:00123d90       ?ApplyFriction@idAFConstraint_Contact@@MAEXM@Z 10124d90 f   Physics_AF.obj
 0001:00124400       ??1idPhysics_AF@@UAE@XZ    10125400 f   Physics_AF.obj
 0001:00124760       ?BuildTrees@idPhysics_AF@@AAEXXZ 10125760 f   Physics_AF.obj
 0001:00125bd0       ?Evaluate@idPhysics_AF@@UAE_NHH@Z 10126bd0 f   Physics_AF.obj
 0001:001265f0       ??_GidPhysics_AF@@UAEPAXI@Z 101275f0 f i Physics_AF.obj
 0001:001265f0       ??_EidPhysics_AF@@UAEPAXI@Z 101275f0 f i Physics_AF.obj
 0001:00126610       ?GetType@idPhysics_Base@@UBEPAVidTypeInfo@@XZ 10127610 f   Physics_Base.obj
 0001:00126620       ?SetClipModel@idPhysics_Base@@UAEXPAVidClipModel@@MH_N@Z 10127620 f   Physics_Base.obj
 0001:00126620       ?SetClipModel@idPhysics_AF@@UAEXPAVidClipModel@@MH_N@Z 10127620 f   Physics_AF.obj
 0001:00126630       ?GetContents@idPhysics_Base@@UBEHH@Z 10127630 f   Physics_Base.obj
 0001:00126630       ?GetClipModel@idPhysics_Base@@UBEPAVidClipModel@@H@Z 10127630 f   Physics_Base.obj
 0001:00126630       ?GetClipMask@idPhysics_Static@@UBEHH@Z 10127630 f   Physics_Static.obj
 0001:00126630       ?GetClipMask@idPhysics_StaticMulti@@UBEHH@Z 10127630 f   Physics_StaticMulti.obj
 0001:00126630       ?ClipContents@idPhysics_Base@@UBEHPBVidClipModel@@@Z 10127630 f   Physics_Base.obj
 0001:00126640       ?GetMass@idPhysics_Parametric@@UBEMH@Z 10127640 f   Physics_Parametric.obj
 0001:00126640       ?GetMass@idPhysics_StaticMulti@@UBEMH@Z 10127640 f   Physics_StaticMulti.obj
 0001:00126640       ?GetMass@idPhysics_Base@@UBEMH@Z 10127640 f   Physics_Base.obj
 0001:00126640       ?GetMass@idPhysics_Static@@UBEMH@Z 10127640 f   Physics_Static.obj
 0001:00126650       ?SetClipMask@idPhysics_Base@@UAEXHH@Z 10127650 f   Physics_Base.obj
 0001:00126660       ?GetClipMask@idPhysics_Base@@UBEHH@Z 10127660 f   Physics_Base.obj
 0001:00126670       ?GetAbsBounds@idPhysics_Base@@UBEABVidBounds@@H@Z 10127670 f   Physics_Base.obj
 0001:00126670       ?GetBounds@idPhysics_Base@@UBEABVidBounds@@H@Z 10127670 f   Physics_Base.obj
 0001:00126680       ?GetPushedAngularVelocity@idPhysics_Base@@UBEABVidVec3@@H@Z 10127680 f   Physics_Base.obj
 0001:00126680       ?GetLinearVelocity@idPhysics_Base@@UBEABVidVec3@@H@Z 10127680 f   Physics_Base.obj
 0001:00126680       ?GetPushedAngularVelocity@idPhysics_StaticMulti@@UBEABVidVec3@@H@Z 10127680 f   Physics_StaticMulti.obj
 0001:00126680       ?GetPushedLinearVelocity@idPhysics_Static@@UBEABVidVec3@@H@Z 10127680 f   Physics_Static.obj
 0001:00126680       ?GetLinearVelocity@idPhysics_StaticMulti@@UBEABVidVec3@@H@Z 10127680 f   Physics_StaticMulti.obj
 0001:00126680       ?GetLinearVelocity@idPhysics_Static@@UBEABVidVec3@@H@Z 10127680 f   Physics_Static.obj
 0001:00126680       ?GetAngularVelocity@idPhysics_Static@@UBEABVidVec3@@H@Z 10127680 f   Physics_Static.obj
 0001:00126680       ?GetAngularVelocity@idPhysics_StaticMulti@@UBEABVidVec3@@H@Z 10127680 f   Physics_StaticMulti.obj
 0001:00126680       ?GetPushedLinearVelocity@idPhysics_Base@@UBEABVidVec3@@H@Z 10127680 f   Physics_Base.obj
 0001:00126680       ?GetOrigin@idPhysics_Base@@UBEABVidVec3@@H@Z 10127680 f   Physics_Base.obj
 0001:00126680       ?GetPushedAngularVelocity@idPhysics_Static@@UBEABVidVec3@@H@Z 10127680 f   Physics_Static.obj
 0001:00126680       ?GetAngularVelocity@idPhysics_Base@@UBEABVidVec3@@H@Z 10127680 f   Physics_Base.obj
 0001:00126680       ?GetPushedLinearVelocity@idPhysics_StaticMulti@@UBEABVidVec3@@H@Z 10127680 f   Physics_StaticMulti.obj
 0001:00126690       ?GetAxis@idPhysics_Base@@UBEABVidMat3@@H@Z 10127690 f   Physics_Base.obj
 0001:001266a0       ?GetGravity@idPhysics_Base@@UBEABVidVec3@@XZ 101276a0 f   Physics_Base.obj
 0001:001266b0       ?GetGravityNormal@idPhysics_Base@@UBEABVidVec3@@XZ 101276b0 f   Physics_Base.obj
 0001:001266c0       ?ClipTranslation@idPhysics_Base@@UBEXAAUtrace_s@@ABVidVec3@@PBVidClipModel@@@Z 101276c0 f   Physics_Base.obj
 0001:001266c0       ?ClipRotation@idPhysics_Base@@UBEXAAUtrace_s@@ABVidRotation@@PBVidClipModel@@@Z 101276c0 f   Physics_Base.obj
 0001:001266e0       ?Save@idPhysics_Base@@QBEXPAVidSaveGame@@@Z 101276e0 f   Physics_Base.obj
 0001:00126780       ?SetGravity@idPhysics_Base@@UAEXABVidVec3@@@Z 10127780 f   Physics_Base.obj
 0001:00126850       ?GetNumContacts@idPhysics_Base@@UBEHXZ 10127850 f   Physics_Base.obj
 0001:00126850       ?Size@idTypeDef@@QBEHXZ    10127850 f   Script_Program.obj
 0001:00126860       ?GetContact@idPhysics_Base@@UBEABUcontactInfo_t@@H@Z 10127860 f   Physics_Base.obj
 0001:00126880       ?RemoveContactEntity@idPhysics_Base@@UAEXPAVidEntity@@@Z 10127880 f   Physics_Base.obj
 0001:00126930       ?HasGroundContacts@idPhysics_Base@@UBE_NXZ 10127930 f   Physics_Base.obj
 0001:001269c0       ?IsGroundEntity@idPhysics_Base@@UBE_NH@Z 101279c0 f   Physics_Base.obj
 0001:00126a50       ?IsGroundClipModel@idPhysics_Base@@UBE_NHH@Z 10127a50 f   Physics_Base.obj
 0001:00126af0       ?AddContactEntitiesForContacts@idPhysics_Base@@IAEXXZ 10127af0 f   Physics_Base.obj
 0001:00126b40       ?ActivateContactEntities@idPhysics_Base@@IAEXXZ 10127b40 f   Physics_Base.obj
 0001:00126bd0       ?IsOutsideWorld@idPhysics_Base@@IBE_NXZ 10127bd0 f   Physics_Base.obj
 0001:00126ca0       ?DrawVelocity@idPhysics_Base@@IBEXHMM@Z 10127ca0 f   Physics_Base.obj
 0001:00127440       ?Restore@idPhysics_Base@@QAEXPAVidRestoreGame@@@Z 10128440 f   Physics_Base.obj
 0001:001276b0       ?ClearContacts@idPhysics_Base@@UAEXXZ 101286b0 f   Physics_Base.obj
 0001:00127710       ?AddContactEntity@idPhysics_Base@@UAEXPAVidEntity@@@Z 10128710 f   Physics_Base.obj
 0001:00127960       ?AddGroundContacts@idPhysics_Base@@IAEXPBVidClipModel@@@Z 10128960 f   Physics_Base.obj
 0001:00127be0       ??0idPhysics_Base@@QAE@XZ  10128be0 f   Physics_Base.obj
 0001:00127c60       ??1idPhysics_Base@@UAE@XZ  10128c60 f   Physics_Base.obj
 0001:00127d20       ?CreateInstance@idPhysics_Base@@SAPAVidClass@@XZ 10128d20 f   Physics_Base.obj
 0001:00127dc0       ??_EidPhysics_Base@@UAEPAXI@Z 10128dc0 f i Physics_Base.obj
 0001:00127dc0       ??_GidPhysics_Base@@UAEPAXI@Z 10128dc0 f i Physics_Base.obj
 0001:00127de0       ?GetType@idPhysics_Monster@@UBEPAVidTypeInfo@@XZ 10128de0 f   Physics_Monster.obj
 0001:00127df0       ?Activate@idPhysics_Monster@@UAEXXZ 10128df0 f   Physics_Monster.obj
 0001:00127e10       ?idPhysics_Monster_SavePState@@YAXPAVidSaveGame@@ABUmonsterPState_s@@@Z 10128e10 f   Physics_Monster.obj
 0001:00127e60       ?Save@idPhysics_Monster@@QBEXPAVidSaveGame@@@Z 10128e60 f   Physics_Monster.obj
 0001:00127f20       ?Restore@idPhysics_Monster@@QAEXPAVidRestoreGame@@@Z 10128f20 f   Physics_Monster.obj
 0001:00128040       ?SetMaxStepHeight@idPhysics_Monster@@QAEXM@Z 10129040 f   Physics_Monster.obj
 0001:00128050       ?OnGround@idPhysics_Monster@@QBE_NXZ 10129050 f   Physics_Monster.obj
 0001:00128060       ?GetSlideMoveEntity@idPhysics_Monster@@QBEPAVidEntity@@XZ 10129060 f   Physics_Monster.obj
 0001:00128070       ?GetMoveResult@idPhysics_Monster@@QBE?AW4monsterMoveResult_t@@XZ 10129070 f   Physics_Monster.obj
 0001:00128080       ?ForceDeltaMove@idPhysics_Monster@@QAEX_N@Z 10129080 f   Physics_Monster.obj
 0001:00128090       ?UseFlyMove@idPhysics_Monster@@QAEX_N@Z 10129090 f   Physics_Monster.obj
 0001:001280a0       ?UseVelocityMove@idPhysics_Monster@@QAEX_N@Z 101290a0 f   Physics_Monster.obj
 0001:001280b0       ?DisableImpact@idPhysics_Monster@@QAEXXZ 101290b0 f   Physics_Monster.obj
 0001:001280c0       ?IsAtRest@idPhysics_Monster@@UBE_NXZ 101290c0 f   Physics_Monster.obj
 0001:001280d0       ?SetAxis@idPhysics_Monster@@UAEXABVidMat3@@H@Z 101290d0 f   Physics_Monster.obj
 0001:00128100       ?GetLinearVelocity@idPhysics_Monster@@UBEABVidVec3@@H@Z 10129100 f   Physics_Monster.obj
 0001:00128110       ?GetPushedLinearVelocity@idPhysics_Monster@@UBEABVidVec3@@H@Z 10129110 f   Physics_Monster.obj
 0001:00128120       ?PutToRest@idPhysics_Monster@@UAEXXZ 10129120 f   Physics_Monster.obj
 0001:00128120       ?Rest@idPhysics_Monster@@AAEXXZ 10129120 f   Physics_Monster.obj
 0001:00128150       ??4monsterPState_s@@QAEAAU0@ABU0@@Z 10129150 f i Physics_Monster.obj
 0001:001281b0       ?SetDelta@idPhysics_Monster@@QAEXABVidVec3@@@Z 101291b0 f   Physics_Monster.obj
 0001:00128220       ?GetImpactInfo@idPhysics_Monster@@UBEXHABVidVec3@@PAUimpactInfo_s@@@Z 10129220 f   Physics_Monster.obj
 0001:00128270       ?ApplyImpulse@idPhysics_Monster@@UAEXHABVidVec3@@0@Z 10129270 f   Physics_Monster.obj
 0001:001282f0       ?SaveState@idPhysics_Monster@@UAEXXZ 101292f0 f   Physics_Monster.obj
 0001:00128310       ?RestoreState@idPhysics_Monster@@UAEXXZ 10129310 f   Physics_Monster.obj
 0001:00128360       ?SetOrigin@idPhysics_Monster@@UAEXABVidVec3@@H@Z 10129360 f   Physics_Monster.obj
 0001:00128480       ?Translate@idPhysics_Monster@@UAEXABVidVec3@@H@Z 10129480 f   Physics_Monster.obj
 0001:00128500       ?Rotate@idPhysics_Monster@@UAEXABVidRotation@@H@Z 10129500 f   Physics_Monster.obj
 0001:00128740       ?SetLinearVelocity@idPhysics_Monster@@UAEXABVidVec3@@H@Z 10129740 f   Physics_Monster.obj
 0001:00128770       ?SetPushed@idPhysics_Monster@@UAEXH@Z 10129770 f   Physics_Monster.obj
 0001:00128820       ?SetMaster@idPhysics_Monster@@UAEXPAVidEntity@@_N@Z 10129820 f   Physics_Monster.obj
 0001:00128930       ?WriteToSnapshot@idPhysics_Monster@@UBEXAAVidBitMsgDelta@@@Z 10129930 f   Physics_Monster.obj
 0001:00128bc0       ?ReadFromSnapshot@idPhysics_Monster@@UAEXABVidBitMsgDelta@@@Z 10129bc0 f   Physics_Monster.obj
 0001:00128de0       ?SlideMove@idPhysics_Monster@@AAE?AW4monsterMoveResult_t@@AAVidVec3@@0ABV3@@Z 10129de0 f   Physics_Monster.obj
 0001:00128ff0       ?StepMove@idPhysics_Monster@@AAE?AW4monsterMoveResult_t@@AAVidVec3@@0ABV3@@Z 10129ff0 f   Physics_Monster.obj
 0001:00129600       ??0idPhysics_Monster@@QAE@XZ 1012a600 f   Physics_Monster.obj
 0001:00129690       ??_GidPhysics_Monster@@UAEPAXI@Z 1012a690 f i Physics_Monster.obj
 0001:00129690       ??_EidPhysics_Actor@@UAEPAXI@Z 1012a690 f i Physics_Actor.obj
 0001:00129690       ??_GidPhysics_Player@@UAEPAXI@Z 1012a690 f i Physics_Player.obj
 0001:00129690       ??_EidPhysics_Player@@UAEPAXI@Z 1012a690 f i Physics_Player.obj
 0001:00129690       ??_GidPhysics_Actor@@UAEPAXI@Z 1012a690 f i Physics_Actor.obj
 0001:00129690       ??_EidPhysics_Monster@@UAEPAXI@Z 1012a690 f i Physics_Monster.obj
 0001:001296b0       ?CreateInstance@idPhysics_Monster@@SAPAVidClass@@XZ 1012a6b0 f   Physics_Monster.obj
 0001:00129750       ?CheckGround@idPhysics_Monster@@AAEXAAUmonsterPState_s@@@Z 1012a750 f   Physics_Monster.obj
 0001:00129a30       ?Evaluate@idPhysics_Monster@@UAE_NHH@Z 1012aa30 f   Physics_Monster.obj
 0001:0012a000       ?GetType@idPhysics_Parametric@@UBEPAVidTypeInfo@@XZ 1012b000 f   Physics_Parametric.obj
 0001:0012a010       ?Activate@idPhysics_Parametric@@UAEXXZ 1012b010 f   Physics_Parametric.obj
 0001:0012a030       ?SetPusher@idPhysics_Parametric@@QAEXH@Z 1012b030 f   Physics_Parametric.obj
 0001:0012a050       ?IsPusher@idPhysics_Parametric@@QBE_NXZ 1012b050 f   Physics_Parametric.obj
 0001:0012a060       ?GetSpline@idPhysics_Parametric@@QBEPAV?$idCurve_Spline@VidVec3@@@@XZ 1012b060 f   Physics_Parametric.obj
 0001:0012a070       ?UsingSplineAngles@idPhysics_Parametric@@QBE_NXZ 1012b070 f   Physics_Parametric.obj
 0001:0012a080       ?SetClipModel@idPhysics_Parametric@@UAEXPAVidClipModel@@MH_N@Z 1012b080 f   Physics_Parametric.obj
 0001:0012a0e0       ?GetClipModel@idPhysics_Parametric@@UBEPAVidClipModel@@H@Z 1012b0e0 f   Physics_Parametric.obj
 0001:0012a0f0       ?GetNumClipModels@idPhysics_Parametric@@UBEHXZ 1012b0f0 f   Physics_Parametric.obj
 0001:0012a100       ?SetMaster@idPhysics_Base@@UAEXPAVidEntity@@_N@Z 1012b100 f   Physics_Base.obj
 0001:0012a100       ?Event_TeamBlocked@idMover_Periodic@@IAEXPAVidEntity@@0@Z 1012b100 f   Mover.obj
 0001:0012a100       ?SetContents@idPhysics_Base@@UAEXHH@Z 1012b100 f   Physics_Base.obj
 0001:0012a100       ?Translate@idPhysics_Parametric@@UAEXABVidVec3@@H@Z 1012b100 f   Physics_Parametric.obj
 0001:0012a100       ?SetMass@idPhysics_Parametric@@UAEXMH@Z 1012b100 f   Physics_Parametric.obj
 0001:0012a100       ?Rotate@idPhysics_Base@@UAEXABVidRotation@@H@Z 1012b100 f   Physics_Base.obj
 0001:0012a100       ?SetAxis@idPhysics_Base@@UAEXABVidMat3@@H@Z 1012b100 f   Physics_Base.obj
 0001:0012a100       ?SetAngularVelocity@idPhysics_StaticMulti@@UAEXABVidVec3@@H@Z 1012b100 f   Physics_StaticMulti.obj
 0001:0012a100       ?SetMass@idPhysics_Base@@UAEXMH@Z 1012b100 f   Physics_Base.obj
 0001:0012a100       ?SetLinearVelocity@idPhysics_StaticMulti@@UAEXABVidVec3@@H@Z 1012b100 f   Physics_StaticMulti.obj
 0001:0012a100       ?HandleMainMenuCommands@idGameLocal@@UAEXPBDPAVidUserInterface@@@Z 1012b100 f   Game_local.obj
 0001:0012a100       ?SetAngularVelocity@idPhysics_Base@@UAEXABVidVec3@@H@Z 1012b100 f   Physics_Base.obj
 0001:0012a100       ?Event_Touch@idLiquid@@AAEXPAVidEntity@@PAUtrace_s@@@Z 1012b100 f   Misc.obj
 0001:0012a100       ?SetOrigin@idPhysics_Base@@UAEXABVidVec3@@H@Z 1012b100 f   Physics_Base.obj
 0001:0012a100       ?SetAngularVelocity@idPhysics_Static@@UAEXABVidVec3@@H@Z 1012b100 f   Physics_Static.obj
 0001:0012a100       ?SetMass@idPhysics_StaticMulti@@UAEXMH@Z 1012b100 f   Physics_StaticMulti.obj
 0001:0012a100       ?SetClipMask@idPhysics_StaticMulti@@UAEXHH@Z 1012b100 f   Physics_StaticMulti.obj
 0001:0012a100       ?SetLinearVelocity@idPhysics_Static@@UAEXABVidVec3@@H@Z 1012b100 f   Physics_Static.obj
 0001:0012a100       ?SetClipMask@idPhysics_Static@@UAEXHH@Z 1012b100 f   Physics_Static.obj
 0001:0012a100       ?Translate@idPhysics_Base@@UAEXABVidVec3@@H@Z 1012b100 f   Physics_Base.obj
 0001:0012a100       ?Rotate@idPhysics_Parametric@@UAEXABVidRotation@@H@Z 1012b100 f   Physics_Parametric.obj
 0001:0012a100       ?SetMass@idPhysics_Static@@UAEXMH@Z 1012b100 f   Physics_Static.obj
 0001:0012a100       ?SetLinearVelocity@idPhysics_Base@@UAEXABVidVec3@@H@Z 1012b100 f   Physics_Base.obj
 0001:0012a110       ?SetContents@idPhysics_Parametric@@UAEXHH@Z 1012b110 f   Physics_Parametric.obj
 0001:0012a130       ?GetContents@idPhysics_Parametric@@UBEHH@Z 1012b130 f   Physics_Parametric.obj
 0001:0012a150       ?GetBounds@idPhysics_Parametric@@UBEABVidBounds@@H@Z 1012b150 f   Physics_Parametric.obj
 0001:0012a170       ?GetAbsBounds@idPhysics_Parametric@@UBEABVidBounds@@H@Z 1012b170 f   Physics_Parametric.obj
 0001:0012a190       ?GetRestStartTime@idPhysics_RigidBody@@UBEHXZ 1012b190 f   Physics_RigidBody.obj
 0001:0012a190       ?GetTime@idPhysics_Parametric@@UBEHXZ 1012b190 f   Physics_Parametric.obj
 0001:0012a1a0       ?IsAtRest@idPhysics_Parametric@@UBE_NXZ 1012b1a0 f   Physics_Parametric.obj
 0001:0012a1b0       ?GetRestStartTime@idPhysics_Parametric@@UBEHXZ 1012b1b0 f   Physics_Parametric.obj
 0001:0012a1c0       ?GetOrigin@idPhysics_Parametric@@UBEABVidVec3@@H@Z 1012b1c0 f   Physics_Parametric.obj
 0001:0012a1d0       ?GetAxis@idPhysics_Parametric@@UBEABVidMat3@@H@Z 1012b1d0 f   Physics_Parametric.obj
 0001:0012a1e0       ?DisableClip@idPhysics_Parametric@@UAEXXZ 1012b1e0 f   Physics_Parametric.obj
 0001:0012a1f0       ?EnableClip@idPhysics_Parametric@@UAEXXZ 1012b1f0 f   Physics_Parametric.obj
 0001:0012a200       ?UnlinkClip@idPhysics_Parametric@@UAEXXZ 1012b200 f   Physics_Parametric.obj
 0001:0012a210       ?LinkClip@idPhysics_Parametric@@UAEXXZ 1012b210 f   Physics_Parametric.obj
 0001:0012a240       ?GetBlockingInfo@idPhysics_Parametric@@UBEPBUtrace_s@@XZ 1012b240 f   Physics_Parametric.obj
 0001:0012a260       ?GetBlockingEntity@idPhysics_Parametric@@UBEPAVidEntity@@XZ 1012b260 f   Physics_Parametric.obj
 0001:0012a280       ?IsDone@?$idInterpolateAccelDecelLinear@VidAngles@@@@QBE_NM@Z 1012b280 f i Physics_Parametric.obj
 0001:0012a2b0       ?TestIfAtRest@idPhysics_Parametric@@ABE_NXZ 1012b2b0 f   Physics_Parametric.obj
 0001:0012a400       ??4?$idExtrapolate@VidAngles@@@@QAEAAV0@ABV0@@Z 1012b400 f i Physics_Parametric.obj
 0001:0012a400       ??4?$idExtrapolate@VidVec3@@@@QAEAAV0@ABV0@@Z 1012b400 f i Physics_Parametric.obj
 0001:0012a470       ??4?$idInterpolateAccelDecelLinear@VidVec3@@@@QAEAAV0@ABV0@@Z 1012b470 f i Physics_Parametric.obj
 0001:0012a470       ??4?$idInterpolateAccelDecelLinear@VidAngles@@@@QAEAAV0@ABV0@@Z 1012b470 f i Physics_Parametric.obj
 0001:0012a4d0       ??1idPhysics_Parametric@@UAE@XZ 1012b4d0 f   Physics_Parametric.obj
 0001:0012a560       ?idPhysics_Parametric_SavePState@@YAXPAVidSaveGame@@ABUparametricPState_s@@@Z 1012b560 f   Physics_Parametric.obj
 0001:0012a7d0       ?Save@idPhysics_Parametric@@QBEXPAVidSaveGame@@@Z 1012b7d0 f   Physics_Parametric.obj
 0001:0012a860       ?SetLinearExtrapolation@idPhysics_Parametric@@QAEXW4extrapolation_t@@HHABVidVec3@@11@Z 1012b860 f   Physics_Parametric.obj
 0001:0012a930       ?GetLinearExtrapolationType@idPhysics_Parametric@@QBE?AW4extrapolation_t@@XZ 1012b930 f   Physics_Parametric.obj
 0001:0012a940       ?GetAngularExtrapolationType@idPhysics_Parametric@@QBE?AW4extrapolation_t@@XZ 1012b940 f   Physics_Parametric.obj
 0001:0012a950       ?SetLinearInterpolation@idPhysics_Parametric@@QAEXHHHHABVidVec3@@0@Z 1012b950 f   Physics_Parametric.obj
 0001:0012abf0       ?GetSplineAcceleration@idPhysics_Parametric@@QBEHXZ 1012bbf0 f   Physics_Parametric.obj
 0001:0012ac00       ?GetSplineDeceleration@idPhysics_Parametric@@QBEHXZ 1012bc00 f   Physics_Parametric.obj
 0001:0012ac10       ?GetLocalOrigin@idPhysics_Parametric@@QBEXAAVidVec3@@@Z 1012bc10 f   Physics_Parametric.obj
 0001:0012ac40       ?GetLocalAngles@idPhysics_Parametric@@QBEXAAVidAngles@@@Z 1012bc40 f   Physics_Parametric.obj
 0001:0012ac70       ?GetAngles@idPhysics_Parametric@@QBEXAAVidAngles@@@Z 1012bc70 f   Physics_Parametric.obj
 0001:0012ac90       ?SetLinearVelocity@idPhysics_Parametric@@UAEXABVidVec3@@H@Z 1012bc90 f   Physics_Parametric.obj
 0001:0012ad20       ?GetLinearVelocity@idPhysics_Parametric@@UBEABVidVec3@@H@Z 1012bd20 f   Physics_Parametric.obj
 0001:0012b050       ?GetAngularEndTime@idPhysics_Parametric@@UBEHXZ 1012c050 f   Physics_Parametric.obj
 0001:0012b0e0       ?WriteToSnapshot@idPhysics_Parametric@@UBEXAAVidBitMsgDelta@@@Z 1012c0e0 f   Physics_Parametric.obj
 0001:0012b860       ?SetStartTime@?$idInterpolateAccelDecelLinear@VidVec3@@@@QAEXM@Z 1012c860 f i Physics_Parametric.obj
 0001:0012b860       ?SetStartTime@?$idInterpolateAccelDecelLinear@VidAngles@@@@QAEXM@Z 1012c860 f i Physics_Parametric.obj
 0001:0012b8d0       ??_GidPhysics_Parametric@@UAEPAXI@Z 1012c8d0 f i Physics_Parametric.obj
 0001:0012b8d0       ??_EidPhysics_Parametric@@UAEPAXI@Z 1012c8d0 f i Physics_Parametric.obj
 0001:0012b8f0       ??0parametricPState_s@@QAE@XZ 1012c8f0 f i Physics_Parametric.obj
 0001:0012bbc0       ??4parametricPState_s@@QAEAAU0@ABU0@@Z 1012cbc0 f i Physics_Parametric.obj
 0001:0012bcd0       ?idPhysics_Parametric_RestorePState@@YAXPAVidRestoreGame@@AAUparametricPState_s@@@Z 1012ccd0 f   Physics_Parametric.obj
 0001:0012c620       ?Restore@idPhysics_Parametric@@QAEXPAVidRestoreGame@@@Z 1012d620 f   Physics_Parametric.obj
 0001:0012c6b0       ?SetAngularExtrapolation@idPhysics_Parametric@@QAEXW4extrapolation_t@@HHABVidAngles@@11@Z 1012d6b0 f   Physics_Parametric.obj
 0001:0012c780       ?SetSpline@idPhysics_Parametric@@QAEXPAV?$idCurve_Spline@VidVec3@@@@HH_N@Z 1012d780 f   Physics_Parametric.obj
 0001:0012d3e0       ?SaveState@idPhysics_Parametric@@UAEXXZ 1012e3e0 f   Physics_Parametric.obj
 0001:0012d3f0       ?RestoreState@idPhysics_Parametric@@UAEXXZ 1012e3f0 f   Physics_Parametric.obj
 0001:0012d430       ?SetOrigin@idPhysics_Parametric@@UAEXABVidVec3@@H@Z 1012e430 f   Physics_Parametric.obj
 0001:0012dc60       ?SetAngularVelocity@idPhysics_Parametric@@UAEXABVidVec3@@H@Z 1012ec60 f   Physics_Parametric.obj
 0001:0012de20       ?GetAngularVelocity@idPhysics_Parametric@@UBEABVidVec3@@H@Z 1012ee20 f   Physics_Parametric.obj
 0001:0012e0f0       ?SetMaster@idPhysics_Parametric@@UAEXPAVidEntity@@_N@Z 1012f0f0 f   Physics_Parametric.obj
 0001:0012e3a0       ?GetLinearEndTime@idPhysics_Parametric@@UBEHXZ 1012f3a0 f   Physics_Parametric.obj
 0001:0012e480       ?ReadFromSnapshot@idPhysics_Parametric@@UAEXABVidBitMsgDelta@@@Z 1012f480 f   Physics_Parametric.obj
 0001:0012f2b0       ?SetStartValue@?$idInterpolateAccelDecelLinear@VidVec3@@@@QAEXABVidVec3@@@Z 101302b0 f i Physics_Parametric.obj
 0001:0012f2b0       ?SetStartValue@?$idInterpolateAccelDecelLinear@VidAngles@@@@QAEXABVidAngles@@@Z 101302b0 f i Physics_Parametric.obj
 0001:0012f330       ??0idPhysics_Parametric@@QAE@XZ 10130330 f   Physics_Parametric.obj
 0001:0012f6c0       ?Evaluate@idPhysics_Parametric@@UAE_NHH@Z 101306c0 f   Physics_Parametric.obj
 0001:00132ba0       ?UpdateTime@idPhysics_Parametric@@UAEXH@Z 10133ba0 f   Physics_Parametric.obj
 0001:00132cc0       ?SetAxis@idPhysics_Parametric@@UAEXABVidMat3@@H@Z 10133cc0 f   Physics_Parametric.obj
 0001:001334e0       ?CreateInstance@idPhysics_Parametric@@SAPAVidClass@@XZ 101344e0 f   Physics_Parametric.obj
 0001:00133580       ?GetType@idPhysics_Player@@UBEPAVidTypeInfo@@XZ 10134580 f   Physics_Player.obj
 0001:00133590       ?CmdScale@idPhysics_Player@@ABEMABVusercmd_t@@@Z 10134590 f   Physics_Player.obj
 0001:001336c0       ?DropTimers@idPhysics_Player@@AAEXXZ 101346c0 f   Physics_Player.obj
 0001:00133700       ?GetWaterLevel@idPhysics_Player@@QBE?AW4waterLevel_t@@XZ 10134700 f   Physics_Player.obj
 0001:00133710       ?HasJumped@idPhysics_Player@@QBE_NXZ 10134710 f   Physics_Player.obj
 0001:00133720       ?HasSteppedUp@idPhysics_Player@@QBE_NXZ 10134720 f   Physics_Player.obj
 0001:00133730       ?GetStepUp@idPhysics_Player@@QBEMXZ 10134730 f   Physics_Player.obj
 0001:00133740       ?IsCrouching@idPhysics_Player@@QBE_NXZ 10134740 f   Physics_Player.obj
 0001:00133750       ?OnLadder@idPhysics_Player@@QBE_NXZ 10134750 f   Physics_Player.obj
 0001:00133760       ??4playerPState_s@@QAEAAU0@ABU0@@Z 10134760 f i Physics_Player.obj
 0001:001337d0       ?idPhysics_Player_SavePState@@YAXPAVidSaveGame@@ABUplayerPState_s@@@Z 101347d0 f   Physics_Player.obj
 0001:00133840       ?idPhysics_Player_RestorePState@@YAXPAVidRestoreGame@@AAUplayerPState_s@@@Z 10134840 f   Physics_Player.obj
 0001:001338b0       ?Save@idPhysics_Player@@QBEXPAVidSaveGame@@@Z 101348b0 f   Physics_Player.obj
 0001:00133a10       ?Restore@idPhysics_Player@@QAEXPAVidRestoreGame@@@Z 10134a10 f   Physics_Player.obj
 0001:00133b60       ?SetSpeed@idPhysics_Player@@QAEXMM@Z 10134b60 f   Physics_Player.obj
 0001:00133b80       ?SetMaxStepHeight@idPhysics_Player@@QAEXM@Z 10134b80 f   Physics_Player.obj
 0001:00133b90       ?SetMaxJumpHeight@idPhysics_Player@@QAEXM@Z 10134b90 f   Physics_Player.obj
 0001:00133ba0       ?SetMovementType@idPhysics_Player@@QAEXW4pmtype_t@@@Z 10134ba0 f   Physics_Player.obj
 0001:00133bb0       ?SetKnockBack@idPhysics_Player@@QAEXH@Z 10134bb0 f   Physics_Player.obj
 0001:00133bd0       ?SetDebugLevel@idPhysics_Player@@QAEX_N@Z 10134bd0 f   Physics_Player.obj
 0001:00133be0       ?GetTime@idPhysics_RigidBody@@UBEHXZ 10134be0 f   Physics_RigidBody.obj
 0001:00133be0       ?GetTime@idPhysics_Player@@UBEHXZ 10134be0 f   Physics_Player.obj
 0001:00133be0       ?GetTime@idPhysics_AF@@UBEHXZ 10134be0 f   Physics_AF.obj
 0001:00133be0       ?GetTime@idPhysics_Monster@@UBEHXZ 10134be0 f   Physics_Monster.obj
 0001:00133bf0       ?ApplyImpulse@idPhysics_Player@@UAEXHABVidVec3@@0@Z 10134bf0 f   Physics_Player.obj
 0001:00133c60       ?ShouldConstructScriptObjectAtSpawn@idWeapon@@UBE_NXZ 10134c60 f   Weapon.obj
 0001:00133c60       ?OnLadder@idActor@@UBE_NXZ 10134c60 f   Actor.obj
 0001:00133c60       ?IsAtRest@idPhysics_Player@@UBE_NXZ 10134c60 f   Physics_Player.obj
 0001:00133c60       ?IsPushable@idPhysics_Parametric@@UBE_NXZ 10134c60 f   Physics_Parametric.obj
 0001:00133c60       ?EvaluateContacts@idPhysics_Base@@UAE_NXZ 10134c60 f   Physics_Base.obj
 0001:00133c60       ?EvaluateContacts@idPhysics_StaticMulti@@UAE_NXZ 10134c60 f   Physics_StaticMulti.obj
 0001:00133c60       ?HasGroundContacts@idPhysics_StaticMulti@@UBE_NXZ 10134c60 f   Physics_StaticMulti.obj
 0001:00133c60       ?IsPushable@idPhysics_Static@@UBE_NXZ 10134c60 f   Physics_Static.obj
 0001:00133c60       ?HasGroundContacts@idPhysics_Static@@UBE_NXZ 10134c60 f   Physics_Static.obj
 0001:00133c60       ?EvaluateContacts@idPhysics_Static@@UAE_NXZ 10134c60 f   Physics_Static.obj
 0001:00133c60       ?ShouldConstructScriptObjectAtSpawn@idActor@@UBE_NXZ 10134c60 f   Actor.obj
 0001:00133c60       ?IsPushable@idPhysics_StaticMulti@@UBE_NXZ 10134c60 f   Physics_StaticMulti.obj
 0001:00133c60       ?ShouldConstructScriptObjectAtSpawn@idTestModel@@UBE_NXZ 10134c60 f   Anim_Testmodel.obj
 0001:00133c60       ?UpdateAnimationControllers@idEntity@@UAE_NXZ 10134c60 f   Entity.obj
 0001:00133c60       ?NetworkSyncTarget@idEntity@@UBE_NXZ 10134c60 f   Entity.obj
 0001:00133c70       ?GetRestStartTime@idPhysics_Player@@UBEHXZ 10134c70 f   Physics_Player.obj
 0001:00133c80       ?SaveState@idPhysics_Player@@UAEXXZ 10134c80 f   Physics_Player.obj
 0001:00133ca0       ?RestoreState@idPhysics_Player@@UAEXXZ 10134ca0 f   Physics_Player.obj
 0001:00133ce0       ?PlayerGetOrigin@idPhysics_Player@@QBEABVidVec3@@XZ 10134ce0 f   Physics_Player.obj
 0001:00133cf0       ?SetAxis@idPhysics_Player@@UAEXABVidMat3@@H@Z 10134cf0 f   Physics_Player.obj
 0001:00133d20       ?Translate@idPhysics_Player@@UAEXABVidVec3@@H@Z 10134d20 f   Physics_Player.obj
 0001:00133d90       ?SetLinearVelocity@idPhysics_Player@@UAEXABVidVec3@@H@Z 10134d90 f   Physics_Player.obj
 0001:00133dc0       ?GetLinearVelocity@idPhysics_Player@@UBEABVidVec3@@H@Z 10134dc0 f   Physics_Player.obj
 0001:00133dd0       ?SetPushed@idPhysics_Player@@UAEXH@Z 10134dd0 f   Physics_Player.obj
 0001:00133f10       ?GetPushedLinearVelocity@idPhysics_Player@@UBEABVidVec3@@H@Z 10134f10 f   Physics_Player.obj
 0001:00133f20       ?ClearPushedVelocity@idPhysics_Player@@QAEXXZ 10134f20 f   Physics_Player.obj
 0001:00133f40       ?Accelerate@idPhysics_Player@@AAEXABVidVec3@@MM@Z 10134f40 f   Physics_Player.obj
 0001:00134030       ?Friction@idPhysics_Player@@AAEXXZ 10135030 f   Physics_Player.obj
 0001:00134370       ?DeadMove@idPhysics_Player@@AAEXXZ 10135370 f   Physics_Player.obj
 0001:00134550       ?NoclipMove@idPhysics_Player@@AAEXXZ 10135550 f   Physics_Player.obj
 0001:00134980       ?CorrectAllSolid@idPhysics_Player@@AAEXAAUtrace_s@@H@Z 10135980 f   Physics_Player.obj
 0001:00134a80       ?CheckJump@idPhysics_Player@@AAE_NXZ 10135a80 f   Physics_Player.obj
 0001:00134c80       ?CheckWaterJump@idPhysics_Player@@AAE_NXZ 10135c80 f   Physics_Player.obj
 0001:00135000       ?SetWaterLevel@idPhysics_Player@@AAEXXZ 10136000 f   Physics_Player.obj
 0001:00135260       ?SetPlayerInput@idPhysics_Player@@QAEXABVusercmd_t@@ABVidAngles@@@Z 10136260 f   Physics_Player.obj
 0001:001352a0       ?GetImpactInfo@idPhysics_Player@@UBEXHABVidVec3@@PAUimpactInfo_s@@@Z 101362a0 f   Physics_Player.obj
 0001:001352f0       ?SetOrigin@idPhysics_Player@@UAEXABVidVec3@@H@Z 101362f0 f   Physics_Player.obj
 0001:00135410       ?Rotate@idPhysics_Player@@UAEXABVidRotation@@H@Z 10136410 f   Physics_Player.obj
 0001:00135640       ?SetMaster@idPhysics_Player@@UAEXPAVidEntity@@_N@Z 10136640 f   Physics_Player.obj
 0001:00135750       ?WriteToSnapshot@idPhysics_Player@@UBEXAAVidBitMsgDelta@@@Z 10136750 f   Physics_Player.obj
 0001:00135a10       ?ReadFromSnapshot@idPhysics_Player@@UAEXABVidBitMsgDelta@@@Z 10136a10 f   Physics_Player.obj
 0001:00135cb0       ?CheckGround@idPhysics_Player@@AAEXXZ 10136cb0 f   Physics_Player.obj
 0001:00136290       ?CheckDuck@idPhysics_Player@@AAEXXZ 10137290 f   Physics_Player.obj
 0001:00136480       ?CheckLadder@idPhysics_Player@@AAEXXZ 10137480 f   Physics_Player.obj
 0001:00136830       ??0idPhysics_Player@@QAE@XZ 10137830 f   Physics_Player.obj
 0001:00136950       ?CreateInstance@idPhysics_Player@@SAPAVidClass@@XZ 10137950 f   Physics_Player.obj
 0001:001369f0       ?SlideMove@idPhysics_Player@@AAE_N_N000@Z 101379f0 f   Physics_Player.obj
 0001:00138090       ?WaterJumpMove@idPhysics_Player@@AAEXXZ 10139090 f   Physics_Player.obj
 0001:00138150       ?WaterMove@idPhysics_Player@@AAEXXZ 10139150 f   Physics_Player.obj
 0001:001386c0       ?AirMove@idPhysics_Player@@AAEXXZ 101396c0 f   Physics_Player.obj
 0001:00138c40       ?WalkMove@idPhysics_Player@@AAEXXZ 10139c40 f   Physics_Player.obj
 0001:00139630       ?SpectatorMove@idPhysics_Player@@AAEXXZ 1013a630 f   Physics_Player.obj
 0001:00139840       ?LadderMove@idPhysics_Player@@AAEXXZ 1013a840 f   Physics_Player.obj
 0001:0013a2a0       ?MovePlayer@idPhysics_Player@@AAEXH@Z 1013b2a0 f   Physics_Player.obj
 0001:0013a630       ?Evaluate@idPhysics_Player@@UAE_NHH@Z 1013b630 f   Physics_Player.obj
 0001:0013a850       ?GetType@idPhysics_RigidBody@@UBEPAVidTypeInfo@@XZ 1013b850 f   Physics_RigidBody.obj
 0001:0013a860       ?idPhysics_RigidBody_SavePState@@YAXPAVidSaveGame@@ABUrigidBodyPState_s@@@Z 1013b860 f   Physics_RigidBody.obj
 0001:0013a8f0       ?idPhysics_RigidBody_RestorePState@@YAXPAVidRestoreGame@@AAUrigidBodyPState_s@@@Z 1013b8f0 f   Physics_RigidBody.obj
 0001:0013a980       ?Save@idPhysics_RigidBody@@QBEXPAVidSaveGame@@@Z 1013b980 f   Physics_RigidBody.obj
 0001:0013aaa0       ?Restore@idPhysics_RigidBody@@QAEXPAVidRestoreGame@@@Z 1013baa0 f   Physics_RigidBody.obj
 0001:0013abb0       ?GetClipModel@idPhysics_RigidBody@@UBEPAVidClipModel@@H@Z 1013bbb0 f   Physics_RigidBody.obj
 0001:0013abc0       ?GetMass@idPhysics_RigidBody@@UBEMH@Z 1013bbc0 f   Physics_RigidBody.obj
 0001:0013abd0       ?SetFriction@idPhysics_RigidBody@@QAEXMMM@Z 1013bbd0 f   Physics_RigidBody.obj
 0001:0013ac40       ?SetBouncyness@idPhysics_RigidBody@@QAEXM@Z 1013bc40 f   Physics_RigidBody.obj
 0001:0013ac70       ?DropToFloor@idPhysics_RigidBody@@QAEXXZ 1013bc70 f   Physics_RigidBody.obj
 0001:0013ac80       ?NoContact@idPhysics_RigidBody@@QAEXXZ 1013bc80 f   Physics_RigidBody.obj
 0001:0013ac90       ?Activate@idPhysics_RigidBody@@UAEXXZ 1013bc90 f   Physics_RigidBody.obj
 0001:0013acb0       ?EnableImpact@idPhysics_RigidBody@@QAEXXZ 1013bcb0 f   Physics_RigidBody.obj
 0001:0013acc0       ?DisableImpact@idPhysics_RigidBody@@QAEXXZ 1013bcc0 f   Physics_RigidBody.obj
 0001:0013acd0       ?SetContents@idPhysics_RigidBody@@UAEXHH@Z 1013bcd0 f   Physics_RigidBody.obj
 0001:0013ace0       ?GetContents@idPhysics_RigidBody@@UBEHH@Z 1013bce0 f   Physics_RigidBody.obj
 0001:0013acf0       ?GetBounds@idPhysics_RigidBody@@UBEABVidBounds@@H@Z 1013bcf0 f   Physics_RigidBody.obj
 0001:0013ad00       ?GetAbsBounds@idPhysics_RigidBody@@UBEABVidBounds@@H@Z 1013bd00 f   Physics_RigidBody.obj
 0001:0013ad10       ?IsAtRest@idPhysics_RigidBody@@UBE_NXZ 1013bd10 f   Physics_RigidBody.obj
 0001:0013ad20       ?IsPushable@idPhysics_RigidBody@@UBE_NXZ 1013bd20 f   Physics_RigidBody.obj
 0001:0013ad40       ?Translate@idPhysics_RigidBody@@UAEXABVidVec3@@H@Z 1013bd40 f   Physics_RigidBody.obj
 0001:0013adb0       ?GetOrigin@idPhysics_RigidBody@@UBEABVidVec3@@H@Z 1013bdb0 f   Physics_RigidBody.obj
 0001:0013adc0       ?GetAxis@idPhysics_RigidBody@@UBEABVidMat3@@H@Z 1013bdc0 f   Physics_RigidBody.obj
 0001:0013add0       ?SetLinearVelocity@idPhysics_RigidBody@@UAEXABVidVec3@@H@Z 1013bdd0 f   Physics_RigidBody.obj
 0001:0013ae30       ?GetLinearVelocity@idPhysics_RigidBody@@UBEABVidVec3@@H@Z 1013be30 f   Physics_RigidBody.obj
 0001:0013aeb0       ?ClipTranslation@idPhysics_RigidBody@@UBEXAAUtrace_s@@ABVidVec3@@PBVidClipModel@@@Z 1013beb0 f   Physics_RigidBody.obj
 0001:0013afa0       ?ClipRotation@idPhysics_RigidBody@@UBEXAAUtrace_s@@ABVidRotation@@PBVidClipModel@@@Z 1013bfa0 f   Physics_RigidBody.obj
 0001:0013b020       ?ClipContents@idPhysics_RigidBody@@UBEHPBVidClipModel@@@Z 1013c020 f   Physics_RigidBody.obj
 0001:0013b080       ?DisableClip@idPhysics_RigidBody@@UAEXXZ 1013c080 f   Physics_RigidBody.obj
 0001:0013b090       ?EnableClip@idPhysics_RigidBody@@UAEXXZ 1013c090 f   Physics_RigidBody.obj
 0001:0013b0a0       ?UnlinkClip@idPhysics_RigidBody@@UAEXXZ 1013c0a0 f   Physics_RigidBody.obj
 0001:0013b0b0       ?LinkClip@idPhysics_RigidBody@@UAEXXZ 1013c0b0 f   Physics_RigidBody.obj
 0001:0013b0e0       ?RigidBodyDerivatives@@YAXMPBXPBMPAM@Z 1013c0e0 f   Physics_RigidBody.obj
 0001:0013b600       ?Integrate@idPhysics_RigidBody@@AAEXMAAUrigidBodyPState_s@@@Z 1013c600 f   Physics_RigidBody.obj
 0001:0013bc00       ?ContactFriction@idPhysics_RigidBody@@AAEXM@Z 1013cc00 f   Physics_RigidBody.obj
 0001:0013c960       ?TestIfAtRest@idPhysics_RigidBody@@ABE_NXZ 1013d960 f   Physics_RigidBody.obj
 0001:0013d1f0       ?DebugDraw@idPhysics_RigidBody@@AAEXXZ 1013e1f0 f   Physics_RigidBody.obj
 0001:0013d3c0       ??4rididBodyIState_s@@QAEAAU0@ABU0@@Z 1013e3c0 f i Physics_RigidBody.obj
 0001:0013d440       ??1idPhysics_RigidBody@@UAE@XZ 1013e440 f   Physics_RigidBody.obj
 0001:0013d4d0       ?SetMass@idPhysics_RigidBody@@UAEXMH@Z 1013e4d0 f   Physics_RigidBody.obj
 0001:0013d6b0       ?Rest@idPhysics_RigidBody@@AAEXXZ 1013e6b0 f   Physics_RigidBody.obj
 0001:0013d6b0       ?PutToRest@idPhysics_RigidBody@@UAEXXZ 1013e6b0 f   Physics_RigidBody.obj
 0001:0013d6f0       ?GetImpactInfo@idPhysics_RigidBody@@UBEXHABVidVec3@@PAUimpactInfo_s@@@Z 1013e6f0 f   Physics_RigidBody.obj
 0001:0013db80       ?ApplyImpulse@idPhysics_RigidBody@@UAEXHABVidVec3@@0@Z 1013eb80 f   Physics_RigidBody.obj
 0001:0013dd10       ?AddForce@idPhysics_RigidBody@@UAEXHABVidVec3@@0@Z 1013ed10 f   Physics_RigidBody.obj
 0001:0013dea0       ?SetOrigin@idPhysics_RigidBody@@UAEXABVidVec3@@H@Z 1013eea0 f   Physics_RigidBody.obj
 0001:0013dfc0       ?SetAxis@idPhysics_RigidBody@@UAEXABVidMat3@@H@Z 1013efc0 f   Physics_RigidBody.obj
 0001:0013e1a0       ?Rotate@idPhysics_RigidBody@@UAEXABVidRotation@@H@Z 1013f1a0 f   Physics_RigidBody.obj
 0001:0013e4b0       ?SetAngularVelocity@idPhysics_RigidBody@@UAEXABVidVec3@@H@Z 1013f4b0 f   Physics_RigidBody.obj
 0001:0013e550       ?GetAngularVelocity@idPhysics_RigidBody@@UBEABVidVec3@@H@Z 1013f550 f   Physics_RigidBody.obj
 0001:0013e820       ?SetPushed@idPhysics_RigidBody@@UAEXH@Z 1013f820 f   Physics_RigidBody.obj
 0001:0013ea50       ?GetPushedLinearVelocity@idPhysics_RigidBody@@UBEABVidVec3@@H@Z 1013fa50 f   Physics_RigidBody.obj
 0001:0013ea60       ?GetPushedAngularVelocity@idPhysics_RigidBody@@UBEABVidVec3@@H@Z 1013fa60 f   Physics_RigidBody.obj
 0001:0013ea70       ?SetMaster@idPhysics_RigidBody@@UAEXPAVidEntity@@_N@Z 1013fa70 f   Physics_RigidBody.obj
 0001:0013ec50       ?WriteToSnapshot@idPhysics_RigidBody@@UBEXAAVidBitMsgDelta@@@Z 1013fc50 f   Physics_RigidBody.obj
 0001:0013f220       ?ReadFromSnapshot@idPhysics_RigidBody@@UAEXABVidBitMsgDelta@@@Z 10140220 f   Physics_RigidBody.obj
 0001:0013f7b0       ?CollisionImpulse@idPhysics_RigidBody@@AAE_NABUtrace_s@@AAVidVec3@@@Z 101407b0 f   Physics_RigidBody.obj
 0001:001400d0       ?CheckForCollisions@idPhysics_RigidBody@@AAE_NMAAUrigidBodyPState_s@@AAUtrace_s@@@Z 101410d0 f   Physics_RigidBody.obj
 0001:00140360       ??_GidPhysics_RigidBody@@UAEPAXI@Z 10141360 f i Physics_RigidBody.obj
 0001:00140360       ??_EidPhysics_RigidBody@@UAEPAXI@Z 10141360 f i Physics_RigidBody.obj
 0001:00140380       ??4rigidBodyPState_s@@QAEAAU0@ABU0@@Z 10141380 f i Physics_RigidBody.obj
 0001:00140440       ?SetClipModel@idPhysics_RigidBody@@UAEXPAVidClipModel@@MH_N@Z 10141440 f   Physics_RigidBody.obj
 0001:00140830       ?SaveState@idPhysics_RigidBody@@UAEXXZ 10141830 f   Physics_RigidBody.obj
 0001:00140840       ?RestoreState@idPhysics_RigidBody@@UAEXXZ 10141840 f   Physics_RigidBody.obj
 0001:00140890       ?DropToFloorAndRest@idPhysics_RigidBody@@AAEXXZ 10141890 f   Physics_RigidBody.obj
 0001:00140ac0       ??0idPhysics_RigidBody@@QAE@XZ 10141ac0 f   Physics_RigidBody.obj
 0001:00140ca0       ?Evaluate@idPhysics_RigidBody@@UAE_NHH@Z 10141ca0 f   Physics_RigidBody.obj
 0001:00141560       ?EvaluateContacts@idPhysics_RigidBody@@UAE_NXZ 10142560 f   Physics_RigidBody.obj
 0001:00141980       ?CreateInstance@idPhysics_RigidBody@@SAPAVidClass@@XZ 10142980 f   Physics_RigidBody.obj
 0001:00141a20       ?GetType@idPhysics_Static@@UBEPAVidTypeInfo@@XZ 10142a20 f   Physics_Static.obj
 0001:00141a30       ?Save@idPhysics_Static@@QBEXPAVidSaveGame@@@Z 10142a30 f   Physics_Static.obj
 0001:00141aa0       ?Restore@idPhysics_Static@@QAEXPAVidRestoreGame@@@Z 10142aa0 f   Physics_Static.obj
 0001:00141b10       ?SetClipModel@idPhysics_Static@@UAEXPAVidClipModel@@MH_N@Z 10142b10 f   Physics_Static.obj
 0001:00141b70       ?GetClipModel@idPhysics_Static@@UBEPAVidClipModel@@H@Z 10142b70 f   Physics_Static.obj
 0001:00141b80       ?GetNumClipModels@idPhysics_Static@@UBEHXZ 10142b80 f   Physics_Static.obj
 0001:00141b90       ?SetContents@idPhysics_Static@@UAEXHH@Z 10142b90 f   Physics_Static.obj
 0001:00141bb0       ?GetContents@idPhysics_Static@@UBEHH@Z 10142bb0 f   Physics_Static.obj
 0001:00141bd0       ?GetBounds@idPhysics_Static@@UBEABVidBounds@@H@Z 10142bd0 f   Physics_Static.obj
 0001:00141bf0       ?GetOrigin@idPhysics_Static@@UBEABVidVec3@@H@Z 10142bf0 f   Physics_Static.obj
 0001:00141c00       ?GetAxis@idPhysics_Static@@UBEABVidMat3@@H@Z 10142c00 f   Physics_Static.obj
 0001:00141c10       ?ClipRotation@idPhysics_Static@@UBEXAAUtrace_s@@ABVidRotation@@PBVidClipModel@@@Z 10142c10 f   Physics_Static.obj
 0001:00141c80       ?ClipContents@idPhysics_Static@@UBEHPBVidClipModel@@@Z 10142c80 f   Physics_Static.obj
 0001:00141cf0       ?DisableClip@idPhysics_Static@@UAEXXZ 10142cf0 f   Physics_Static.obj
 0001:00141d00       ?EnableClip@idPhysics_Static@@UAEXXZ 10142d00 f   Physics_Static.obj
 0001:00141d10       ?UnlinkClip@idPhysics_Static@@UAEXXZ 10142d10 f   Physics_Static.obj
 0001:00141d20       ?LinkClip@idPhysics_Static@@UAEXXZ 10142d20 f   Physics_Static.obj
 0001:00141d50       ?Evaluate@idPhysics_Base@@UAE_NHH@Z 10142d50 f   Physics_Base.obj
 0001:00141d50       ?GetPhysicsToVisualTransform@idEntity@@UAE_NAAVidVec3@@AAVidMat3@@@Z 10142d50 f   Entity.obj
 0001:00141d50       ?IsGroundClipModel@idPhysics_StaticMulti@@UBE_NHH@Z 10142d50 f   Physics_StaticMulti.obj
 0001:00141d50       ?Collide@idEntity@@UAE_NABUtrace_s@@ABVidVec3@@@Z 10142d50 f   Entity.obj
 0001:00141d50       ?IsGroundClipModel@idPhysics_Static@@UBE_NHH@Z 10142d50 f   Physics_Static.obj
 0001:00141d50       ?HandleSingleGuiCommand@idEntity@@UAE_NPAV1@PAVidLexer@@@Z 10142d50 f   Entity.obj
 0001:00141d60       ?GetNumContacts@idPhysics_StaticMulti@@UBEHXZ 10142d60 f   Physics_StaticMulti.obj
 0001:00141d60       ?GetTime@idPhysics_Base@@UBEHXZ 10142d60 f   Physics_Base.obj
 0001:00141d60       ?GetAngularEndTime@idPhysics_Base@@UBEHXZ 10142d60 f   Physics_Base.obj
 0001:00141d60       ?GetBlockingInfo@idPhysics_Static@@UBEPBUtrace_s@@XZ 10142d60 f   Physics_Static.obj
 0001:00141d60       ?GetBlockingEntity@idPhysics_Static@@UBEPAVidEntity@@XZ 10142d60 f   Physics_Static.obj
 0001:00141d60       ?GetBlockingInfo@idPhysics_Base@@UBEPBUtrace_s@@XZ 10142d60 f   Physics_Base.obj
 0001:00141d60       ?GetTime@idPhysics_StaticMulti@@UBEHXZ 10142d60 f   Physics_StaticMulti.obj
 0001:00141d60       ?GetNumClipModels@idPhysics_Base@@UBEHXZ 10142d60 f   Physics_Base.obj
 0001:00141d60       ?GetBlockingInfo@idPhysics_StaticMulti@@UBEPBUtrace_s@@XZ 10142d60 f   Physics_StaticMulti.obj
 0001:00141d60       ?GetTime@idPhysics_Static@@UBEHXZ 10142d60 f   Physics_Static.obj
 0001:00141d60       ?GetRestStartTime@idPhysics_Base@@UBEHXZ 10142d60 f   Physics_Base.obj
 0001:00141d60       ?GetAnimator@idEntity@@UAEPAVidAnimator@@XZ 10142d60 f   Entity.obj
 0001:00141d60       ?GetNumContacts@idPhysics_Static@@UBEHXZ 10142d60 f   Physics_Static.obj
 0001:00141d60       ?GetAngularEndTime@idPhysics_Static@@UBEHXZ 10142d60 f   Physics_Static.obj
 0001:00141d60       ?GetBlockingEntity@idPhysics_Base@@UBEPAVidEntity@@XZ 10142d60 f   Physics_Base.obj
 0001:00141d60       ?GetLinearEndTime@idPhysics_Static@@UBEHXZ 10142d60 f   Physics_Static.obj
 0001:00141d60       ?GetRestStartTime@idPhysics_Static@@UBEHXZ 10142d60 f   Physics_Static.obj
 0001:00141d60       ?GetLinearEndTime@idPhysics_Base@@UBEHXZ 10142d60 f   Physics_Base.obj
 0001:00141d60       ?GetRestStartTime@idPhysics_StaticMulti@@UBEHXZ 10142d60 f   Physics_StaticMulti.obj
 0001:00141d60       ?GetLinearEndTime@idPhysics_StaticMulti@@UBEHXZ 10142d60 f   Physics_StaticMulti.obj
 0001:00141d60       ?GetAngularEndTime@idPhysics_StaticMulti@@UBEHXZ 10142d60 f   Physics_StaticMulti.obj
 0001:00141d60       ?GetBlockingEntity@idPhysics_StaticMulti@@UBEPAVidEntity@@XZ 10142d60 f   Physics_StaticMulti.obj
 0001:00141d70       ??1idPhysics_Static@@UAE@XZ 10142d70 f   Physics_Static.obj
 0001:00141e00       ?GetAbsBounds@idPhysics_Static@@UBEABVidBounds@@H@Z 10142e00 f   Physics_Static.obj
 0001:00141e70       ?Evaluate@idPhysics_Static@@UAE_NHH@Z 10142e70 f   Physics_Static.obj
 0001:00142220       ?SetOrigin@idPhysics_Static@@UAEXABVidVec3@@H@Z 10143220 f   Physics_Static.obj
 0001:00142330       ?SetAxis@idPhysics_Static@@UAEXABVidMat3@@H@Z 10143330 f   Physics_Static.obj
 0001:00142500       ?Translate@idPhysics_Static@@UAEXABVidVec3@@H@Z 10143500 f   Physics_Static.obj
 0001:00142560       ?Rotate@idPhysics_Static@@UAEXABVidRotation@@H@Z 10143560 f   Physics_Static.obj
 0001:00142830       ?GetGravity@idPhysics_Static@@UBEABVidVec3@@XZ 10143830 f   Physics_Static.obj
 0001:00142870       ?GetGravityNormal@idPhysics_Static@@UBEABVidVec3@@XZ 10143870 f   Physics_Static.obj
 0001:001428b0       ?ClipTranslation@idPhysics_Static@@UBEXAAUtrace_s@@ABVidVec3@@PBVidClipModel@@@Z 101438b0 f   Physics_Static.obj
 0001:00142970       ?SetMaster@idPhysics_Static@@UAEXPAVidEntity@@_N@Z 10143970 f   Physics_Static.obj
 0001:00142b20       ?WriteToSnapshot@idPhysics_Static@@UBEXAAVidBitMsgDelta@@@Z 10143b20 f   Physics_Static.obj
 0001:00142cd0       ?ReadFromSnapshot@idPhysics_Static@@UAEXABVidBitMsgDelta@@@Z 10143cd0 f   Physics_Static.obj
 0001:00142e80       ??0idPhysics_Static@@QAE@XZ 10143e80 f   Physics_Static.obj
 0001:00142f50       ??_GidPhysics_Static@@UAEPAXI@Z 10143f50 f i Physics_Static.obj
 0001:00142f50       ??_EidPhysics_Static@@UAEPAXI@Z 10143f50 f i Physics_Static.obj
 0001:00142f70       ?GetContact@idPhysics_Static@@UBEABUcontactInfo_t@@H@Z 10143f70 f   Physics_Static.obj
 0001:00142fa0       ?CreateInstance@idPhysics_Static@@SAPAVidClass@@XZ 10143fa0 f   Physics_Static.obj
 0001:00143010       ?GetType@idPhysics_StaticMulti@@UBEPAVidTypeInfo@@XZ 10144010 f   Physics_StaticMulti.obj
 0001:00143020       ?GetImpactInfo@idPhysics_StaticMulti@@UBEXHABVidVec3@@PAUimpactInfo_s@@@Z 10144020 f   Physics_StaticMulti.obj
 0001:00143020       ?GetImpactInfo@idPhysics_Base@@UBEXHABVidVec3@@PAUimpactInfo_s@@@Z 10144020 f   Physics_Base.obj
 0001:00143020       ?GetImpactInfo@idPhysics_Static@@UBEXHABVidVec3@@PAUimpactInfo_s@@@Z 10144020 f   Physics_Static.obj
 0001:00143040       ?ClipTranslation@idPhysics_StaticMulti@@UBEXAAUtrace_s@@ABVidVec3@@PBVidClipModel@@@Z 10144040 f   Physics_StaticMulti.obj
 0001:00143070       ?ClipRotation@idPhysics_StaticMulti@@UBEXAAUtrace_s@@ABVidRotation@@PBVidClipModel@@@Z 10144070 f   Physics_StaticMulti.obj
 0001:001430a0       ?IsGroundEntity@idPhysics_StaticMulti@@UBE_NH@Z 101440a0 f   Physics_StaticMulti.obj
 0001:001430a0       ?IsGroundEntity@idPhysics_Static@@UBE_NH@Z 101440a0 f   Physics_Static.obj
 0001:001430b0       ??4staticPState_s@@QAEAAU0@ABU0@@Z 101440b0 f i Physics_StaticMulti.obj
 0001:00143150       ?Save@idPhysics_StaticMulti@@QBEXPAVidSaveGame@@@Z 10144150 f   Physics_StaticMulti.obj
 0001:00143210       ?GetClipModel@idPhysics_StaticMulti@@UBEPAVidClipModel@@H@Z 10144210 f   Physics_StaticMulti.obj
 0001:00143240       ?SetContents@idPhysics_StaticMulti@@UAEXHH@Z 10144240 f   Physics_StaticMulti.obj
 0001:001432a0       ?GetContents@idPhysics_StaticMulti@@UBEHH@Z 101442a0 f   Physics_StaticMulti.obj
 0001:001432f0       ?GetBounds@idPhysics_StaticMulti@@UBEABVidBounds@@H@Z 101442f0 f   Physics_StaticMulti.obj
 0001:001434d0       ?GetAbsBounds@idPhysics_StaticMulti@@UBEABVidBounds@@H@Z 101444d0 f   Physics_StaticMulti.obj
 0001:00143620       ?Evaluate@idPhysics_StaticMulti@@UAE_NHH@Z 10144620 f   Physics_StaticMulti.obj
 0001:001438b0       ?SetOrigin@idPhysics_StaticMulti@@UAEXABVidVec3@@H@Z 101448b0 f   Physics_StaticMulti.obj
 0001:00143b00       ?Translate@idPhysics_StaticMulti@@UAEXABVidVec3@@H@Z 10144b00 f   Physics_StaticMulti.obj
 0001:00143c30       ?Rotate@idPhysics_StaticMulti@@UAEXABVidRotation@@H@Z 10144c30 f   Physics_StaticMulti.obj
 0001:001442a0       ?GetOrigin@idPhysics_StaticMulti@@UBEABVidVec3@@H@Z 101452a0 f   Physics_StaticMulti.obj
 0001:001442d0       ?GetAxis@idPhysics_StaticMulti@@UBEABVidMat3@@H@Z 101452d0 f   Physics_StaticMulti.obj
 0001:00144310       ?GetGravity@idPhysics_StaticMulti@@UBEABVidVec3@@XZ 10145310 f   Physics_StaticMulti.obj
 0001:00144350       ?GetGravityNormal@idPhysics_StaticMulti@@UBEABVidVec3@@XZ 10145350 f   Physics_StaticMulti.obj
 0001:00144390       ?ClipContents@idPhysics_StaticMulti@@UBEHPBVidClipModel@@@Z 10145390 f   Physics_StaticMulti.obj
 0001:00144440       ?DisableClip@idPhysics_StaticMulti@@UAEXXZ 10145440 f   Physics_StaticMulti.obj
 0001:00144470       ?EnableClip@idPhysics_StaticMulti@@UAEXXZ 10145470 f   Physics_StaticMulti.obj
 0001:001444a0       ?UnlinkClip@idPhysics_StaticMulti@@UAEXXZ 101454a0 f   Physics_StaticMulti.obj
 0001:001444d0       ?LinkClip@idPhysics_StaticMulti@@UAEXXZ 101454d0 f   Physics_StaticMulti.obj
 0001:00144520       ?SetMaster@idPhysics_StaticMulti@@UAEXPAVidEntity@@_N@Z 10145520 f   Physics_StaticMulti.obj
 0001:001447a0       ?WriteToSnapshot@idPhysics_StaticMulti@@UBEXAAVidBitMsgDelta@@@Z 101457a0 f   Physics_StaticMulti.obj
 0001:001449a0       ?ReadFromSnapshot@idPhysics_StaticMulti@@UAEXABVidBitMsgDelta@@@Z 101459a0 f   Physics_StaticMulti.obj
 0001:00144bb0       ??1idPhysics_StaticMulti@@UAE@XZ 10145bb0 f   Physics_StaticMulti.obj
 0001:00144c90       ?RemoveIndex@idPhysics_StaticMulti@@QAEXH_N@Z 10145c90 f   Physics_StaticMulti.obj
 0001:00144d40       ?SetAxis@idPhysics_StaticMulti@@UAEXABVidMat3@@H@Z 10145d40 f   Physics_StaticMulti.obj
 0001:00145350       ?GetContact@idPhysics_StaticMulti@@UBEABUcontactInfo_t@@H@Z 10146350 f   Physics_StaticMulti.obj
 0001:00145380       ??0idPhysics_StaticMulti@@QAE@XZ 10146380 f   Physics_StaticMulti.obj
 0001:00145560       ??_EidPhysics_StaticMulti@@UAEPAXI@Z 10146560 f i Physics_StaticMulti.obj
 0001:00145560       ??_GidPhysics_StaticMulti@@UAEPAXI@Z 10146560 f i Physics_StaticMulti.obj
 0001:00145580       ?Restore@idPhysics_StaticMulti@@QAEXPAVidRestoreGame@@@Z 10146580 f   Physics_StaticMulti.obj
 0001:00145790       ?SetClipModel@idPhysics_StaticMulti@@UAEXPAVidClipModel@@MH_N@Z 10146790 f   Physics_StaticMulti.obj
 0001:00145b00       ?CreateInstance@idPhysics_StaticMulti@@SAPAVidClass@@XZ 10146b00 f   Physics_StaticMulti.obj
 0001:00145ba0       ?InitSavingPushedEntityPositions@idPush@@QAEXXZ 10146ba0 f   Push.obj
 0001:00145bb0       ?RestorePushedEntityPositions@idPush@@QAEXXZ 10146bb0 f   Push.obj
 0001:00145c10       ?DiscardEntities@idPush@@AAEHQAPAVidEntity@@HHPAV2@@Z 10146c10 f   Push.obj
 0001:00145d20       ?SaveEntityPosition@idPush@@AAEXPAVidEntity@@@Z 10146d20 f   Push.obj
 0001:00145dd0       ?TryTranslatePushEntity@idPush@@AAEHAAUtrace_s@@PAVidEntity@@PAVidClipModel@@HABVidVec3@@3@Z 10146dd0 f   Push.obj
 0001:001460c0       ?RotateEntityToAxial@idPush@@AAE_NPAVidEntity@@VidVec3@@@Z 101470c0 f   Push.obj
 0001:001463e0       ?TryRotatePushEntity@idPush@@AAEHAAUtrace_s@@PAVidEntity@@PAVidClipModel@@HABVidMat3@@ABVidRotation@@@Z 101473e0 f   Push.obj
 0001:00146930       ?ClipTranslationalPush@idPush@@QAEMAAUtrace_s@@PAVidEntity@@HABVidVec3@@2@Z 10147930 f   Push.obj
 0001:00147050       ?ClipRotationalPush@idPush@@QAEMAAUtrace_s@@PAVidEntity@@HABVidMat3@@ABVidRotation@@@Z 10148050 f   Push.obj
 0001:00147600       ?ClipPush@idPush@@QAEMAAUtrace_s@@PAVidEntity@@HABVidVec3@@ABVidMat3@@AAV4@AAV5@@Z 10148600 f   Push.obj
 0001:001482e0       ?GetTypeForEventArg@idCompiler@@AAEPAVidTypeDef@@D@Z 101492e0 f   Script_Compiler.obj
 0001:001483c0       ??0idCompileError@@QAE@PBD@Z 101493c0 f i Script_Compiler.obj
 0001:001483f0       ??0idCompiler@@QAE@XZ      101493f0 f   Script_Compiler.obj
 0001:001484f0       ?Error@idCompiler@@ABAXPBDZZ 101494f0 f   Script_Compiler.obj
 0001:00148560       ?FindImmediate@idCompiler@@ABEPAVidVarDef@@PBVidTypeDef@@PBTeval_s@@PBD@Z 10149560 f   Script_Compiler.obj
 0001:00148680       ?GetImmediate@idCompiler@@AAEPAVidVarDef@@PAVidTypeDef@@PBTeval_s@@PBD@Z 10149680 f   Script_Compiler.obj
 0001:001486f0       ?OptimizeOpcode@idCompiler@@AAEPAVidVarDef@@PBUopcode_s@@PAV2@1@Z 101496f0 f   Script_Compiler.obj
 0001:00148eb0       ?EmitOpcode@idCompiler@@AAEPAVidVarDef@@PBUopcode_s@@PAV2@1@Z 10149eb0 f   Script_Compiler.obj
 0001:00148fc0       ?EmitPush@idCompiler@@AAE_NPAVidVarDef@@PBVidTypeDef@@@Z 10149fc0 f   Script_Compiler.obj
 0001:00149080       ?NextToken@idCompiler@@AAEXXZ 1014a080 f   Script_Compiler.obj
 0001:00149500       ?ExpectToken@idCompiler@@AAEXPBD@Z 1014a500 f   Script_Compiler.obj
 0001:00149540       ?CheckToken@idCompiler@@AAE_NPBD@Z 1014a540 f   Script_Compiler.obj
 0001:00149570       ?CheckType@idCompiler@@AAEPAVidTypeDef@@XZ 1014a570 f   Script_Compiler.obj
 0001:001496b0       ?ParseType@idCompiler@@AAEPAVidTypeDef@@XZ 1014a6b0 f   Script_Compiler.obj
 0001:00149730       ?ParseImmediate@idCompiler@@AAEPAVidVarDef@@XZ 1014a730 f   Script_Compiler.obj
 0001:00149760       ?ParseName@idCompiler@@AAEXAAVidStr@@@Z 1014a760 f   Script_Compiler.obj
 0001:001497c0       ?EmitFunctionParms@idCompiler@@AAEPAVidVarDef@@HPAV2@HH0@Z 1014a7c0 f   Script_Compiler.obj
 0001:00149b40       ?ParseObjectCall@idCompiler@@AAEPAVidVarDef@@PAV2@0@Z 1014ab40 f   Script_Compiler.obj
 0001:00149ba0       ?ParseEventCall@idCompiler@@AAEPAVidVarDef@@PAV2@0@Z 1014aba0 f   Script_Compiler.obj
 0001:00149c50       ?ParseSysObjectCall@idCompiler@@AAEPAVidVarDef@@PAV2@@Z 1014ac50 f   Script_Compiler.obj
 0001:00149cf0       ?LookupDef@idCompiler@@AAEPAVidVarDef@@PBDPBV2@@Z 1014acf0 f   Script_Compiler.obj
 0001:00149ff0       ?ParseValue@idCompiler@@AAEPAVidVarDef@@XZ 1014aff0 f   Script_Compiler.obj
 0001:0014a210       ?GetTerm@idCompiler@@AAEPAVidVarDef@@XZ 1014b210 f   Script_Compiler.obj
 0001:0014a550       ?PatchLoop@idCompiler@@AAEXHH@Z 1014b550 f   Script_Compiler.obj
 0001:0014a690       ?ParseFunctionCall@idCompiler@@AAEPAVidVarDef@@PAV2@@Z 1014b690 f   Script_Compiler.obj
 0001:0014a7b0       ?GetExpression@idCompiler@@AAEPAVidVarDef@@H@Z 1014b7b0 f   Script_Compiler.obj
 0001:0014acf0       ?ParseReturnStatement@idCompiler@@AAEXXZ 1014bcf0 f   Script_Compiler.obj
 0001:0014aec0       ?ParseWhileStatement@idCompiler@@AAEXXZ 1014bec0 f   Script_Compiler.obj
 0001:0014b050       ?ParseForStatement@idCompiler@@AAEXXZ 1014c050 f   Script_Compiler.obj
 0001:0014b320       ?ParseDoWhileStatement@idCompiler@@AAEXXZ 1014c320 f   Script_Compiler.obj
 0001:0014b460       ?ParseIfStatement@idCompiler@@AAEXXZ 1014c460 f   Script_Compiler.obj
 0001:0014b5f0       ?ParseStatement@idCompiler@@AAEXXZ 1014c5f0 f   Script_Compiler.obj
 0001:0014b790       ?ParseVariableDef@idCompiler@@AAEXPAVidTypeDef@@PBD@Z 1014c790 f   Script_Compiler.obj
 0001:0014bb20       ??1idTypeDef@@QAE@XZ       1014cb20 f i Script_Compiler.obj
 0001:0014bbe0       ?ParseFunction@idCompiler@@AAEPAVidTypeDef@@PAV2@PBD@Z 1014cbe0 f   Script_Compiler.obj
 0001:0014bdb0       ?ParseFunctionDef@idCompiler@@AAEXPAVidTypeDef@@PBD@Z 1014cdb0 f   Script_Compiler.obj
 0001:0014c3c0       ?ParseEventDef@idCompiler@@AAEXPAVidTypeDef@@PBD@Z 1014d3c0 f   Script_Compiler.obj
 0001:0014c770       ?ParseObjectDef@idCompiler@@AAEXPBD@Z 1014d770 f   Script_Compiler.obj
 0001:0014cae0       ?ParseDefs@idCompiler@@AAEXXZ 1014dae0 f   Script_Compiler.obj
 0001:0014cd20       ?ParseNamespace@idCompiler@@AAEXPAVidVarDef@@@Z 1014dd20 f   Script_Compiler.obj
 0001:0014cdd0       ?CompileFile@idCompiler@@QAEXPBD0_N@Z 1014ddd0 f   Script_Compiler.obj
 0001:0014d0b0       ?Reset@idInterpreter@@QAEXXZ 1014e0b0 f   Script_Interpreter.obj
 0001:0014d100       ?SetThread@idInterpreter@@QAEXPAVidThread@@@Z 1014e100 f   Script_Interpreter.obj
 0001:0014d110       ?MultiFrameEventInProgress@idInterpreter@@QBE_NXZ 1014e110 f   Script_Interpreter.obj
 0001:0014d120       ??0idInterpreter@@QAE@XZ   1014e120 f   Script_Interpreter.obj
 0001:0014d1b0       ?Save@idInterpreter@@QBEXPAVidSaveGame@@@Z 1014e1b0 f   Script_Interpreter.obj
 0001:0014d340       ?Restore@idInterpreter@@QAEXPAVidRestoreGame@@@Z 1014e340 f   Script_Interpreter.obj
 0001:0014d520       ?CurrentLine@idInterpreter@@QBEHXZ 1014e520 f   Script_Interpreter.obj
 0001:0014d540       ?CurrentFile@idInterpreter@@QBEPBDXZ 1014e540 f   Script_Interpreter.obj
 0001:0014d570       ?StackTrace@idInterpreter@@QBEXXZ 1014e570 f   Script_Interpreter.obj
 0001:0014d650       ?Error@idInterpreter@@QBAXPADZZ 1014e650 f   Script_Interpreter.obj
 0001:0014d720       ?Warning@idInterpreter@@QBAXPADZZ 1014e720 f   Script_Interpreter.obj
 0001:0014d7e0       ?BeginMultiFrameEvent@idInterpreter@@QAE_NPAVidEntity@@PBVidEventDef@@@Z 1014e7e0 f   Script_Interpreter.obj
 0001:0014d840       ?EndMultiFrameEvent@idInterpreter@@QAEXPAVidEntity@@PBVidEventDef@@@Z 1014e840 f   Script_Interpreter.obj
 0001:0014d870       ?EnterFunction@idInterpreter@@QAEXPBVfunction_t@@_N@Z 1014e870 f   Script_Interpreter.obj
 0001:0014da40       ?LeaveFunction@idInterpreter@@AAEXPAVidVarDef@@@Z 1014ea40 f   Script_Interpreter.obj
 0001:0014dc50       ?CallEvent@idInterpreter@@AAEXPBVfunction_t@@H@Z 1014ec50 f   Script_Interpreter.obj
 0001:0014e020       ?CallSysEvent@idInterpreter@@AAEXPBVfunction_t@@H@Z 1014f020 f   Script_Interpreter.obj
 0001:0014e240       ?Execute@idInterpreter@@QAE_NXZ 1014f240 f   Script_Interpreter.obj
 0001:00151490       ?ThreadCall@idInterpreter@@QAEXPAV1@PBVfunction_t@@H@Z 10152490 f   Script_Interpreter.obj
 0001:00151550       ?EnterObjectFunction@idInterpreter@@QAEXPAVidEntity@@PBVfunction_t@@_N@Z 10152550 f   Script_Interpreter.obj
 0001:001515e0       ?Inherits@idTypeDef@@QBE_NPBV1@@Z 101525e0 f   Script_Program.obj
 0001:00151610       ?SetName@idTypeDef@@QAEXPBD@Z 10152610 f   Script_Program.obj
 0001:00151620       ?SetObject@idVarDef@@QAEXPAVidScriptObject@@@Z 10152620 f   Script_Program.obj
 0001:00151630       ?SetString@idVarDef@@QAEXPBD_N@Z 10152630 f   Script_Program.obj
 0001:00151660       ?RemoveDef@idVarDefName@@QAEXPAVidVarDef@@@Z 10152660 f   Script_Program.obj
 0001:001516b0       ??0idScriptObject@@QAE@XZ  101526b0 f   Script_Program.obj
 0001:001516c0       ??1idScriptObject@@QAE@XZ  101526c0 f   Script_Program.obj
 0001:001516c0       ?Free@idScriptObject@@QAEXXZ 101526c0 f   Script_Program.obj
 0001:001516f0       ?ClearObject@idScriptObject@@QAEXXZ 101526f0 f   Script_Program.obj
 0001:00151710       ?HasObject@idScriptObject@@QBE_NXZ 10152710 f   Script_Program.obj
 0001:00151720       ?ReturnEntity@idProgram@@QAEXPAVidEntity@@@Z 10152720 f   Script_Program.obj
 0001:00151750       ??0idVarDefName@@QAE@PBD@Z 10152750 f i Script_Program.obj
 0001:001517b0       ?Clear@function_t@@QAEXXZ  101527b0 f   Script_Program.obj
 0001:00151800       ?MatchesType@idTypeDef@@QBE_NABV1@@Z 10152800 f   Script_Program.obj
 0001:00151860       ?MatchesVirtualFunction@idTypeDef@@QBE_NABV1@@Z 10152860 f   Script_Program.obj
 0001:001518e0       ?SuperClass@idTypeDef@@QBEPAV1@XZ 101528e0 f   Script_Program.obj
 0001:00151940       ?ReturnType@idTypeDef@@QBEPAV1@XZ 10152940 f   Script_Program.obj
 0001:001519a0       ?FieldType@idTypeDef@@QBEPAV1@XZ 101529a0 f   Script_Program.obj
 0001:00151a00       ?SetFieldType@idTypeDef@@QAEXPAV1@@Z 10152a00 f   Script_Program.obj
 0001:00151a70       ?PointerType@idTypeDef@@QBEPAV1@XZ 10152a70 f   Script_Program.obj
 0001:00151ad0       ?SetPointerType@idTypeDef@@QAEXPAV1@@Z 10152ad0 f   Script_Program.obj
 0001:00151b40       ?NumParameters@idTypeDef@@QBEHXZ 10152b40 f   Script_Program.obj
 0001:00151b40       ?GetBoundaryType@?$idCurve_Spline@VidVec3@@@@UBE?AW4boundary_t@1@XZ 10152b40 f   Entity.obj
 0001:00151b50       ?GetParmType@idTypeDef@@QBEPAV1@H@Z 10152b50 f   Script_Program.obj
 0001:00151b60       ?GetParmName@idTypeDef@@QBEPBDH@Z 10152b60 f   Script_Program.obj
 0001:00151b80       ?NumFunctions@idTypeDef@@QBEHXZ 10152b80 f   Script_Program.obj
 0001:00151b80       ?GetName@idEntity@@QBEPBDXZ 10152b80 f   Entity.obj
 0001:00151b90       ?GetFunctionNumber@idTypeDef@@QBEHPBVfunction_t@@@Z 10152b90 f   Script_Program.obj
 0001:00151bc0       ?GetFunction@idTypeDef@@QBEPBVfunction_t@@H@Z 10152bc0 f   Script_Program.obj
 0001:00151bd0       ?Name@idVarDef@@QBEPBDXZ   10152bd0 f   Script_Program.obj
 0001:00151be0       ?GlobalName@idVarDef@@QBEPBDXZ 10152be0 f   Script_Program.obj
 0001:00151c10       ?SetValue@idVarDef@@QAEXABTeval_s@@_N@Z 10152c10 f   Script_Program.obj
 0001:00151d60       ?PrintInfo@idVarDef@@QBEXPAVidFile@@H@Z 10152d60 f   Script_Program.obj
 0001:00152010       ?Save@idScriptObject@@QBEXPAVidSaveGame@@@Z 10153010 f   Script_Program.obj
 0001:00152070       ?GetTypeName@idScriptObject@@QBEPBDXZ 10153070 f   Script_Program.obj
 0001:00152080       ?GetVariable@idScriptObject@@QBEPAEPBDW4etype_t@@@Z 10153080 f   Script_Program.obj
 0001:00152190       ?FindType@idProgram@@QAEPAVidTypeDef@@PBD@Z 10153190 f   Script_Program.obj
 0001:001521f0       ?AllocStatement@idProgram@@QAEPAUstatement_s@@XZ 101531f0 f   Script_Program.obj
 0001:00152290       ?DisassembleStatement@idProgram@@QBEXPAVidFile@@H@Z 10153290 f   Script_Program.obj
 0001:00152360       ?Disassemble@idProgram@@QBEXXZ 10153360 f   Script_Program.obj
 0001:00152420       ?FinishCompilation@idProgram@@QAEXXZ 10153420 f   Script_Program.obj
 0001:00152490       ??1idCompiler@@QAE@XZ      10153490 f i Script_Program.obj
 0001:001524e0       ?CalculateChecksum@idProgram@@QBEHXZ 101534e0 f   Script_Program.obj
 0001:001525c0       ??1function_t@@QAE@XZ      101535c0 f i Script_Program.obj
 0001:00152620       ??0function_t@@QAE@XZ      10153620 f   Script_Program.obj
 0001:00152690       ?AddFunction@idTypeDef@@QAEXPBVfunction_t@@@Z 10153690 f   Script_Program.obj
 0001:00152830       ?SetType@idScriptObject@@QAE_NPBD@Z 10153830 f   Script_Program.obj
 0001:001528f0       ?GetDefList@idProgram@@QBEPAVidVarDef@@PBD@Z 101538f0 f   Script_Program.obj
 0001:001529a0       ?AddDefToNameList@idProgram@@QAEXPAVidVarDef@@PBD@Z 101539a0 f   Script_Program.obj
 0001:00152c80       ?GetDef@idProgram@@QBEPAVidVarDef@@PBVidTypeDef@@PBDPBV2@@Z 10153c80 f   Script_Program.obj
 0001:00152d70       ?FreeDef@idProgram@@QAEXPAVidVarDef@@PBV2@@Z 10153d70 f   Script_Program.obj
 0001:00152f10       ?FindFunction@idProgram@@QBEPAVfunction_t@@PBD@Z 10153f10 f   Script_Program.obj
 0001:001530d0       ?FindFunction@idProgram@@QBEPAVfunction_t@@PBDPBVidTypeDef@@@Z 101540d0 f   Script_Program.obj
 0001:00153120       ?AllocFunction@idProgram@@QAEAAVfunction_t@@PAVidVarDef@@@Z 10154120 f   Script_Program.obj
 0001:001532a0       ?SetEntity@idProgram@@QAEXPBDPAVidEntity@@@Z 101542a0 f   Script_Program.obj
 0001:001533c0       ?CompileStats@idProgram@@AAEXXZ 101543c0 f   Script_Program.obj
 0001:00153610       ?Save@idProgram@@QBEXPAVidSaveGame@@@Z 10154610 f   Script_Program.obj
 0001:001536e0       ??1?$idStaticList@Vfunction_t@@$0MAA@@@QAE@XZ 101546e0 f i Script_Program.obj
 0001:00153700       ??4idTypeDef@@QAEXABV0@@Z  10154700 f   Script_Program.obj
 0001:00153970       ?Restore@idScriptObject@@QAEXPAVidRestoreGame@@@Z 10154970 f   Script_Program.obj
 0001:00153a50       ?GetFunction@idScriptObject@@QBEPBVfunction_t@@PBD@Z 10154a50 f   Script_Program.obj
 0001:00153a80       ??0idTypeDef@@QAE@W4etype_t@@PAVidVarDef@@PBDHPAV0@@Z 10154a80 f   Script_Program.obj
 0001:00153d50       ??0idTypeDef@@QAE@ABV0@@Z  10154d50 f   Script_Program.obj
 0001:00153de0       ?AddFunctionParm@idTypeDef@@QAEXPAV1@PBD@Z 10154de0 f   Script_Program.obj
 0001:001541e0       ?AddField@idTypeDef@@QAEXPAV1@PBD@Z 101551e0 f   Script_Program.obj
 0001:00154640       ?GetConstructor@idScriptObject@@QBEPBVfunction_t@@XZ 10155640 f   Script_Program.obj
 0001:00154660       ?GetDestructor@idScriptObject@@QBEPBVfunction_t@@XZ 10155660 f   Script_Program.obj
 0001:00154680       ?AllocType@idProgram@@QAEPAVidTypeDef@@AAV2@@Z 10155680 f   Script_Program.obj
 0001:00154870       ?AllocType@idProgram@@QAEPAVidTypeDef@@W4etype_t@@PAVidVarDef@@PBDHPAV2@@Z 10155870 f   Script_Program.obj
 0001:00154a70       ?GetType@idProgram@@QAEPAVidTypeDef@@AAV2@_N@Z 10155a70 f   Script_Program.obj
 0001:00154af0       ?AllocDef@idProgram@@QAEPAVidVarDef@@PAVidTypeDef@@PBDPAV2@_N@Z 10155af0 f   Script_Program.obj
 0001:00155070       ?FindFreeResultDef@idProgram@@QAEPAVidVarDef@@PAVidTypeDef@@PBDPAV2@PBV2@3@Z 10156070 f   Script_Program.obj
 0001:001550d0       ?GetFilenum@idProgram@@QAEHPBD@Z 101560d0 f   Script_Program.obj
 0001:00155760       ?CompileText@idProgram@@QAE_NPBD0_N@Z 10156760 f   Script_Program.obj
 0001:001559a0       ?CompileFile@idProgram@@QAEXPBD@Z 101569a0 f   Script_Program.obj
 0001:00155a30       ?FreeData@idProgram@@QAEXXZ 10156a30 f   Script_Program.obj
 0001:00155ca0       ?Restore@idProgram@@QAE_NPAVidRestoreGame@@@Z 10156ca0 f   Script_Program.obj
 0001:00155dd0       ?Restart@idProgram@@QAEXXZ 10156dd0 f   Script_Program.obj
 0001:00156240       ??0idProgram@@QAE@XZ       10157240 f   Script_Program.obj
 0001:00156340       ??1idProgram@@QAE@XZ       10157340 f   Script_Program.obj
 0001:00156470       ?BeginCompilation@idProgram@@QAEXXZ 10157470 f   Script_Program.obj
 0001:00156540       ?Startup@idProgram@@QAEXPBD@Z 10157540 f   Script_Program.obj
 0001:00156590       ?GetType@idThread@@UBEPAVidTypeInfo@@XZ 10157590 f   Script_Thread.obj
 0001:001565a0       ?CurrentThread@idThread@@SAPAV1@XZ 101575a0 f   Script_Thread.obj
 0001:001565b0       ?CurrentThreadNum@idThread@@SAHXZ 101575b0 f   Script_Thread.obj
 0001:001565d0       ?BeginMultiFrameEvent@idThread@@SA_NPAVidEntity@@PBVidEventDef@@@Z 101575d0 f   Script_Thread.obj
 0001:00156610       ?EndMultiFrameEvent@idThread@@SAXPAVidEntity@@PBVidEventDef@@@Z 10157610 f   Script_Thread.obj
 0001:00156650       ?ManualDelete@idThread@@QAEXXZ 10157650 f   Script_Thread.obj
 0001:00156660       ?Restore@idThread@@QAEXPAVidRestoreGame@@@Z 10157660 f   Script_Thread.obj
 0001:001566f0       ?DelayedStart@idThread@@QAEXH@Z 101576f0 f   Script_Thread.obj
 0001:00156720       ?SetThreadName@idThread@@QAEXPBD@Z 10157720 f   Script_Thread.obj
 0001:00156720       ?Event_SetThreadName@idThread@@AAEXPBD@Z 10157720 f   Script_Thread.obj
 0001:00156730       ?IsWaiting@idThread@@QAE_NXZ 10157730 f   Script_Thread.obj
 0001:00156760       ?ObjectMoveDone@idThread@@QAEXPAVidEntity@@@Z 10157760 f   Script_Thread.obj
 0001:001567b0       ?Error@idThread@@QBAXPBDZZ 101577b0 f   Script_Thread.obj
 0001:001567f0       ?Warning@idThread@@QBAXPBDZZ 101577f0 f   Script_Thread.obj
 0001:00156830       ?ReturnString@idThread@@SAXPBD@Z 10157830 f   Script_Thread.obj
 0001:00156850       ?ReturnFloat@idThread@@SAXM@Z 10157850 f   Script_Thread.obj
 0001:00156860       ?ReturnInt@idThread@@SAXH@Z 10157860 f   Script_Thread.obj
 0001:00156870       ?ReturnEntity@idThread@@SAXPAVidEntity@@@Z 10157870 f   Script_Thread.obj
 0001:00156880       ?Event_Pause@idThread@@AAEXXZ 10157880 f   Script_Thread.obj
 0001:001568a0       ?Event_Wait@idThread@@AAEXM@Z 101578a0 f   Script_Thread.obj
 0001:001568a0       ?WaitSec@idThread@@QAEXM@Z 101578a0 f   Script_Thread.obj
 0001:001568e0       ?WaitFrame@idThread@@QAEXXZ 101578e0 f   Script_Thread.obj
 0001:001568e0       ?Event_WaitFrame@idThread@@AAEXXZ 101578e0 f   Script_Thread.obj
 0001:00156910       ?Event_WaitFor@idThread@@AAEXPAVidEntity@@@Z 10157910 f   Script_Thread.obj
 0001:00156980       ?Event_Print@idThread@@AAEXPBD@Z 10157980 f   Script_Thread.obj
 0001:001569a0       ?Event_PrintLn@idThread@@AAEXPBD@Z 101579a0 f   Script_Thread.obj
 0001:001569c0       ?Event_Say@idThread@@AAEXPBD@Z 101579c0 f   Script_Thread.obj
 0001:001569f0       ?Event_Trigger@idThread@@AAEXPAVidEntity@@@Z 101579f0 f   Script_Thread.obj
 0001:00156a40       ?Event_SetCvar@idThread@@ABEXPBD0@Z 10157a40 f   Script_Thread.obj
 0001:00156a60       ?Event_GetCvar@idThread@@ABEXPBD@Z 10157a60 f   Script_Thread.obj
 0001:00156a90       ?Event_Random@idThread@@ABEXM@Z 10157a90 f   Script_Thread.obj
 0001:00156ae0       ?Event_GetTime@idThread@@AAEXXZ 10157ae0 f   Script_Thread.obj
 0001:00156b00       ?Event_GetEntity@idThread@@AAEXPBD@Z 10157b00 f   Script_Thread.obj
 0001:00156b70       ?Event_Spawn@idThread@@AAEXPBD@Z 10157b70 f   Script_Thread.obj
 0001:00156bc0       ?Event_CopySpawnArgs@idThread@@AAEXPAVidEntity@@@Z 10157bc0 f   Script_Thread.obj
 0001:00156be0       ?Event_SetSpawnArg@idThread@@AAEXPBD0@Z 10157be0 f   Script_Thread.obj
 0001:00156bf0       ?Event_SpawnFloat@idThread@@AAEXPBDM@Z 10157bf0 f   Script_Thread.obj
 0001:00156c40       ?Event_ClearPersistantArgs@idThread@@AAEXXZ 10157c40 f   Script_Thread.obj
 0001:00156c50       ?Event_SetPersistantArg@idThread@@AAEXPBD0@Z 10157c50 f   Script_Thread.obj
 0001:00156c60       ?Event_GetPersistantFloat@idThread@@AAEXPBD@Z 10157c60 f   Script_Thread.obj
 0001:00156c90       ?Event_GetSine@idThread@@AAEXM@Z 10157c90 f   Script_Thread.obj
 0001:00156cc0       ?Event_GetCosine@idThread@@AAEXM@Z 10157cc0 f   Script_Thread.obj
 0001:00156cf0       ?Event_GetSquareRoot@idThread@@AAEXM@Z 10157cf0 f   Script_Thread.obj
 0001:00156d80       ?Event_VecLength@idThread@@AAEXAAVidVec3@@@Z 10157d80 f   Script_Thread.obj
 0001:00156e30       ?Event_VecDotProduct@idThread@@AAEXAAVidVec3@@0@Z 10157e30 f   Script_Thread.obj
 0001:00156e70       ?Event_OnSignal@idThread@@AAEXHPAVidEntity@@PBD@Z 10157e70 f   Script_Thread.obj
 0001:00156ee0       ?Event_ClearSignalThread@idThread@@AAEXHPAVidEntity@@@Z 10157ee0 f   Script_Thread.obj
 0001:00156f30       ?Event_SetCamera@idThread@@AAEXPAVidEntity@@@Z 10157f30 f   Script_Thread.obj
 0001:00156f90       ?Event_FirstPerson@idThread@@AAEXXZ 10157f90 f   Script_Thread.obj
 0001:00156fa0       ?Event_TracePoint@idThread@@AAEXABVidVec3@@0HPAVidEntity@@@Z 10157fa0 f   Script_Thread.obj
 0001:00156fe0       ?Event_GetTraceFraction@idThread@@AAEXXZ 10157fe0 f   Script_Thread.obj
 0001:00157000       ?Event_GetTraceEntity@idThread@@AAEXXZ 10158000 f   Script_Thread.obj
 0001:00157040       ?Event_GetTraceJoint@idThread@@AAEXXZ 10158040 f   Script_Thread.obj
 0001:001570e0       ?Event_SetShaderParm@idThread@@AAEXHM@Z 101580e0 f   Script_Thread.obj
 0001:00157110       ?Event_StartMusic@idThread@@AAEXPBD@Z 10158110 f   Script_Thread.obj
 0001:00157130       ?Event_Warning@idThread@@AAEXPBD@Z 10158130 f   Script_Thread.obj
 0001:00157150       ?Event_Error@idThread@@AAEXPBD@Z 10158150 f   Script_Thread.obj
 0001:00157170       ?Event_StrLen@idThread@@AAEXPBD@Z 10158170 f   Script_Thread.obj
 0001:001571a0       ?Event_StrRight@idThread@@AAEXPBDH@Z 101581a0 f   Script_Thread.obj
 0001:00157220       ?Event_StrSkip@idThread@@AAEXPBDH@Z 10158220 f   Script_Thread.obj
 0001:001572a0       ?Event_StrToFloat@idThread@@AAEXPBD@Z 101582a0 f   Script_Thread.obj
 0001:001572d0       ?Event_RadiusDamage@idThread@@AAEXABVidVec3@@PAVidEntity@@11PBDM@Z 101582d0 f   Script_Thread.obj
 0001:00157300       ?Event_IsClient@idThread@@AAEXXZ 10158300 f   Script_Thread.obj
 0001:00157320       ?Event_IsMultiplayer@idThread@@AAEXXZ 10158320 f   Script_Thread.obj
 0001:00157340       ?Event_GetFrameTime@idThread@@AAEXXZ 10158340 f   Script_Thread.obj
 0001:00157360       ?Event_GetTicsPerSecond@idThread@@AAEXXZ 10158360 f   Script_Thread.obj
 0001:00157380       ?Event_CacheSoundShader@idEntity@@AAEXPBD@Z 10158380 f   Entity.obj
 0001:00157380       ?Event_CacheSoundShader@idThread@@AAEXPBD@Z 10158380 f   Script_Thread.obj
 0001:001573a0       ?Event_DebugLine@idThread@@AAEXABVidVec3@@00M@Z 101583a0 f   Script_Thread.obj
 0001:00157410       ?Event_DebugArrow@idThread@@AAEXABVidVec3@@00HM@Z 10158410 f   Script_Thread.obj
 0001:00157480       ?Event_DebugCircle@idThread@@AAEXABVidVec3@@00MHM@Z 10158480 f   Script_Thread.obj
 0001:001574f0       ?Event_DrawText@idThread@@AAEXPBDABVidVec3@@M1HM@Z 101584f0 f   Script_Thread.obj
 0001:00157590       ?Event_InfluenceActive@idThread@@AAEXXZ 10158590 f   Script_Thread.obj
 0001:001575d0       ?Save@idThread@@QBEXPAVidSaveGame@@@Z 101585d0 f   Script_Thread.obj
 0001:00157660       ?GetThread@idThread@@SAPAV1@H@Z 10158660 f   Script_Thread.obj
 0001:001576a0       ?ListThreads_f@idThread@@SAXABVidCmdArgs@@@Z 101586a0 f   Script_Thread.obj
 0001:00157710       ?Restart@idThread@@SAXXZ   10158710 f   Script_Thread.obj
 0001:00157790       ?ObjectMoveDone@idThread@@SAXHPAVidEntity@@@Z 10158790 f   Script_Thread.obj
 0001:001577c0       ?KillThread@idThread@@SAXPBD@Z 101587c0 f   Script_Thread.obj
 0001:00157850       ?Execute@idThread@@QAE_NXZ 10158850 f   Script_Thread.obj
 0001:00157920       ?CallFunction@idThread@@QAEXPAVidEntity@@PBVfunction_t@@_N@Z 10158920 f   Script_Thread.obj
 0001:00157940       ?ReturnVector@idThread@@SAXABVidVec3@@@Z 10158940 f   Script_Thread.obj
 0001:00157960       ?Event_Execute@idThread@@AAEXXZ 10158960 f   Script_Thread.obj
 0001:00157970       ?Event_TerminateThread@idThread@@AAEXH@Z 10158970 f   Script_Thread.obj
 0001:001579b0       ?Event_WaitForThread@idThread@@AAEXH@Z 101589b0 f   Script_Thread.obj
 0001:00157a10       ?Event_KillThread@idThread@@AAEXPBD@Z 10158a10 f   Script_Thread.obj
 0001:00157a20       ?Event_SpawnString@idThread@@AAEXPBD0@Z 10158a20 f   Script_Thread.obj
 0001:00157a60       ?Event_SpawnVector@idThread@@AAEXPBDAAVidVec3@@@Z 10158a60 f   Script_Thread.obj
 0001:00157ad0       ?Event_GetPersistantString@idThread@@AAEXPBD@Z 10158ad0 f   Script_Thread.obj
 0001:00157b10       ?Event_GetPersistantVector@idThread@@AAEXPBD@Z 10158b10 f   Script_Thread.obj
 0001:00157b50       ?Event_AngToForward@idThread@@AAEXAAVidAngles@@@Z 10158b50 f   Script_Thread.obj
 0001:00157b80       ?Event_AngToRight@idThread@@AAEXAAVidAngles@@@Z 10158b80 f   Script_Thread.obj
 0001:00157bc0       ?Event_AngToUp@idThread@@AAEXAAVidAngles@@@Z 10158bc0 f   Script_Thread.obj
 0001:00157c00       ?Event_VecNormalize@idThread@@AAEXAAVidVec3@@@Z 10158c00 f   Script_Thread.obj
 0001:00157ce0       ?Event_VecCrossProduct@idThread@@AAEXAAVidVec3@@0@Z 10158ce0 f   Script_Thread.obj
 0001:00157d40       ?Event_VecToAngles@idThread@@AAEXAAVidVec3@@@Z 10158d40 f   Script_Thread.obj
 0001:00157d90       ?Event_Trace@idThread@@AAEXABVidVec3@@000HPAVidEntity@@@Z 10158d90 f   Script_Thread.obj
 0001:00157ec0       ?Event_GetTraceEndPos@idThread@@AAEXXZ 10158ec0 f   Script_Thread.obj
 0001:00157ef0       ?Event_GetTraceNormal@idThread@@AAEXXZ 10158ef0 f   Script_Thread.obj
 0001:00157f50       ?Event_GetTraceBody@idThread@@AAEXXZ 10158f50 f   Script_Thread.obj
 0001:00157ff0       ?Event_FadeIn@idThread@@AAEXAAVidVec3@@M@Z 10158ff0 f   Script_Thread.obj
 0001:00158070       ?Event_FadeOut@idThread@@AAEXAAVidVec3@@M@Z 10159070 f   Script_Thread.obj
 0001:001580f0       ?Event_FadeTo@idThread@@AAEXAAVidVec3@@MM@Z 101590f0 f   Script_Thread.obj
 0001:00158170       ?Event_StrLeft@idThread@@AAEXPBDH@Z 10159170 f   Script_Thread.obj
 0001:001582d0       ?Event_StrMid@idThread@@AAEXPBDHH@Z 101592d0 f   Script_Thread.obj
 0001:00158430       ?Event_DebugBounds@idThread@@AAEXABVidVec3@@00M@Z 10159430 f   Script_Thread.obj
 0001:001584c0       ??1idThread@@UAE@XZ        101594c0 f   Script_Thread.obj
 0001:00158670       ?Init@idThread@@AAEXXZ     10159670 f   Script_Thread.obj
 0001:00158870       ?Start@idThread@@QAE_NXZ   10159870 f   Script_Thread.obj
 0001:00158890       ??0idThread@@QAE@XZ        10159890 f   Script_Thread.obj
 0001:00158a40       ??_EidThread@@UAEPAXI@Z    10159a40 f i Script_Thread.obj
 0001:00158a40       ??_GidThread@@UAEPAXI@Z    10159a40 f i Script_Thread.obj
 0001:00158a60       ??0idThread@@QAE@PBVfunction_t@@@Z 10159a60 f   Script_Thread.obj
 0001:00158c10       ??0idThread@@QAE@PAVidInterpreter@@PBVfunction_t@@H@Z 10159c10 f   Script_Thread.obj
 0001:00158dc0       ??0idThread@@QAE@PAVidInterpreter@@PAVidEntity@@PBVfunction_t@@H@Z 10159dc0 f   Script_Thread.obj
 0001:00158f80       ?CreateInstance@idThread@@SAPAVidClass@@XZ 10159f80 f   Script_Thread.obj
 0001:00159020       ?InverseFastSelf@idMat2@@QAE_NXZ 1015a020 f   idLib:Matrix.obj
 0001:00159080       ?ToString@idMat2@@QBEPBDH@Z 1015a080 f   idLib:Matrix.obj
 0001:00159080       ?ToString@idVec4@@QBEPBDH@Z 1015a080 f   idLib:Vector.obj
 0001:00159080       ?ToString@idQuat@@QBEPBDH@Z 1015a080 f   idLib:Quat.obj
 0001:001590a0       ?ToAngles@idMat3@@QBE?AVidAngles@@XZ 1015a0a0 f   idLib:Matrix.obj
 0001:00159190       ?ToQuat@idMat3@@QBE?AVidQuat@@XZ 1015a190 f   idLib:Matrix.obj
 0001:001593a0       ?ToCQuat@idMat3@@QBE?AVidCQuat@@XZ 1015a3a0 f   idLib:Matrix.obj
 0001:00159400       ?ToRotation@idMat3@@QBE?AVidRotation@@XZ 1015a400 f   idLib:Matrix.obj
 0001:00159900       ?ToAngularVelocity@idMat3@@QBE?AVidVec3@@XZ 1015a900 f   idLib:Matrix.obj
 0001:00159950       ?InverseFastSelf@idMat3@@QAE_NXZ 1015a950 f   idLib:Matrix.obj
 0001:00159950       ?InverseSelf@idMat3@@QAE_NXZ 1015a950 f   idLib:Matrix.obj
 0001:00159ad0       ?ToString@idMat3@@QBEPBDH@Z 1015aad0 f   idLib:Matrix.obj
 0001:00159af0       ?ToString@idMat4@@QBEPBDH@Z 1015aaf0 f   idLib:Matrix.obj
 0001:00159b10       ?InverseFastSelf@idMat5@@QAE_NXZ 1015ab10 f   idLib:Matrix.obj
 0001:0015a2b0       ?ToString@idMat5@@QBEPBDH@Z 1015b2b0 f   idLib:Matrix.obj
 0001:0015a2d0       ?InverseFastSelf@idMat6@@QAE_NXZ 1015b2d0 f   idLib:Matrix.obj
 0001:0015b250       ?ToString@idMat6@@QBEPBDH@Z 1015c250 f   idLib:Matrix.obj
 0001:0015b270       ?ChangeSize@idMatX@@QAEXHH_N@Z 1015c270 f   idLib:Matrix.obj
 0001:0015b640       ?ToString@idMatX@@QBEPBDH@Z 1015c640 f   idLib:Matrix.obj
 0001:0015b660       ?LU_Factor@idMatX@@QAE_NPAHPAM@Z 1015c660 f   idLib:Matrix.obj
 0001:0015ba30       ?LU_Solve@idMatX@@QBEXAAVidVecX@@ABV2@PBH@Z 1015ca30 f   idLib:Matrix.obj
 0001:0015bc30       ?InverseSelfGeneric@idMatX@@AAE_NXZ 1015cc30 f   idLib:Matrix.obj
 0001:0015be60       ?InverseFastSelf@idMat4@@QAE_NXZ 1015ce60 f   idLib:Matrix.obj
 0001:0015c230       ?BitsToFloat@idMath@@SAMHHH@Z 1015d230 f   idLib:Math.obj
 0001:0015c2a0       ?Init@idMath@@SAXXZ        1015d2a0 f   idLib:Math.obj
 0001:0015c310       ?FloatToBits@idMath@@SAHMHH@Z 1015d310 f   idLib:Math.obj
 0001:0015c450       ?ColorForIndex@idStr@@SAAAVidVec4@@H@Z 1015d450 f   idLib:Str.obj
 0001:0015c460       ?FindChar@idStr@@SAHPBDDHH@Z 1015d460 f   idLib:Str.obj
 0001:0015c4b0       ?FindText@idStr@@SAHPBD0_NHH@Z 1015d4b0 f   idLib:Str.obj
 0001:0015c580       ?BackSlashesToSlashes@idStr@@QAEAAV1@XZ 1015d580 f   idLib:Str.obj
 0001:0015c5b0       ?StripFileExtension@idStr@@QAEAAV1@XZ 1015d5b0 f   idLib:Str.obj
 0001:0015c5e0       ?IsNumeric@idStr@@SA_NPBD@Z 1015d5e0 f   idLib:Str.obj
 0001:0015c630       ?Cmp@idStr@@SAHPBD0@Z      1015d630 f   idLib:Str.obj
 0001:0015c670       ?Cmpn@idStr@@SAHPBD0H@Z    1015d670 f   idLib:Str.obj
 0001:0015c6c0       ?Icmp@idStr@@SAHPBD0@Z     1015d6c0 f   idLib:Str.obj
 0001:0015c720       ?Icmpn@idStr@@SAHPBD0H@Z   1015d720 f   idLib:Str.obj
 0001:0015c780       ?IcmpPath@idStr@@SAHPBD0@Z 1015d780 f   idLib:Str.obj
 0001:0015c840       ?Copynz@idStr@@SAXPADPBDH@Z 1015d840 f   idLib:Str.obj
 0001:0015c8a0       ?Append@idStr@@SAXPADHPBD@Z 1015d8a0 f   idLib:Str.obj
 0001:0015c900       ?snPrintf@idStr@@SAHPADHPBDZZ 1015d900 f   idLib:Str.obj
 0001:0015c990       ?vsnPrintf@idStr@@SAHPADHPBD0@Z 1015d990 f   idLib:Str.obj
 0001:0015c9d0       ?va@@YAPADPBDZZ            1015d9d0 f   idLib:Str.obj
 0001:0015ca10       ?Alloc@?$idBlockAlloc@V?$idBTreeNode@V?$idDynamicBlock@D@@H@@$0IA@@@QAEPAV?$idBTreeNode@V?$idDynamicBlock@D@@H@@XZ 1015da10 f i idLib:Str.obj
 0001:0015ca10       ?Alloc@?$idBlockAlloc@V?$idBTreeNode@V?$idDynamicBlock@E@@H@@$0IA@@@QAEPAV?$idBTreeNode@V?$idDynamicBlock@E@@H@@XZ 1015da10 f i Event.obj
 0001:0015ca80       ?FloatArrayToString@idStr@@SAPBDPBMHH@Z 1015da80 f   idLib:Str.obj
 0001:0015cbb0       ?StripLeading@idStr@@QAEXPBD@Z 1015dbb0 f   idLib:Str.obj
 0001:0015cc10       ?StripLeadingOnce@idStr@@QAE_NPBD@Z 1015dc10 f   idLib:Str.obj
 0001:0015cc70       ?StripTrailing@idStr@@QAEXD@Z 1015dc70 f   idLib:Str.obj
 0001:0015cca0       ?StripTrailing@idStr@@QAEXPBD@Z 1015dca0 f   idLib:Str.obj
 0001:0015cd00       ?StripTrailingWhitespace@idStr@@QAEXXZ 1015dd00 f   idLib:Str.obj
 0001:0015cd30       ?StripFilename@idStr@@QAEAAV1@XZ 1015dd30 f   idLib:Str.obj
 0001:0015cd70       ?IcmpNoColor@idStr@@SAHPBD0@Z 1015dd70 f   idLib:Str.obj
 0001:0015cdf0       ?RemoveColors@idStr@@SAPADPAD@Z 1015ddf0 f   idLib:Str.obj
 0001:0015ce30       ??1?$idBTree@V?$idDynamicBlock@D@@H$03@@QAE@XZ 1015de30 f i idLib:Str.obj
 0001:0015ce30       ??1?$idBTree@V?$idDynamicBlock@E@@H$03@@QAE@XZ 1015de30 f i Event.obj
 0001:0015ce90       ?InitMemory@idStr@@SAXXZ   1015de90 f   idLib:Str.obj
 0001:0015cec0       ?AllocInternal@?$idDynamicBlockAlloc@D$0EAAAA@$0IA@@@AAEPAV?$idDynamicBlock@D@@H@Z 1015dec0 f i idLib:Str.obj
 0001:0015d1f0       ?FreeInternal@?$idDynamicBlockAlloc@E$0EAAA@$0BAA@@@AAEXPAV?$idDynamicBlock@E@@@Z 1015e1f0 f i Event.obj
 0001:0015d1f0       ?FreeInternal@?$idDynamicBlockAlloc@D$0EAAAA@$0IA@@@AAEXPAV?$idDynamicBlock@D@@@Z 1015e1f0 f i idLib:Str.obj
 0001:0015dd10       ?Shutdown@?$idDynamicBlockAlloc@E$0EAAA@$0BAA@@@QAEXXZ 1015ed10 f i Event.obj
 0001:0015dd10       ?Shutdown@?$idDynamicBlockAlloc@D$0EAAAA@$0IA@@@QAEXXZ 1015ed10 f i idLib:Str.obj
 0001:0015dde0       ?ResizeInternal@?$idDynamicBlockAlloc@D$0EAAAA@$0IA@@@AAEPAV?$idDynamicBlock@D@@PAV2@H@Z 1015ede0 f i idLib:Str.obj
 0001:0015e170       ?FreeData@idStr@@QAEXXZ    1015f170 f   idLib:Str.obj
 0001:0015e1c0       ?ShutdownMemory@idStr@@SAXXZ 1015f1c0 f   idLib:Str.obj
 0001:0015e1d0       ??1?$idDynamicBlockAlloc@D$0EAAAA@$0IA@@@QAE@XZ 1015f1d0 f i idLib:Str.obj
 0001:0015e1d0       ??1?$idDynamicBlockAlloc@E$0EAAA@$0BAA@@@QAE@XZ 1015f1d0 f i Event.obj
 0001:0015e240       ?ReAllocate@idStr@@QAEXH_N@Z 1015f240 f   idLib:Str.obj
 0001:0015e320       ??4idStr@@QAEXPBD@Z        1015f320 f   idLib:Str.obj
 0001:0015e3d0       ?Replace@idStr@@QAEXPBD0@Z 1015f3d0 f   idLib:Str.obj
 0001:0015e5c0       ?Mid@idStr@@QBEPBDHHAAV1@@Z 1015f5c0 f   idLib:Str.obj
 0001:0015e670       ?Mid@idStr@@QBE?AV1@HH@Z   1015f670 f   idLib:Str.obj
 0001:0015e830       ?SetFileExtension@idStr@@QAEAAV1@PBD@Z 1015f830 f   idLib:Str.obj
 0001:0015e8f0       ?DefaultFileExtension@idStr@@QAEAAV1@PBD@Z 1015f8f0 f   idLib:Str.obj
 0001:0015e9a0       ?AppendPath@idStr@@QAEXPBD@Z 1015f9a0 f   idLib:Str.obj
 0001:0015ea40       ?sprintf@@YAHAAVidStr@@PBDZZ 1015fa40 f   idLib:Str.obj
 0001:0015eab0       ?vsprintf@@YAHAAVidStr@@PBDPAD@Z 1015fab0 f   idLib:Str.obj
 0001:0015eb20       ?Filter@idStr@@SA_NPBD0_N@Z 1015fb20 f   idLib:Str.obj
 0001:0015efc0       ?StripPath@idStr@@QAEAAV1@XZ 1015ffc0 f   idLib:Str.obj
 0001:0015f0b0       ?ExtractFilePath@idStr@@QBEXAAV1@@Z 101600b0 f   idLib:Str.obj
 0001:0015f0f0       ?ExtractFileExtension@idStr@@QBEXAAV1@@Z 101600f0 f   idLib:Str.obj
 0001:0015f1a0       ?Init@idHashIndex@@AAEXHH@Z 101601a0 f   idLib:HashIndex.obj
 0001:0015f1e0       ?Free@idHashIndex@@QAEXXZ  101601e0 f   idLib:HashIndex.obj
 0001:0015f220       ?ResizeIndex@idHashIndex@@QAEXH@Z 10160220 f   idLib:HashIndex.obj
 0001:0015f2b0       ?Allocate@idHashIndex@@AAEXHH@Z 101602b0 f   idLib:HashIndex.obj
 0001:0015f370       ?Print@idDict@@QBEXXZ      10160370 f   idLib:Dict.obj
 0001:0015f3c0       ?Allocated@idDict@@QBEIXZ  101603c0 f   idLib:Dict.obj
 0001:0015f420       ?Init@idDict@@SAXXZ        10160420 f   idLib:Dict.obj
 0001:0015f430       ??0idStrPool@@QAE@XZ       10160430 f i idLib:Dict.obj
 0001:0015f490       ??1idStrPool@@QAE@XZ       10160490 f i idLib:Dict.obj
 0001:0015f4f0       ?Clear@idDict@@QAEXXZ      101604f0 f   idLib:Dict.obj
 0001:0015fa70       ?FindKey@idDict@@QBEPBVidKeyValue@@PBD@Z 10160a70 f   idLib:Dict.obj
 0001:0015fb30       ?FindKeyIndex@idDict@@QBEHPBD@Z 10160b30 f   idLib:Dict.obj
 0001:0015fbf0       ?Delete@idDict@@QAEXPBD@Z  10160bf0 f   idLib:Dict.obj
 0001:001602d0       ?MatchPrefix@idDict@@QBEPBVidKeyValue@@PBDPBV2@@Z 101612d0 f   idLib:Dict.obj
 0001:00160370       ?RandomPrefix@idDict@@QBEPBDPBDAAVidRandom@@@Z 10161370 f   idLib:Dict.obj
 0001:00160410       ?Shutdown@idDict@@SAXXZ    10161410 f   idLib:Dict.obj
 0001:00160540       ??4idDict@@QAEAAV0@ABV0@@Z 10161540 f   idLib:Dict.obj
 0001:00160e30       ?Copy@idDict@@QAEXABV1@@Z  10161e30 f   idLib:Dict.obj
 0001:00161e70       ?TransferKeyValues@idDict@@QAEXAAV1@@Z 10162e70 f   idLib:Dict.obj
 0001:00162080       ?SetDefaults@idDict@@QAEXPBV1@@Z 10163080 f   idLib:Dict.obj
 0001:001629d0       ?Set@idDict@@QAEXPBD0@Z    101639d0 f   idLib:Dict.obj
 0001:001638b0       ?GetFloat@idDict@@QBE_NPBD0AAM@Z 101648b0 f   idLib:Dict.obj
 0001:00163900       ?GetInt@idDict@@QBE_NPBD0AAH@Z 10164900 f   idLib:Dict.obj
 0001:00163950       ?GetBool@idDict@@QBE_NPBD0AA_N@Z 10164950 f   idLib:Dict.obj
 0001:00163990       ?GetVector@idDict@@QBE_NPBD0AAVidVec3@@@Z 10164990 f   idLib:Dict.obj
 0001:00163990       ?GetAngles@idDict@@QBE_NPBD0AAVidAngles@@@Z 10164990 f   idLib:Dict.obj
 0001:001639f0       ?GetVec4@idDict@@QBE_NPBD0AAVidVec4@@@Z 101649f0 f   idLib:Dict.obj
 0001:00163a50       ?GetMatrix@idDict@@QBE_NPBD0AAVidMat3@@@Z 10164a50 f   idLib:Dict.obj
 0001:00163b10       ??0idBitMsg@@QAE@XZ        10164b10 f   idLib:BitMsg.obj
 0001:00163b30       ?CheckOverflow@idBitMsg@@AAE_NH@Z 10164b30 f   idLib:BitMsg.obj
 0001:00163bd0       ?GetByteSpace@idBitMsg@@AAEPAEH@Z 10164bd0 f   idLib:BitMsg.obj
 0001:00163c20       ?WriteBits@idBitMsg@@QAEXHH@Z 10164c20 f   idLib:BitMsg.obj
 0001:00163d40       ?WriteData@idBitMsg@@QAEXPBXH@Z 10164d40 f   idLib:BitMsg.obj
 0001:00163da0       ?WriteDelta@idBitMsg@@AAEXHHH@Z 10164da0 f   idLib:BitMsg.obj
 0001:00163ef0       ?ReadBits@idBitMsg@@QBEHH@Z 10164ef0 f   idLib:BitMsg.obj
 0001:00164020       ?ReadData@idBitMsg@@QBEHPAXH@Z 10165020 f   idLib:BitMsg.obj
 0001:00164090       ?ReadDelta@idBitMsg@@ABEHHH@Z 10165090 f   idLib:BitMsg.obj
 0001:001640c0       ?DirToBits@idBitMsg@@SAHABVidVec3@@H@Z 101650c0 f   idLib:BitMsg.obj
 0001:001641b0       ?BitsToDir@idBitMsg@@SA?AVidVec3@@HH@Z 101651b0 f   idLib:BitMsg.obj
 0001:001642f0       ?WriteBits@idBitMsgDelta@@QAEXHH@Z 101652f0 f   idLib:BitMsg.obj
 0001:00164490       ?WriteDelta@idBitMsgDelta@@AAEXHHH@Z 10165490 f   idLib:BitMsg.obj
 0001:00164890       ?ReadBits@idBitMsgDelta@@QBEHH@Z 10165890 f   idLib:BitMsg.obj
 0001:001648e0       ?ReadDelta@idBitMsgDelta@@ABEHHH@Z 101658e0 f   idLib:BitMsg.obj
 0001:00164960       ?WriteString@idBitMsg@@QAEXPBDH_N@Z 10165960 f   idLib:BitMsg.obj
 0001:00164a00       ?WriteDeltaDict@idBitMsg@@QAE_NABVidDict@@PBV2@@Z 10165a00 f   idLib:BitMsg.obj
 0001:00164f80       ?ReadString@idBitMsg@@QBEHPADH@Z 10165f80 f   idLib:BitMsg.obj
 0001:00164ff0       ?ReadDeltaDict@idBitMsg@@QBE_NAAVidDict@@PBV2@@Z 10165ff0 f   idLib:BitMsg.obj
 0001:001650c0       ?CreatePunctuationTable@idLexer@@AAEXPBUpunctuation_s@@@Z 101660c0 f   idLib:Lexer.obj
 0001:00165280       ?GetPunctuationFromId@idLexer@@QAEPBDH@Z 10166280 f   idLib:Lexer.obj
 0001:001652c0       ?GetPunctuationId@idLexer@@QAEHPBD@Z 101662c0 f   idLib:Lexer.obj
 0001:00165310       ?SetPunctuations@idLexer@@QAEXPBUpunctuation_s@@@Z 10166310 f   idLib:Lexer.obj
 0001:00165340       ?EndOfFile@idLexer@@QAEHXZ 10166340 f   idLib:Lexer.obj
 0001:00165350       ?LoadMemory@idLexer@@QAEHPBDH0H@Z 10166350 f   idLib:Lexer.obj
 0001:001653d0       ?Error@idLexer@@QAAXPBDZZ  101663d0 f   idLib:Lexer.obj
 0001:00165450       ?Warning@idLexer@@QAAXPBDZZ 10166450 f   idLib:Lexer.obj
 0001:001654b0       ?ReadWhiteSpace@idLexer@@AAEHXZ 101664b0 f   idLib:Lexer.obj
 0001:00165580       ?ReadEscapeCharacter@idLexer@@AAEHPAD@Z 10166580 f   idLib:Lexer.obj
 0001:00165820       ?ReadString@idLexer@@AAEHPAVidToken@@H@Z 10166820 f   idLib:Lexer.obj
 0001:001659f0       ?ReadName@idLexer@@AAEHPAVidToken@@@Z 101669f0 f   idLib:Lexer.obj
 0001:00165a90       ?ReadNumber@idLexer@@AAEHPAVidToken@@@Z 10166a90 f   idLib:Lexer.obj
 0001:001660a0       ?ReadPunctuation@idLexer@@AAEHPAVidToken@@@Z 101670a0 f   idLib:Lexer.obj
 0001:00166160       ?LoadFile@idLexer@@QAEHPBD_N@Z 10167160 f   idLib:Lexer.obj
 0001:00166330       ?FreeSource@idLexer@@QAEXXZ 10167330 f   idLib:Lexer.obj
 0001:001663a0       ??0idLexer@@QAE@XZ         101673a0 f   idLib:Lexer.obj
 0001:00166450       ??0idLexer@@QAE@H@Z        10167450 f   idLib:Lexer.obj
 0001:00166510       ??0idLexer@@QAE@PBDH_N@Z   10167510 f   idLib:Lexer.obj
 0001:001665c0       ??0idLexer@@QAE@PBDH0H@Z   101675c0 f   idLib:Lexer.obj
 0001:00166680       ??1idLexer@@QAE@XZ         10167680 f   idLib:Lexer.obj
 0001:001666e0       ??4idToken@@QAEAAV0@ABV0@@Z 101676e0 f i idLib:Lexer.obj
 0001:00166760       ?ReadToken@idLexer@@QAEHPAVidToken@@@Z 10167760 f   idLib:Lexer.obj
 0001:00166900       ?ExpectTokenString@idLexer@@QAEHPBD@Z 10167900 f   idLib:Lexer.obj
 0001:00166a00       ?ExpectTokenType@idLexer@@QAEHHHPAVidToken@@@Z 10167a00 f   idLib:Lexer.obj
 0001:00166d60       ?CheckTokenString@idLexer@@QAEHPBD@Z 10167d60 f   idLib:Lexer.obj
 0001:00166e20       ?CheckTokenType@idLexer@@QAEHHHPAVidToken@@@Z 10167e20 f   idLib:Lexer.obj
 0001:00166ef0       ?SkipUntilString@idLexer@@QAEHPBD@Z 10167ef0 f   idLib:Lexer.obj
 0001:00166fb0       ?UnreadToken@idLexer@@QAEXPBVidToken@@@Z 10167fb0 f   idLib:Lexer.obj
 0001:00166ff0       ?ReadTokenOnLine@idLexer@@QAEHPAVidToken@@@Z 10167ff0 f   idLib:Lexer.obj
 0001:001670e0       ?ParseInt@idLexer@@QAEHXZ  101680e0 f   idLib:Lexer.obj
 0001:00167230       ?ParseFloat@idLexer@@QAEMPA_N@Z 10168230 f   idLib:Lexer.obj
 0001:001673c0       ?Parse1DMatrix@idLexer@@QAEHHPAM@Z 101683c0 f   idLib:Lexer.obj
 0001:00167420       ?Parse2DMatrix@idLexer@@QAEHHHPAM@Z 10168420 f   idLib:Lexer.obj
 0001:001674a0       ?Normalize360@idAngles@@QAEAAV1@XZ 101684a0 f   idLib:Angles.obj
 0001:00167570       ?Normalize180@idAngles@@QAEAAV1@XZ 10168570 f   idLib:Angles.obj
 0001:001675c0       ?ToVectors@idAngles@@QBEXPAVidVec3@@00@Z 101685c0 f   idLib:Angles.obj
 0001:00167700       ?ToForward@idAngles@@QBE?AVidVec3@@XZ 10168700 f   idLib:Angles.obj
 0001:00167790       ?ToRotation@idAngles@@QBE?AVidRotation@@XZ 10168790 f   idLib:Angles.obj
 0001:00167d10       ?ToMat3@idAngles@@QBE?AVidMat3@@XZ 10168d10 f   idLib:Angles.obj
 0001:00167e30       ?ToAngularVelocity@idAngles@@QBE?AVidVec3@@XZ 10168e30 f   idLib:Angles.obj
 0001:00167e80       ?ToString@idAngles@@QBEPBDH@Z 10168e80 f   idLib:Angles.obj
 0001:00167e80       ?ToString@idVec3@@QBEPBDH@Z 10168e80 f   idLib:Vector.obj
 0001:00167ea0       ?ToString@idVec2@@QBEPBDH@Z 10168ea0 f   idLib:Vector.obj
 0001:00167ec0       ?ToYaw@idVec3@@QBEMXZ      10168ec0 f   idLib:Vector.obj
 0001:00167f10       ?ToPitch@idVec3@@QBEMXZ    10168f10 f   idLib:Vector.obj
 0001:00168020       ?ToAngles@idVec3@@QBE?AVidAngles@@XZ 10169020 f   idLib:Vector.obj
 0001:00168190       ?ToMat3@idVec3@@QBE?AVidMat3@@XZ 10169190 f   idLib:Vector.obj
 0001:001682b0       ?Lerp@idVec3@@QAEXABV1@0M@Z 101692b0 f   idLib:Vector.obj
 0001:00168380       ?Lerp@idVec4@@QAEXABV1@0M@Z 10169380 f   idLib:Vector.obj
 0001:00168470       ?ToString@idVec5@@QBEPBDH@Z 10169470 f   idLib:Vector.obj
 0001:00168490       ?ToString@idVec6@@QBEPBDH@Z 10169490 f   idLib:Vector.obj
 0001:001684b0       ?ToString@idVecX@@QBEPBDH@Z 101694b0 f   idLib:Vector.obj
 0001:001684d0       ?ToMat3@idRotation@@QBEABVidMat3@@XZ 101694d0 f   idLib:Rotation.obj
 0001:00168650       ?ToAngularVelocity@idRotation@@QBE?AVidVec3@@XZ 10169650 f   idLib:Rotation.obj
 0001:00168690       ?Normalize180@idRotation@@QAEXXZ 10169690 f   idLib:Rotation.obj
 0001:00168720       ?ToAngles@idRotation@@QBE?AVidAngles@@XZ 10169720 f   idLib:Rotation.obj
 0001:00168740       ?InitOctahedron@idTraceModel@@AAEXXZ 10169740 f   idLib:TraceModel.obj
 0001:00168930       ?InitDodecahedron@idTraceModel@@AAEXXZ 10169930 f   idLib:TraceModel.obj
 0001:00168dd0       ?InitBone@idTraceModel@@AAEXXZ 10169dd0 f   idLib:TraceModel.obj
 0001:00168f50       ?SetupPolygon@idTraceModel@@QAEXPBVidVec3@@H@Z 10169f50 f   idLib:TraceModel.obj
 0001:00169520       ?SetupPolygon@idTraceModel@@QAEXABVidWinding@@@Z 1016a520 f   idLib:TraceModel.obj
 0001:00169590       ?GenerateEdgeNormals@idTraceModel@@QAEHXZ 1016a590 f   idLib:TraceModel.obj
 0001:00169910       ?Translate@idTraceModel@@QAEXABVidVec3@@@Z 1016a910 f   idLib:TraceModel.obj
 0001:00169a50       ?Shrink@idTraceModel@@QAEXM@Z 1016aa50 f   idLib:TraceModel.obj
 0001:00169cf0       ?Compare@idTraceModel@@QBE_NABV1@@Z 1016acf0 f   idLib:TraceModel.obj
 0001:00169e80       ?ProjectionIntegrals@idTraceModel@@ABEXHHHAAUprojectionIntegrals_s@@@Z 1016ae80 f   idLib:TraceModel.obj
 0001:0016a270       ?PolygonIntegrals@idTraceModel@@ABEXHHHHAAUpolygonIntegrals_s@@@Z 1016b270 f   idLib:TraceModel.obj
 0001:0016a5a0       ?VolumeIntegrals@idTraceModel@@ABEXAAUvolumeIntegrals_s@@@Z 1016b5a0 f   idLib:TraceModel.obj
 0001:0016a7d0       ?InitBox@idTraceModel@@AAEXXZ 1016b7d0 f   idLib:TraceModel.obj
 0001:0016aa40       ?SetupOctahedron@idTraceModel@@QAEXABVidBounds@@@Z 1016ba40 f   idLib:TraceModel.obj
 0001:0016af20       ?SetupDodecahedron@idTraceModel@@QAEXABVidBounds@@@Z 1016bf20 f   idLib:TraceModel.obj
 0001:0016b8d0       ?SetupCylinder@idTraceModel@@QAEXABVidBounds@@H@Z 1016c8d0 f   idLib:TraceModel.obj
 0001:0016bff0       ?SetupCone@idTraceModel@@QAEXABVidBounds@@H@Z 1016cff0 f   idLib:TraceModel.obj
 0001:0016c6c0       ?SetupBone@idTraceModel@@QAEXMM@Z 1016d6c0 f   idLib:TraceModel.obj
 0001:0016cd80       ?SetupBox@idTraceModel@@QAEXABVidBounds@@@Z 1016dd80 f   idLib:TraceModel.obj
 0001:0016cf70       ?VolumeFromPolygon@idTraceModel@@ABEXAAV1@M@Z 1016df70 f   idLib:TraceModel.obj
 0001:0016d2d0       ?GetMassProperties@idTraceModel@@QBEXMAAMAAVidVec3@@AAVidMat3@@@Z 1016e2d0 f   idLib:TraceModel.obj
 0001:0016d560       ?GetRadius@idBounds@@QBEMXZ 1016e560 f   idLib:Bounds.obj
 0001:0016d6c0       ?PlaneSide@idBounds@@QBEHABVidPlane@@M@Z 1016e6c0 f   idLib:Bounds.obj
 0001:0016d7c0       ?LineIntersection@idBounds@@QBE_NABVidVec3@@0@Z 1016e7c0 f   idLib:Bounds.obj
 0001:0016da80       ?RayIntersection@idBounds@@QBE_NABVidVec3@@0AAM@Z 1016ea80 f   idLib:Bounds.obj
 0001:0016dcb0       ?FromTransformedBounds@idBounds@@QAEXABV1@ABVidVec3@@ABVidMat3@@@Z 1016ecb0 f   idLib:Bounds.obj
 0001:0016deb0       ?FromPointTranslation@idBounds@@QAEXABVidVec3@@0@Z 1016eeb0 f   idLib:Bounds.obj
 0001:0016df30       ?FromBoundsTranslation@idBounds@@QAEXABV1@ABVidVec3@@ABVidMat3@@1@Z 1016ef30 f   idLib:Bounds.obj
 0001:0016e0c0       ?BoundsForPointRotation@@YA?AVidBounds@@ABVidVec3@@ABVidRotation@@@Z 1016f0c0 f   idLib:Bounds.obj
 0001:0016e5e0       ?FromPointRotation@idBounds@@QAEXABVidVec3@@ABVidRotation@@@Z 1016f5e0 f   idLib:Bounds.obj
 0001:0016e720       ?FromBoundsRotation@idBounds@@QAEXABV1@ABVidVec3@@ABVidMat3@@ABVidRotation@@@Z 1016f720 f   idLib:Bounds.obj
 0001:0016eb60       ?ReAllocate@idFixedWinding@@MAE_NH_N@Z 1016fb60 f   idLib:Winding.obj
 0001:0016eb90       ?ReAllocate@idWinding@@MAE_NH_N@Z 1016fb90 f   idLib:Winding.obj
 0001:0016ec00       ?ClipInPlace@idWinding@@QAE_NABVidPlane@@M_N@Z 1016fc00 f   idLib:Winding.obj
 0001:0016ef90       ?GetArea@idWinding@@QBEMXZ 1016ff90 f   idLib:Winding.obj
 0001:0016f100       ?GetCenter@idWinding@@QBE?AVidVec3@@XZ 10170100 f   idLib:Winding.obj
 0001:0016f230       ?GetBounds@idWinding@@QBEXAAVidBounds@@@Z 10170230 f   idLib:Winding.obj
 0001:0016f360       ?RemoveEqualPoints@idWinding@@QAEXM@Z 10170360 f   idLib:Winding.obj
 0001:0016f440       ?AddToConvexHull@idWinding@@QAEXABVidVec3@@0M@Z 10170440 f   idLib:Winding.obj
 0001:0016f980       ?PointInside@idWinding@@QBE_NABVidVec3@@0M@Z 10170980 f   idLib:Winding.obj
 0001:0016faa0       ?Split@idFixedWinding@@QAEHPAV1@ABVidPlane@@M@Z 10170aa0 f   idLib:Winding.obj
 0001:00170090       ?Copy@idWinding@@QBEPAV1@XZ 10171090 f   idLib:Winding.obj
 0001:00170120       ?GetPlane@idWinding@@QBEXAAVidPlane@@@Z 10171120 f   idLib:Winding.obj
 0001:001704d0       ?ShutDown@idLib@@SAXXZ     101714d0 f   idLib:Lib.obj
 0001:001704f0       ?PackColor@@YAIABVidVec4@@@Z 101714f0 f   idLib:Lib.obj
 0001:00170620       ?PackColor@@YAIABVidVec3@@@Z 10171620 f   idLib:Lib.obj
 0001:00170710       ?Error@idLib@@SAXPBDZZ     10171710 f   idLib:Lib.obj
 0001:00170750       ?LittleRevBytes@@YAXPAXHH@Z 10171750 f   idLib:Lib.obj
 0001:00170760       ?LittleBitField@@YAXPAXH@Z 10171760 f   idLib:Lib.obj
 0001:00170770       ?ShortSwap@@YAFF@Z         10171770 f   idLib:Lib.obj
 0001:00170790       ?ShortNoSwap@@YAFF@Z       10171790 f   idLib:Lib.obj
 0001:001707a0       ?LongSwap@@YAHH@Z          101717a0 f   idLib:Lib.obj
 0001:001707d0       ?LongNoSwap@@YAHH@Z        101717d0 f   idLib:Lib.obj
 0001:001707e0       ?FloatSwap@@YAMM@Z         101717e0 f   idLib:Lib.obj
 0001:00170810       ?FloatNoSwap@@YAMM@Z       10171810 f   idLib:Lib.obj
 0001:00170820       ?RevBytesSwap@@YAXPAXHH@Z  10171820 f   idLib:Lib.obj
 0001:001708a0       ?RevBitFieldSwap@@YAXPAXH@Z 101718a0 f   idLib:Lib.obj
 0001:001708f0       ?SixtetsForIntLittle@@YAXPAEH@Z 101718f0 f   idLib:Lib.obj
 0001:00170930       ?SixtetsForIntBig@@YAXPAEH@Z 10171930 f   idLib:Lib.obj
 0001:00170960       ?IntForSixtetsLittle@@YAHPAE@Z 10171960 f   idLib:Lib.obj
 0001:001709c0       ?IntForSixtetsBig@@YAHPAE@Z 101719c0 f   idLib:Lib.obj
 0001:001709f0       ?Swap_Init@@YAXXZ          101719f0 f   idLib:Lib.obj
 0001:00170af0       ?Init@idLib@@SAXXZ         10171af0 f   idLib:Lib.obj
 0001:00170b20       ?UnpackColor@@YAXIAAVidVec4@@@Z 10171b20 f   idLib:Lib.obj
 0001:00170b90       ?UnpackColor@@YAXIAAVidVec3@@@Z 10171b90 f   idLib:Lib.obj
 0001:00170be0       ?Shutdown@idSIMD@@SAXXZ    10171be0 f   idLib:Simd.obj
 0001:00170c20       ??4idDrawVert@@QAEAAV0@ABV0@@Z 10171c20 f i idLib:Simd.obj
 0001:00170ca0       ?Init@idSIMD@@SAXXZ        10171ca0 f   idLib:Simd.obj
 0001:00170ce0       ?InitProcessor@idSIMD@@SAXPBD_N@Z 10171ce0 f   idLib:Simd.obj
 0001:00170ee0       ?ToMat3@idQuat@@QBE?AVidMat3@@XZ 10171ee0 f   idLib:Quat.obj
 0001:00170fe0       ?Slerp@idQuat@@QAEAAV1@ABV1@0M@Z 10171fe0 f   idLib:Quat.obj
 0001:001715c0       ?ToMat3@idCQuat@@QBE?AVidMat3@@XZ 101725c0 f   idLib:Quat.obj
 0001:00171630       ?GetHashKey@idLangDict@@ABEHPBD@Z 10172630 f   idLib:LangDict.obj
 0001:00171660       ?GetString@idLangDict@@QBEPBDPBD@Z 10172660 f   idLib:LangDict.obj
 0001:00171720       ?InitBaseClockTicks@idTimer@@ABEXXZ 10172720 f   idLib:Timer.obj
 0001:00171800       ?Write@idMapPatch@@QBE_NPAVidFile@@HABVidVec3@@@Z 10172800 f   idLib:MapFile.obj
 0001:00171960       ?GetGeometryCRC@idMapPatch@@QBEIXZ 10172960 f   idLib:MapFile.obj
 0001:00171b70       ?Write@idMapBrush@@QBE_NPAVidFile@@HABVidVec3@@@Z 10172b70 f   idLib:MapFile.obj
 0001:00171ca0       ?GetGeometryCRC@idMapBrush@@QBEIXZ 10172ca0 f   idLib:MapFile.obj
 0001:00171d20       ?Write@idMapEntity@@QBE_NPAVidFile@@H@Z 10172d20 f   idLib:MapFile.obj
 0001:00171e10       ?RemovePrimitiveData@idMapEntity@@QAEXXZ 10172e10 f   idLib:MapFile.obj
 0001:00171e70       ?Write@idMapFile@@QAE_NPBD0_N@Z 10172e70 f   idLib:MapFile.obj
 0001:00171fd0       ?SetGeometryCRC@idMapFile@@AAEXXZ 10172fd0 f   idLib:MapFile.obj
 0001:00172050       ?FindEntity@idMapFile@@QAEPAVidMapEntity@@PBD@Z 10173050 f   idLib:MapFile.obj
 0001:001720b0       ?RemovePrimitiveData@idMapFile@@QAEXXZ 101730b0 f   idLib:MapFile.obj
 0001:001720e0       ?NeedsReload@idMapFile@@QAE_NXZ 101730e0 f   idLib:MapFile.obj
 0001:00172130       ??1idSurface_Patch@@QAE@XZ 10173130 f i idLib:MapFile.obj
 0001:001721e0       ??0idMapPrimitive@@QAE@XZ  101731e0 f i idLib:MapFile.obj
 0001:00172300       ??1idMapPrimitive@@UAE@XZ  10173300 f i idLib:MapFile.obj
 0001:00172380       ??_GidMapPrimitive@@UAEPAXI@Z 10173380 f i idLib:MapFile.obj
 0001:00172380       ??_EidMapPrimitive@@UAEPAXI@Z 10173380 f i idLib:MapFile.obj
 0001:001723a0       ??0idMapBrush@@QAE@XZ      101733a0 f i idLib:MapFile.obj
 0001:00172460       ?AddSide@idMapBrush@@QAEHPAVidMapBrushSide@@@Z 10173460 f i idLib:MapFile.obj
 0001:00172580       ?AddPrimitive@idMapEntity@@QAEXPAVidMapPrimitive@@@Z 10173580 f i idLib:MapFile.obj
 0001:001726a0       ?AddEntity@idMapFile@@QAEHPAVidMapEntity@@@Z 101736a0 f   idLib:MapFile.obj
 0001:001727c0       ?RemoveEntities@idMapFile@@QAEXPBD@Z 101737c0 f   idLib:MapFile.obj
 0001:00172860       ??1idMapBrush@@UAE@XZ      10173860 f i idLib:MapFile.obj
 0001:00172920       ??_GidMapBrush@@UAEPAXI@Z  10173920 f i idLib:MapFile.obj
 0001:00172920       ??_EidMapBrush@@UAEPAXI@Z  10173920 f i idLib:MapFile.obj
 0001:00172940       ??1idMapPatch@@UAE@XZ      10173940 f i idLib:MapFile.obj
 0001:00172a20       ??_EidMapPatch@@UAEPAXI@Z  10173a20 f i idLib:MapFile.obj
 0001:00172a20       ??_GidMapPatch@@UAEPAXI@Z  10173a20 f i idLib:MapFile.obj
 0001:00172a40       ?Parse@idMapPatch@@SAPAV1@AAVidLexer@@ABVidVec3@@_NM@Z 10173a40 f   idLib:MapFile.obj
 0001:001730c0       ?Parse@idMapBrush@@SAPAV1@AAVidLexer@@ABVidVec3@@_NM@Z 101740c0 f   idLib:MapFile.obj
 0001:001740c0       ?ParseQ3@idMapBrush@@SAPAV1@AAVidLexer@@ABVidVec3@@@Z 101750c0 f   idLib:MapFile.obj
 0001:00174b60       ?Parse@idMapEntity@@SAPAV1@AAVidLexer@@_NM@Z 10175b60 f   idLib:MapFile.obj
 0001:00175000       ?Parse@idMapFile@@QAE_NPBD_N1@Z 10176000 f   idLib:MapFile.obj
 0001:00175860       ?RemoveEntity@idMapFile@@QAEXPAVidMapEntity@@@Z 10176860 f   idLib:MapFile.obj
 0001:001758d0       ?AllocDefragBlock@idHeap@@QAEXXZ 101768d0 f   idLib:Heap.obj
 0001:00175940       ?Allocate16@idHeap@@QAEPAXI@Z 10176940 f   idLib:Heap.obj
 0001:001759e0       ?Msize@idHeap@@QAEIPAX@Z   101769e0 f   idLib:Heap.obj
 0001:00175a60       ?AllocatePage@idHeap@@AAEPAUpage_s@1@I@Z 10176a60 f   idLib:Heap.obj
 0001:00175b40       ?SmallAllocate@idHeap@@AAEPAXI@Z 10176b40 f   idLib:Heap.obj
 0001:00175c00       ?SmallFree@idHeap@@AAEXPAX@Z 10176c00 f   idLib:Heap.obj
 0001:00175c40       ?MediumAllocateFromPage@idHeap@@AAEPAXPAUpage_s@1@I@Z 10176c40 f   idLib:Heap.obj
 0001:00175ce0       ?MediumAllocate@idHeap@@AAEPAXI@Z 10176ce0 f   idLib:Heap.obj
 0001:00175e30       ?MediumFree@idHeap@@AAEXPAX@Z 10176e30 f   idLib:Heap.obj
 0001:00175f90       ?LargeAllocate@idHeap@@AAEPAXI@Z 10176f90 f   idLib:Heap.obj
 0001:00175fe0       ?LargeFree@idHeap@@AAEXPAX@Z 10176fe0 f   idLib:Heap.obj
 0001:00176060       ?Mem_UpdateAllocStats@@YAXH@Z 10177060 f   idLib:Heap.obj
 0001:001760c0       ?Mem_UpdateFreeStats@@YAXH@Z 101770c0 f   idLib:Heap.obj
 0001:00176100       ?Mem_Alloc16@@YAPAXH@Z     10177100 f   idLib:Heap.obj
 0001:00176130       ?Mem_Free16@@YAXPAX@Z      10177130 f   idLib:Heap.obj
 0001:00176160       ?DebugDraw@idAFConstraint_ContactFriction@@UAEXXZ 10177160 f   Physics_AF.obj
 0001:00176160       ?Mem_EnableLeakTest@@YAXPBD@Z 10177160 f   idLib:Heap.obj
 0001:00176160       ?PutToRest@idPhysics_Static@@UAEXXZ 10177160 f   Physics_Static.obj
 0001:00176160       ?PreBind@idEntity@@UAEXXZ  10177160 f   Entity.obj
 0001:00176160       ?Event_DropToFloor@idMoveableItem@@AAEXXZ 10177160 f   Item.obj
 0001:00176160       ?Spawn@idSplinePath@@QAEXXZ 10177160 f   Mover.obj
 0001:00176160       ?Spawn@idCursor3D@@QAEXXZ  10177160 f   GameEdit.obj
 0001:00176160       ?DormantBegin@idEntity@@UAEXXZ 10177160 f   Entity.obj
 0001:00176160       ?SaveState@idPhysics_Static@@UAEXXZ 10177160 f   Physics_Static.obj
 0001:00176160       ?Activate@idPhysics_Static@@UAEXXZ 10177160 f   Physics_Static.obj
 0001:00176160       ?Spawn@idCamera@@QAEXXZ    10177160 f   Camera.obj
 0001:00176160       ?UnlinkClip@idPhysics_Base@@UAEXXZ 10177160 f   Physics_Base.obj
 0001:00176160       ?RestoreState@idPhysics_StaticMulti@@UAEXXZ 10177160 f   Physics_StaticMulti.obj
 0001:00176160       ?ShowEditingDialog@idEntity@@UAEXXZ 10177160 f   Entity.obj
 0001:00176160       ?DormantEnd@idEntity@@UAEXXZ 10177160 f   Entity.obj
 0001:00176160       ?DisableClip@idPhysics_Base@@UAEXXZ 10177160 f   Physics_Base.obj
 0001:00176160       ?Spawn@idItemRemover@@QAEXXZ 10177160 f   Item.obj
 0001:00176160       ?Spawn@idClass@@QAEXXZ     10177160 f   Class.obj
 0001:00176160       ?Stop@idCamera@@UAEXXZ     10177160 f   Camera.obj
 0001:00176160       ?Activate@idPhysics_Base@@UAEXXZ 10177160 f   Physics_Base.obj
 0001:00176160       ?RestoreState@idPhysics_Base@@UAEXXZ 10177160 f   Physics_Base.obj
 0001:00176160       ?PreUnbind@idEntity@@UAEXXZ 10177160 f   Entity.obj
 0001:00176160       ?Spawn@idTarget_Tip@@QAEXXZ 10177160 f   Target.obj
 0001:00176160       ?SaveState@idPhysics_Base@@UAEXXZ 10177160 f   Physics_Base.obj
 0001:00176160       ?Spawn@idPathCorner@@QAEXXZ 10177160 f   Misc.obj
 0001:00176160       ?Think@idWeapon@@UAEXXZ    10177160 f   Weapon.obj
 0001:00176160       ?DebugDraw@idAFConstraint@@UAEXXZ 10177160 f   Physics_AF.obj
 0001:00176160       ??1element_s@?$idBlockAlloc@UentityState_s@@$0BAA@@@QAE@XZ 10177160 f   Game_local.obj
 0001:00176160       ?LinkClip@idPhysics_Base@@UAEXXZ 10177160 f   Physics_Base.obj
 0001:00176160       ?Spawn@idSpawnableEntity@@QAEXXZ 10177160 f   Misc.obj
 0001:00176160       ?Evaluate@idIK@@UAEXXZ     10177160 f   IK.obj
 0001:00176160       ?Spawn@idFuncSplat@@QAEXXZ 10177160 f   Misc.obj
 0001:00176160       ?ClearContacts@idPhysics_Static@@UAEXXZ 10177160 f   Physics_Static.obj
 0001:00176160       ?RestoreState@idPhysics_Static@@UAEXXZ 10177160 f   Physics_Static.obj
 0001:00176160       ?PutToRest@idPhysics_StaticMulti@@UAEXXZ 10177160 f   Physics_StaticMulti.obj
 0001:00176160       ?FreeLightDef@idEntity@@UAEXXZ 10177160 f   Entity.obj
 0001:00176160       ?ClearContacts@idPhysics_StaticMulti@@UAEXXZ 10177160 f   Physics_StaticMulti.obj
 0001:00176160       ?Spawn@idTarget_GiveEmail@@QAEXXZ 10177160 f   Target.obj
 0001:00176160       ?PutToRest@idPhysics_Base@@UAEXXZ 10177160 f   Physics_Base.obj
 0001:00176160       ?Activate@idPhysics_StaticMulti@@UAEXXZ 10177160 f   Physics_StaticMulti.obj
 0001:00176160       ?EnableClip@idPhysics_Base@@UAEXXZ 10177160 f   Physics_Base.obj
 0001:00176160       ?PostBind@idEntity@@UAEXXZ 10177160 f   Entity.obj
 0001:00176160       ?RevBytesNoSwap@@YAXPAXHH@Z 10177160 f   idLib:Lib.obj
 0001:00176160       ?SaveState@idPhysics_StaticMulti@@UAEXXZ 10177160 f   Physics_StaticMulti.obj
 0001:00176160       ?Spawn@idLiquid@@QAEXXZ    10177160 f   Misc.obj
 0001:00176160       ?PostUnbind@idEntity@@UAEXXZ 10177160 f   Entity.obj
 0001:00176160       ?RevBitFieldNoSwap@@YAXPAXH@Z 10177160 f   idLib:Lib.obj
 0001:00176160       ?Event_Gibbed@idPlayer@@AAEXXZ 10177160 f   Player.obj
 0001:00176160       ?FindUninitializedMemory@idClass@@QAEXXZ 10177160 f   Class.obj
 0001:00176160       ?Spawn@idGuidedProjectile@@QAEXXZ 10177160 f   Projectile.obj
 0001:00176170       ?Init@idHeap@@QAEXXZ       10177170 f   idLib:Heap.obj
 0001:00176200       ??1idHeap@@QAE@XZ          10177200 f   idLib:Heap.obj
 0001:00176380       ?Allocate@idHeap@@QAEPAXI@Z 10177380 f   idLib:Heap.obj
 0001:001763c0       ?Free@idHeap@@QAEXPAX@Z    101773c0 f   idLib:Heap.obj
 0001:00176430       ?Mem_Alloc@@YAPAXH@Z       10177430 f   idLib:Heap.obj
 0001:00176470       ?Mem_Free@@YAXPAX@Z        10177470 f   idLib:Heap.obj
 0001:001764b0       ?Mem_ClearedAlloc@@YAPAXH@Z 101774b0 f   idLib:Heap.obj
 0001:00176510       ?Mem_Init@@YAXXZ           10177510 f   idLib:Heap.obj
 0001:001765a0       ?Mem_Shutdown@@YAXXZ       101775a0 f   idLib:Heap.obj
 0001:001765d0       ?Args@idCmdArgs@@QBEPBDHH_N@Z 101775d0 f   idLib:CmdArgs.obj
 0001:00176790       ?TokenizeString@idCmdArgs@@QAEXPBD_N@Z 10177790 f   idLib:CmdArgs.obj
 0001:00176a60       ?GetBounds@idWinding2D@@QBEXQAVidVec2@@@Z 10177a60 f   idLib:Winding2D.obj
 0001:00176b30       ?GetAxialBevel@@YA_NABVidVec3@@0ABVidVec2@@AAV1@@Z 10177b30 f   idLib:Winding2D.obj
 0001:00176c30       ?ExpandForAxialBox@idWinding2D@@QAEXQBVidVec2@@@Z 10177c30 f   idLib:Winding2D.obj
 0001:00176fd0       ?Expand@idWinding2D@@QAEXM@Z 10177fd0 f   idLib:Winding2D.obj
 0001:00177480       ?PointInside@idWinding2D@@QBE_NABVidVec2@@M@Z 10178480 f   idLib:Winding2D.obj
 0001:00177520       ?RayIntersection@idWinding2D@@QBE_NABVidVec2@@0AAM1PAH@Z 10178520 f   idLib:Winding2D.obj
 0001:00177810       ?ToPoints@idBox@@QBEXQAVidVec3@@@Z 10178810 f   idLib:Box.obj
 0001:00177b20       ?GetParallelProjectionSilhouetteVerts@idBox@@QBEHABVidVec3@@QAV2@@Z 10178b20 f   idLib:Box.obj
 0001:00177c30       ?ClearTokenWhiteSpace@idToken@@QAEXXZ 10178c30 f   idLib:Token.obj
 0001:00177c40       ?NumberValue@idToken@@QAEXXZ 10178c40 f   idLib:Token.obj
 0001:00177f90       ?AddDefineToHash@idParser@@AAEXPAUdefine_s@@PAPAU2@@Z 10178f90 f   idLib:Parser.obj
 0001:00177ff0       ?FindHashedDefine@idParser@@AAEPAUdefine_s@@PAPAU2@PBD@Z 10178ff0 f   idLib:Parser.obj
 0001:00178070       ?Error@idParser@@QBAXPBDZZ 10179070 f   idLib:Parser.obj
 0001:001780c0       ?Warning@idParser@@QBAXPBDZZ 101790c0 f   idLib:Parser.obj
 0001:00178110       ?PushIndent@idParser@@AAEXHH@Z 10179110 f   idLib:Parser.obj
 0001:00178150       ?Directive_else@idParser@@AAEHXZ 10179150 f   idLib:Parser.obj
 0001:001781f0       ?Directive_endif@idParser@@AAEHXZ 101791f0 f   idLib:Parser.obj
 0001:00178240       ?PC_OperatorPriority@@YAHH@Z 10179240 f   idLib:Parser.obj
 0001:00178310       ?GetPunctuationId@idParser@@QAEHPBD@Z 10179310 f   idLib:Parser.obj
 0001:001783d0       ?FindDefineParm@idParser@@AAEHPAUdefine_s@@PBD@Z 101793d0 f   idLib:Parser.obj
 0001:00178410       ?PushScript@idParser@@AAEXPAVidLexer@@@Z 10179410 f   idLib:Parser.obj
 0001:00178470       ?StringizeTokens@idParser@@AAEHPAVidToken@@0@Z 10179470 f   idLib:Parser.obj
 0001:00178520       ?MergeTokens@idParser@@AAEHPAVidToken@@0@Z 10179520 f   idLib:Parser.obj
 0001:001786a0       ?EvaluateTokens@idParser@@AAEHPAVidToken@@PAJPANH@Z 101796a0 f   idLib:Parser.obj
 0001:001790a0       ?SetFlags@idParser@@QAEXH@Z 1017a0a0 f   idLib:Parser.obj
 0001:001790c0       ??0idParser@@QAE@XZ        1017a0c0 f   idLib:Parser.obj
 0001:00179110       ??0idParser@@QAE@H@Z       1017a110 f   idLib:Parser.obj
 0001:00179160       ?FreeDefine@idParser@@CAXPAUdefine_s@@@Z 1017a160 f   idLib:Parser.obj
 0001:001791c0       ??0idToken@@QAE@ABV0@@Z    1017a1c0 f i idLib:Parser.obj
 0001:00179250       ?FreeSource@idParser@@QAEX_N@Z 1017a250 f   idLib:Parser.obj
 0001:00179340       ??1idParser@@QAE@XZ        1017a340 f   idLib:Parser.obj
 0001:001793a0       ?CopyDefine@idParser@@AAEPAUdefine_s@@PAU2@@Z 1017a3a0 f   idLib:Parser.obj
 0001:00179510       ?ReadSourceToken@idParser@@AAEHPAVidToken@@@Z 1017a510 f   idLib:Parser.obj
 0001:001796c0       ?UnreadSourceToken@idParser@@AAEHPAVidToken@@@Z 1017a6c0 f   idLib:Parser.obj
 0001:00179750       ?ReadDefineParms@idParser@@AAEHPAUdefine_s@@PAPAVidToken@@H@Z 1017a750 f   idLib:Parser.obj
 0001:00179b30       ?ExpandBuiltinDefine@idParser@@AAEHPAVidToken@@PAUdefine_s@@PAPAV2@2@Z 1017ab30 f   idLib:Parser.obj
 0001:00179f50       ?ExpandDefine@idParser@@AAEHPAVidToken@@PAUdefine_s@@PAPAV2@2@Z 1017af50 f   idLib:Parser.obj
 0001:0017a350       ?ExpandDefineIntoSource@idParser@@AAEHPAVidToken@@PAUdefine_s@@@Z 1017b350 f   idLib:Parser.obj
 0001:0017a3b0       ?ReadLine@idParser@@AAEHPAVidToken@@@Z 1017b3b0 f   idLib:Parser.obj
 0001:0017a410       ?Directive_include@idParser@@AAEHXZ 1017b410 f   idLib:Parser.obj
 0001:0017a970       ?Directive_undef@idParser@@AAEHXZ 1017b970 f   idLib:Parser.obj
 0001:0017aaf0       ?AddGlobalDefinesToSource@idParser@@AAEXXZ 1017baf0 f   idLib:Parser.obj
 0001:0017ab20       ?Directive_if_def@idParser@@AAEHH@Z 1017bb20 f   idLib:Parser.obj
 0001:0017ac50       ?Evaluate@idParser@@AAEHPAJPANH@Z 1017bc50 f   idLib:Parser.obj
 0001:0017aed0       ?DollarEvaluate@idParser@@AAEHPAJPANH@Z 1017bed0 f   idLib:Parser.obj
 0001:0017b1a0       ?Directive_elif@idParser@@AAEHXZ 1017c1a0 f   idLib:Parser.obj
 0001:0017b220       ?Directive_if@idParser@@AAEHXZ 1017c220 f   idLib:Parser.obj
 0001:0017b270       ?Directive_line@idParser@@AAEHXZ 1017c270 f   idLib:Parser.obj
 0001:0017b2f0       ?Directive_error@idParser@@AAEHXZ 1017c2f0 f   idLib:Parser.obj
 0001:0017b3b0       ?Directive_warning@idParser@@AAEHXZ 1017c3b0 f   idLib:Parser.obj
 0001:0017b470       ?Directive_pragma@idParser@@AAEHXZ 1017c470 f   idLib:Parser.obj
 0001:0017b4f0       ?UnreadSignToken@idParser@@AAEXXZ 1017c4f0 f   idLib:Parser.obj
 0001:0017b590       ?Directive_eval@idParser@@AAEHXZ 1017c590 f   idLib:Parser.obj
 0001:0017b6b0       ?Directive_evalfloat@idParser@@AAEHXZ 1017c6b0 f   idLib:Parser.obj
 0001:0017b7f0       ?DollarDirective_evalint@idParser@@AAEHXZ 1017c7f0 f   idLib:Parser.obj
 0001:0017b930       ?DollarDirective_evalfloat@idParser@@AAEHXZ 1017c930 f   idLib:Parser.obj
 0001:0017ba90       ?ReadDollarDirective@idParser@@AAEHXZ 1017ca90 f   idLib:Parser.obj
 0001:0017bbe0       ?CheckTokenString@idParser@@QAEHPBD@Z 1017cbe0 f   idLib:Parser.obj
 0001:0017bca0       ?UnreadToken@idParser@@QAEXPAVidToken@@@Z 1017cca0 f   idLib:Parser.obj
 0001:0017bcb0       ?LoadFile@idParser@@QAEHPBD_N@Z 1017ccb0 f   idLib:Parser.obj
 0001:0017bdd0       ?LoadMemory@idParser@@QAEHPBDH0@Z 1017cdd0 f   idLib:Parser.obj
 0001:0017bef0       ?Directive_define@idParser@@AAEHXZ 1017cef0 f   idLib:Parser.obj
 0001:0017c3c0       ?ReadDirective@idParser@@AAEHXZ 1017d3c0 f   idLib:Parser.obj
 0001:0017c8b0       ?ReadToken@idParser@@QAEHPAVidToken@@@Z 1017d8b0 f   idLib:Parser.obj
 0001:0017ca60       ?ExpectTokenString@idParser@@QAEHPBD@Z 1017da60 f   idLib:Parser.obj
 0001:0017cb60       ?ExpectTokenType@idParser@@QAEHHHPAVidToken@@@Z 1017db60 f   idLib:Parser.obj
 0001:0017cec0       ?SkipBracedSection@idParser@@QAEH_N@Z 1017dec0 f   idLib:Parser.obj
 0001:0017cfb0       ?ParseRestOfLine@idParser@@QAEPBDAAVidStr@@@Z 1017dfb0 f   idLib:Parser.obj
 0001:0017d110       ?ParseInt@idParser@@QAEHXZ 1017e110 f   idLib:Parser.obj
 0001:0017d260       ??1idLCP@@UAE@XZ           1017e260 f   idLib:Lcp.obj
 0001:0017d270       ?SetMaxIterations@idLCP@@UAEXH@Z 1017e270 f   idLib:Lcp.obj
 0001:0017d270       ?SetSelf@idPhysics_Static@@UAEXPAVidEntity@@@Z 1017e270 f   Physics_Static.obj
 0001:0017d270       ?SetEntity@idAnimator@@QAEXPAVidEntity@@@Z 1017e270 f   Anim_Blend.obj
 0001:0017d270       ?SetSelf@idPhysics_Base@@UAEXPAVidEntity@@@Z 1017e270 f   Physics_Base.obj
 0001:0017d270       ?SetSelf@idPhysics_StaticMulti@@UAEXPAVidEntity@@@Z 1017e270 f   Physics_StaticMulti.obj
 0001:0017d280       ?GetMaxIterations@idLCP@@UAEHXZ 1017e280 f   idLib:Lcp.obj
 0001:0017d280       ?GetEntity@idAnimator@@QBEPAVidEntity@@XZ 1017e280 f   Anim_Blend.obj
 0001:0017d280       ?Name@function_t@@QBEPBDXZ 1017e280 f   Script_Program.obj
 0001:0017d290       ?FactorClamped@idLCP_Symmetric@@AAE_NXZ 1017e290 f   idLib:Lcp.obj
 0001:0017d310       ?SolveClamped@idLCP_Symmetric@@AAEXAAVidVecX@@PBM@Z 1017e310 f   idLib:Lcp.obj
 0001:0017d3b0       ?Swap@idLCP_Symmetric@@AAEXHH@Z 1017e3b0 f   idLib:Lcp.obj
 0001:0017d4d0       ?AddClamped@idLCP_Symmetric@@AAEXH_N@Z 1017e4d0 f   idLib:Lcp.obj
 0001:0017d670       ?RemoveClamped@idLCP_Symmetric@@AAEXH@Z 1017e670 f   idLib:Lcp.obj
 0001:0017de10       ?GetMaxStep@idLCP_Symmetric@@ABEXHMAAMAAH1@Z 1017ee10 f   idLib:Lcp.obj
 0001:0017e2f0       ??_EidLCP@@UAEPAXI@Z       1017f2f0 f i idLib:Lcp.obj
 0001:0017e2f0       ??_GidLCP@@UAEPAXI@Z       1017f2f0 f i idLib:Lcp.obj
 0001:0017e310       ??0idLCP_Symmetric@@QAE@XZ 1017f310 f i idLib:Lcp.obj
 0001:0017e3b0       ??1idLCP_Symmetric@@UAE@XZ 1017f3b0 f i idLib:Lcp.obj
 0001:0017e630       ?Solve@idLCP_Symmetric@@UAE_NABVidMatX@@AAVidVecX@@ABV3@22PBH@Z 1017f630 f   idLib:Lcp.obj
 0001:0017f630       ?AllocSymmetric@idLCP@@SAPAV1@XZ 10180630 f   idLib:Lcp.obj
 0001:0017f670       ??_EidLCP_Symmetric@@UAEPAXI@Z 10180670 f i idLib:Lcp.obj
 0001:0017f670       ??_GidLCP_Symmetric@@UAEPAXI@Z 10180670 f i idLib:Lcp.obj
 0001:0017f690       ?Evaluate@idODE_Euler@@UAEMPBMPAMMM@Z 10180690 f   idLib:Ode.obj
 0001:0017f6f0       ??1idODE@@UAE@XZ           101806f0 f i idLib:Ode.obj
 0001:0017f700       ??_GidODE@@UAEPAXI@Z       10180700 f i idLib:Ode.obj
 0001:0017f700       ??_EidODE@@UAEPAXI@Z       10180700 f i idLib:Ode.obj
 0001:0017f720       ??0idODE_Euler@@QAE@HQ6AXMPBXPBMPAM@Z0@Z 10180720 f   idLib:Ode.obj
 0001:0017f790       ??1idODE_Euler@@UAE@XZ     10180790 f   idLib:Ode.obj
 0001:0017f7e0       ??_EidODE_Euler@@UAEPAXI@Z 101807e0 f i idLib:Ode.obj
 0001:0017f7e0       ??_GidODE_Euler@@UAEPAXI@Z 101807e0 f i idLib:Ode.obj
 0001:0017fc90       ?MD4_Update@@YAXPAUMD4_CTX@@PBEI@Z 10180c90 f   idLib:MD4.obj
 0001:0017fd40       ?MD4_Final@@YAXPAUMD4_CTX@@QAE@Z 10180d40 f   idLib:MD4.obj
 0001:0017fe00       ?MD4_BlockChecksum@@YAKPBXH@Z 10180e00 f   idLib:MD4.obj
 0001:0017fe70       ?Laguer@idPolynomial@@ABEHPBVidComplex@@HAAV2@@Z 10180e70 f   idLib:Polynomial.obj
 0001:001813c0       ?GetRoots@idPolynomial@@QBEHPAVidComplex@@@Z 101823c0 f   idLib:Polynomial.obj
 0001:001817b0       ?GetRoots@idPolynomial@@QBEHPAM@Z 101827b0 f   idLib:Polynomial.obj
 0001:00182610       ?Test@idPolynomial@@SAXXZ  10183610 f   idLib:Polynomial.obj
 0001:00182980       ?GetName@idSIMD_Generic@@UBIPBDXZ 10183980 f   idLib:Simd_Generic.obj
 0001:00182990       ?Add@idSIMD_Generic@@UAIXPAMMPBMH@Z 10183990 f   idLib:Simd_Generic.obj
 0001:00182a80       ?Add@idSIMD_Generic@@UAIXPAMPBM1H@Z 10183a80 f   idLib:Simd_Generic.obj
 0001:00182bc0       ?Sub@idSIMD_Generic@@UAIXPAMMPBMH@Z 10183bc0 f   idLib:Simd_Generic.obj
 0001:00182cb0       ?Sub@idSIMD_Generic@@UAIXPAMPBM1H@Z 10183cb0 f   idLib:Simd_Generic.obj
 0001:00182df0       ?Mul@idSIMD_Generic@@UAIXPAMMPBMH@Z 10183df0 f   idLib:Simd_Generic.obj
 0001:00182ee0       ?Mul@idSIMD_Generic@@UAIXPAMPBM1H@Z 10183ee0 f   idLib:Simd_Generic.obj
 0001:00183020       ?Div@idSIMD_Generic@@UAIXPAMMPBMH@Z 10184020 f   idLib:Simd_Generic.obj
 0001:00183110       ?Div@idSIMD_Generic@@UAIXPAMPBM1H@Z 10184110 f   idLib:Simd_Generic.obj
 0001:00183250       ?MulAdd@idSIMD_Generic@@UAIXPAMMPBMH@Z 10184250 f   idLib:Simd_Generic.obj
 0001:00183350       ?MulAdd@idSIMD_Generic@@UAIXPAMPBM1H@Z 10184350 f   idLib:Simd_Generic.obj
 0001:00183490       ?MulSub@idSIMD_Generic@@UAIXPAMMPBMH@Z 10184490 f   idLib:Simd_Generic.obj
 0001:001835a0       ?MulSub@idSIMD_Generic@@UAIXPAMPBM1H@Z 101845a0 f   idLib:Simd_Generic.obj
 0001:001836f0       ?Dot@idSIMD_Generic@@UAIXAAMPBM1H@Z 101846f0 f   idLib:Simd_Generic.obj
 0001:00183890       ?CmpGT@idSIMD_Generic@@UAIXPAEPBMMH@Z 10184890 f   idLib:Simd_Generic.obj
 0001:001839c0       ?CmpGT@idSIMD_Generic@@UAIXPAEEPBMMH@Z 101849c0 f   idLib:Simd_Generic.obj
 0001:00183b30       ?CmpGE@idSIMD_Generic@@UAIXPAEPBMMH@Z 10184b30 f   idLib:Simd_Generic.obj
 0001:00183c60       ?CmpGE@idSIMD_Generic@@UAIXPAEEPBMMH@Z 10184c60 f   idLib:Simd_Generic.obj
 0001:00183dd0       ?CmpLT@idSIMD_Generic@@UAIXPAEPBMMH@Z 10184dd0 f   idLib:Simd_Generic.obj
 0001:00183f00       ?CmpLT@idSIMD_Generic@@UAIXPAEEPBMMH@Z 10184f00 f   idLib:Simd_Generic.obj
 0001:00184070       ?CmpLE@idSIMD_Generic@@UAIXPAEPBMMH@Z 10185070 f   idLib:Simd_Generic.obj
 0001:001841a0       ?CmpLE@idSIMD_Generic@@UAIXPAEEPBMMH@Z 101851a0 f   idLib:Simd_Generic.obj
 0001:00184310       ?MinMax@idSIMD_Generic@@UAIXAAM0PBMH@Z 10185310 f   idLib:Simd_Generic.obj
 0001:00184440       ?Clamp@idSIMD_Generic@@UAIXPAMPBMMMH@Z 10185440 f   idLib:Simd_Generic.obj
 0001:001845e0       ?ClampMin@idSIMD_Generic@@UAIXPAMPBMMH@Z 101855e0 f   idLib:Simd_Generic.obj
 0001:00184710       ?ClampMax@idSIMD_Generic@@UAIXPAMPBMMH@Z 10185710 f   idLib:Simd_Generic.obj
 0001:00184840       ?Memcpy@idSIMD_Generic@@UAIXPAXPBXH@Z 10185840 f   idLib:Simd_Generic.obj
 0001:00184860       ?Memset@idSIMD_Generic@@UAIXPAXHH@Z 10185860 f   idLib:Simd_Generic.obj
 0001:00184880       ?Zero16@idSIMD_Generic@@UAIXPAMH@Z 10185880 f   idLib:Simd_Generic.obj
 0001:001848a0       ?Negate16@idSIMD_Generic@@UAIXPAMH@Z 101858a0 f   idLib:Simd_Generic.obj
 0001:001848d0       ?Copy16@idSIMD_Generic@@UAIXPAMPBMH@Z 101858d0 f   idLib:Simd_Generic.obj
 0001:00184950       ?Add16@idSIMD_Generic@@UAIXPAMPBM1H@Z 10185950 f   idLib:Simd_Generic.obj
 0001:00184a00       ?Sub16@idSIMD_Generic@@UAIXPAMPBM1H@Z 10185a00 f   idLib:Simd_Generic.obj
 0001:00184ab0       ?Mul16@idSIMD_Generic@@UAIXPAMPBMMH@Z 10185ab0 f   idLib:Simd_Generic.obj
 0001:00184b40       ?AddAssign16@idSIMD_Generic@@UAIXPAMPBMH@Z 10185b40 f   idLib:Simd_Generic.obj
 0001:00184bd0       ?SubAssign16@idSIMD_Generic@@UAIXPAMPBMH@Z 10185bd0 f   idLib:Simd_Generic.obj
 0001:00184c60       ?MulAssign16@idSIMD_Generic@@UAIXPAMMH@Z 10185c60 f   idLib:Simd_Generic.obj
 0001:00184cd0       ?BlendJoints@idSIMD_Generic@@UAIXPAVidJointQuat@@PBV2@MPBHH@Z 10185cd0 f   idLib:Simd_Generic.obj
 0001:00184d40       ?DeriveUnsmoothedTangents@idSIMD_Generic@@UAIXPAVidDrawVert@@PBUdominantTri_s@@H@Z 10185d40 f   idLib:Simd_Generic.obj
 0001:00184f00       ?NormalizeTangents@idSIMD_Generic@@UAIXPAVidDrawVert@@H@Z 10185f00 f   idLib:Simd_Generic.obj
 0001:001850b0       ?CreateTextureSpaceLightVectors@idSIMD_Generic@@UAIXPAVidVec3@@ABV2@PBVidDrawVert@@HPBHH@Z 101860b0 f   idLib:Simd_Generic.obj
 0001:00185390       ?CreateSpecularTextureCoords@idSIMD_Generic@@UAIXPAVidVec4@@ABVidVec3@@1PBVidDrawVert@@HPBHH@Z 10186390 f   idLib:Simd_Generic.obj
 0001:001855b0       ?CreateShadowCache@idSIMD_Generic@@UAIHPAVidVec4@@PAHABVidVec3@@PBVidDrawVert@@H@Z 101865b0 f   idLib:Simd_Generic.obj
 0001:001857a0       ?CreateVertexProgramShadowCache@idSIMD_Generic@@UAIHPAVidVec4@@PBVidDrawVert@@H@Z 101867a0 f   idLib:Simd_Generic.obj
 0001:00185800       ?UpSamplePCMTo44kHz@idSIMD_Generic@@UAIXPAMPBFHHH@Z 10186800 f   idLib:Simd_Generic.obj
 0001:00185bb0       ?UpSampleOGGTo44kHz@idSIMD_Generic@@UAIXPAMPBQBMHHH@Z 10186bb0 f   idLib:Simd_Generic.obj
 0001:00186230       ?MixSoundTwoSpeakerMono@idSIMD_Generic@@UAIXPAMPBMHQBM2@Z 10187230 f   idLib:Simd_Generic.obj
 0001:00186400       ?MixSoundTwoSpeakerStereo@idSIMD_Generic@@UAIXPAMPBMHQBM2@Z 10187400 f   idLib:Simd_Generic.obj
 0001:001865e0       ?MixSoundSixSpeakerMono@idSIMD_Generic@@UAIXPAMPBMHQBM2@Z 101875e0 f   idLib:Simd_Generic.obj
 0001:00186730       ?MixSoundSixSpeakerStereo@idSIMD_Generic@@UAIXPAMPBMHQBM2@Z 10187730 f   idLib:Simd_Generic.obj
 0001:00186880       ?MixedSoundToSamples@idSIMD_Generic@@UAIXPAFPBMH@Z 10187880 f   idLib:Simd_Generic.obj
 0001:001868f0       ?Dot@idSIMD_Generic@@UAIXPAMABVidVec3@@PBV2@H@Z 101878f0 f   idLib:Simd_Generic.obj
 0001:001869d0       ?Dot@idSIMD_Generic@@UAIXPAMABVidVec3@@PBVidPlane@@H@Z 101879d0 f   idLib:Simd_Generic.obj
 0001:00186af0       ?Dot@idSIMD_Generic@@UAIXPAMABVidVec3@@PBVidDrawVert@@H@Z 10187af0 f   idLib:Simd_Generic.obj
 0001:00186bf0       ?Dot@idSIMD_Generic@@UAIXPAMABVidPlane@@PBVidVec3@@H@Z 10187bf0 f   idLib:Simd_Generic.obj
 0001:00186d10       ?Dot@idSIMD_Generic@@UAIXPAMABVidPlane@@PBV2@H@Z 10187d10 f   idLib:Simd_Generic.obj
 0001:00186e40       ?Dot@idSIMD_Generic@@UAIXPAMABVidPlane@@PBVidDrawVert@@H@Z 10187e40 f   idLib:Simd_Generic.obj
 0001:00186f80       ?Dot@idSIMD_Generic@@UAIXPAMPBVidVec3@@1H@Z 10187f80 f   idLib:Simd_Generic.obj
 0001:00187090       ?MinMax@idSIMD_Generic@@UAIXAAVidVec2@@0PBV2@H@Z 10188090 f   idLib:Simd_Generic.obj
 0001:001872a0       ?MinMax@idSIMD_Generic@@UAIXAAVidVec3@@0PBV2@H@Z 101882a0 f   idLib:Simd_Generic.obj
 0001:00187590       ?MinMax@idSIMD_Generic@@UAIXAAVidVec3@@0PBVidDrawVert@@H@Z 10188590 f   idLib:Simd_Generic.obj
 0001:00187890       ?MinMax@idSIMD_Generic@@UAIXAAVidVec3@@0PBVidDrawVert@@PBHH@Z 10188890 f   idLib:Simd_Generic.obj
 0001:00187bc0       ?MatX_MultiplyVecX@idSIMD_Generic@@UAIXAAVidVecX@@ABVidMatX@@ABV2@@Z 10188bc0 f   idLib:Simd_Generic.obj
 0001:00188230       ?MatX_MultiplyAddVecX@idSIMD_Generic@@UAIXAAVidVecX@@ABVidMatX@@ABV2@@Z 10189230 f   idLib:Simd_Generic.obj
 0001:00188910       ?MatX_MultiplySubVecX@idSIMD_Generic@@UAIXAAVidVecX@@ABVidMatX@@ABV2@@Z 10189910 f   idLib:Simd_Generic.obj
 0001:00189020       ?MatX_TransposeMultiplyVecX@idSIMD_Generic@@UAIXAAVidVecX@@ABVidMatX@@ABV2@@Z 1018a020 f   idLib:Simd_Generic.obj
 0001:00189740       ?MatX_TransposeMultiplyAddVecX@idSIMD_Generic@@UAIXAAVidVecX@@ABVidMatX@@ABV2@@Z 1018a740 f   idLib:Simd_Generic.obj
 0001:00189ed0       ?MatX_TransposeMultiplySubVecX@idSIMD_Generic@@UAIXAAVidVecX@@ABVidMatX@@ABV2@@Z 1018aed0 f   idLib:Simd_Generic.obj
 0001:0018a690       ?MatX_MultiplyMatX@idSIMD_Generic@@UAIXAAVidMatX@@ABV2@1@Z 1018b690 f   idLib:Simd_Generic.obj
 0001:0018bf60       ?MatX_TransposeMultiplyMatX@idSIMD_Generic@@UAIXAAVidMatX@@ABV2@1@Z 1018cf60 f   idLib:Simd_Generic.obj
 0001:0018d570       ?MatX_LowerTriangularSolve@idSIMD_Generic@@UAIXABVidMatX@@PAMPBMHH@Z 1018e570 f   idLib:Simd_Generic.obj
 0001:0018db20       ?MatX_LowerTriangularSolveTranspose@idSIMD_Generic@@UAIXABVidMatX@@PAMPBMH@Z 1018eb20 f   idLib:Simd_Generic.obj
 0001:0018e2d0       ?MatX_LDLTFactor@idSIMD_Generic@@UAI_NAAVidMatX@@AAVidVecX@@H@Z 1018f2d0 f   idLib:Simd_Generic.obj
 0001:0018ebf0       ?ConvertJointQuatsToJointMats@idSIMD_Generic@@UAIXPAVidJointMat@@PBVidJointQuat@@H@Z 1018fbf0 f   idLib:Simd_Generic.obj
 0001:0018ec70       ?TransformJoints@idSIMD_Generic@@UAIXPAVidJointMat@@PBHHH@Z 1018fc70 f   idLib:Simd_Generic.obj
 0001:0018ee60       ?UntransformJoints@idSIMD_Generic@@UAIXPAVidJointMat@@PBHHH@Z 1018fe60 f   idLib:Simd_Generic.obj
 0001:0018f050       ?TransformVerts@idSIMD_Generic@@UAIXPAVidDrawVert@@HPBVidJointMat@@PBVidVec4@@PBHH@Z 10190050 f   idLib:Simd_Generic.obj
 0001:0018f1e0       ?TracePointCull@idSIMD_Generic@@UAIXPAEAAEMPBVidPlane@@PBVidDrawVert@@H@Z 101901e0 f   idLib:Simd_Generic.obj
 0001:0018f360       ?DecalPointCull@idSIMD_Generic@@UAIXPAEPBVidPlane@@PBVidDrawVert@@H@Z 10190360 f   idLib:Simd_Generic.obj
 0001:0018f490       ?OverlayPointCull@idSIMD_Generic@@UAIXPAEPAVidVec2@@PBVidPlane@@PBVidDrawVert@@H@Z 10190490 f   idLib:Simd_Generic.obj
 0001:0018f7d0       ?DeriveTriPlanes@idSIMD_Generic@@UAIXPAVidPlane@@PBVidDrawVert@@HPBHH@Z 101907d0 f   idLib:Simd_Generic.obj
 0001:0018f990       ?DeriveTangents@idSIMD_Generic@@UAIXPAVidPlane@@PAVidDrawVert@@HPBHH@Z 10190990 f   idLib:Simd_Generic.obj
 0001:0018fec0       ?ConvertJointMatsToJointQuats@idSIMD_Generic@@UAIXPAVidJointQuat@@PBVidJointMat@@H@Z 10190ec0 f   idLib:Simd_Generic.obj
 0001:0018ff20       ?GetName@idSIMD_MMX@@UBIPBDXZ 10190f20 f   idLib:Simd_MMX.obj
 0001:0018ff30       ?MMX_Memcpy64B@@YAXPAXPBXH@Z 10190f30 f   idLib:Simd_MMX.obj
 0001:0018ffa0       ?MMX_Memcpy2kB@@YAXPAXPBXH@Z 10190fa0 f   idLib:Simd_MMX.obj
 0001:00190090       ?Memcpy@idSIMD_MMX@@UAIXPAXPBXH@Z 10191090 f   idLib:Simd_MMX.obj
 0001:00190190       ?Memset@idSIMD_MMX@@UAIXPAXHH@Z 10191190 f   idLib:Simd_MMX.obj
 0001:00190280       ?GetName@idSIMD_SSE@@UBIPBDXZ 10191280 f   idLib:Simd_SSE.obj
 0001:00190290       ?Add@idSIMD_SSE@@UAIXPAMMPBMH@Z 10191290 f   idLib:Simd_SSE.obj
 0001:001903c0       ?Add@idSIMD_SSE@@UAIXPAMPBM1H@Z 101913c0 f   idLib:Simd_SSE.obj
 0001:00190500       ?Sub@idSIMD_SSE@@UAIXPAMMPBMH@Z 10191500 f   idLib:Simd_SSE.obj
 0001:00190630       ?Sub@idSIMD_SSE@@UAIXPAMPBM1H@Z 10191630 f   idLib:Simd_SSE.obj
 0001:00190770       ?Mul@idSIMD_SSE@@UAIXPAMMPBMH@Z 10191770 f   idLib:Simd_SSE.obj
 0001:001908a0       ?Mul@idSIMD_SSE@@UAIXPAMPBM1H@Z 101918a0 f   idLib:Simd_SSE.obj
 0001:001909e0       ?Div@idSIMD_SSE@@UAIXPAMMPBMH@Z 101919e0 f   idLib:Simd_SSE.obj
 0001:00190b90       ?Div@idSIMD_SSE@@UAIXPAMPBM1H@Z 10191b90 f   idLib:Simd_SSE.obj
 0001:00190e50       ?MulAdd@idSIMD_SSE@@UAIXPAMMPBMH@Z 10191e50 f   idLib:Simd_SSE.obj
 0001:00191210       ?MulAdd@idSIMD_SSE@@UAIXPAMPBM1H@Z 10192210 f   idLib:Simd_SSE.obj
 0001:001912d0       ?MulSub@idSIMD_SSE@@UAIXPAMMPBMH@Z 101922d0 f   idLib:Simd_SSE.obj
 0001:001916e0       ?MulSub@idSIMD_SSE@@UAIXPAMPBM1H@Z 101926e0 f   idLib:Simd_SSE.obj
 0001:001917a0       ?Dot@idSIMD_SSE@@UAIXPAMABVidVec3@@PBV2@H@Z 101927a0 f   idLib:Simd_SSE.obj
 0001:00191870       ?Dot@idSIMD_SSE@@UAIXPAMABVidVec3@@PBVidPlane@@H@Z 10192870 f   idLib:Simd_SSE.obj
 0001:00191960       ?Dot@idSIMD_SSE@@UAIXPAMABVidVec3@@PBVidDrawVert@@H@Z 10192960 f   idLib:Simd_SSE.obj
 0001:00191a50       ?Dot@idSIMD_SSE@@UAIXPAMABVidPlane@@PBVidVec3@@H@Z 10192a50 f   idLib:Simd_SSE.obj
 0001:00191b30       ?Dot@idSIMD_SSE@@UAIXPAMABVidPlane@@PBV2@H@Z 10192b30 f   idLib:Simd_SSE.obj
 0001:00191c90       ?Dot@idSIMD_SSE@@UAIXPAMABVidPlane@@PBVidDrawVert@@H@Z 10192c90 f   idLib:Simd_SSE.obj
 0001:00191d90       ?Dot@idSIMD_SSE@@UAIXPAMPBVidVec3@@1H@Z 10192d90 f   idLib:Simd_SSE.obj
 0001:00191e80       ?Dot@idSIMD_SSE@@UAIXAAMPBM1H@Z 10192e80 f   idLib:Simd_SSE.obj
 0001:00191ff0       ?CmpGT@idSIMD_SSE@@UAIXPAEPBMMH@Z 10192ff0 f   idLib:Simd_SSE.obj
 0001:001921c0       ?CmpGT@idSIMD_SSE@@UAIXPAEEPBMMH@Z 101931c0 f   idLib:Simd_SSE.obj
 0001:001923d0       ?CmpGE@idSIMD_SSE@@UAIXPAEPBMMH@Z 101933d0 f   idLib:Simd_SSE.obj
 0001:001925a0       ?CmpGE@idSIMD_SSE@@UAIXPAEEPBMMH@Z 101935a0 f   idLib:Simd_SSE.obj
 0001:001927b0       ?CmpLT@idSIMD_SSE@@UAIXPAEPBMMH@Z 101937b0 f   idLib:Simd_SSE.obj
 0001:00192980       ?CmpLT@idSIMD_SSE@@UAIXPAEEPBMMH@Z 10193980 f   idLib:Simd_SSE.obj
 0001:00192b90       ?CmpLE@idSIMD_SSE@@UAIXPAEPBMMH@Z 10193b90 f   idLib:Simd_SSE.obj
 0001:00192d60       ?CmpLE@idSIMD_SSE@@UAIXPAEEPBMMH@Z 10193d60 f   idLib:Simd_SSE.obj
 0001:00192f70       ?MinMax@idSIMD_SSE@@UAIXAAM0PBMH@Z 10193f70 f   idLib:Simd_SSE.obj
 0001:00193230       ?MinMax@idSIMD_SSE@@UAIXAAVidVec2@@0PBV2@H@Z 10194230 f   idLib:Simd_SSE.obj
 0001:001932b0       ?MinMax@idSIMD_SSE@@UAIXAAVidVec3@@0PBV2@H@Z 101942b0 f   idLib:Simd_SSE.obj
 0001:00193380       ?MinMax@idSIMD_SSE@@UAIXAAVidVec3@@0PBVidDrawVert@@H@Z 10194380 f   idLib:Simd_SSE.obj
 0001:00193460       ?MinMax@idSIMD_SSE@@UAIXAAVidVec3@@0PBVidDrawVert@@PBHH@Z 10194460 f   idLib:Simd_SSE.obj
 0001:00193550       ?Clamp@idSIMD_SSE@@UAIXPAMPBMMMH@Z 10194550 f   idLib:Simd_SSE.obj
 0001:001937e0       ?ClampMin@idSIMD_SSE@@UAIXPAMPBMMH@Z 101947e0 f   idLib:Simd_SSE.obj
 0001:001939d0       ?ClampMax@idSIMD_SSE@@UAIXPAMPBMMH@Z 101949d0 f   idLib:Simd_SSE.obj
 0001:00193bc0       ?Zero16@idSIMD_SSE@@UAIXPAMH@Z 10194bc0 f   idLib:Simd_SSE.obj
 0001:00193bf0       ?Negate16@idSIMD_SSE@@UAIXPAMH@Z 10194bf0 f   idLib:Simd_SSE.obj
 0001:00193c30       ?Copy16@idSIMD_SSE@@UAIXPAMPBMH@Z 10194c30 f   idLib:Simd_SSE.obj
 0001:00193c70       ?Add16@idSIMD_SSE@@UAIXPAMPBM1H@Z 10194c70 f   idLib:Simd_SSE.obj
 0001:00193cb0       ?Sub16@idSIMD_SSE@@UAIXPAMPBM1H@Z 10194cb0 f   idLib:Simd_SSE.obj
 0001:00193cf0       ?Mul16@idSIMD_SSE@@UAIXPAMPBMMH@Z 10194cf0 f   idLib:Simd_SSE.obj
 0001:00193d30       ?AddAssign16@idSIMD_SSE@@UAIXPAMPBMH@Z 10194d30 f   idLib:Simd_SSE.obj
 0001:00193d70       ?SubAssign16@idSIMD_SSE@@UAIXPAMPBMH@Z 10194d70 f   idLib:Simd_SSE.obj
 0001:00193db0       ?MulAssign16@idSIMD_SSE@@UAIXPAMMH@Z 10194db0 f   idLib:Simd_SSE.obj
 0001:00193df0       ?ConvertJointMatsToJointQuats@idSIMD_SSE@@UAIXPAVidJointQuat@@PBVidJointMat@@H@Z 10194df0 f   idLib:Simd_SSE.obj
 0001:00194370       ?TransformJoints@idSIMD_SSE@@UAIXPAVidJointMat@@PBHHH@Z 10195370 f   idLib:Simd_SSE.obj
 0001:00194480       ?UntransformJoints@idSIMD_SSE@@UAIXPAVidJointMat@@PBHHH@Z 10195480 f   idLib:Simd_SSE.obj
 0001:00194590       ?TransformVerts@idSIMD_SSE@@UAIXPAVidDrawVert@@HPBVidJointMat@@PBVidVec4@@PBHH@Z 10195590 f   idLib:Simd_SSE.obj
 0001:00194650       ?TracePointCull@idSIMD_SSE@@UAIXPAEAAEMPBVidPlane@@PBVidDrawVert@@H@Z 10195650 f   idLib:Simd_SSE.obj
 0001:00194720       ?DecalPointCull@idSIMD_SSE@@UAIXPAEPBVidPlane@@PBVidDrawVert@@H@Z 10195720 f   idLib:Simd_SSE.obj
 0001:00194950       ?OverlayPointCull@idSIMD_SSE@@UAIXPAEPAVidVec2@@PBVidPlane@@PBVidDrawVert@@H@Z 10195950 f   idLib:Simd_SSE.obj
 0001:00194a80       ?DeriveTriPlanes@idSIMD_SSE@@UAIXPAVidPlane@@PBVidDrawVert@@HPBHH@Z 10195a80 f   idLib:Simd_SSE.obj
 0001:00194f10       ?DeriveUnsmoothedTangents@idSIMD_SSE@@UAIXPAVidDrawVert@@PBUdominantTri_s@@H@Z 10195f10 f   idLib:Simd_SSE.obj
 0001:00195640       ?NormalizeTangents@idSIMD_SSE@@UAIXPAVidDrawVert@@H@Z 10196640 f   idLib:Simd_SSE.obj
 0001:00195ba0       ?CreateTextureSpaceLightVectors@idSIMD_SSE@@UAIXPAVidVec3@@ABV2@PBVidDrawVert@@HPBHH@Z 10196ba0 f   idLib:Simd_SSE.obj
 0001:00195ea0       ?CreateSpecularTextureCoords@idSIMD_SSE@@UAIXPAVidVec4@@ABVidVec3@@1PBVidDrawVert@@HPBHH@Z 10196ea0 f   idLib:Simd_SSE.obj
 0001:00196350       ?CreateShadowCache@idSIMD_SSE@@UAIHPAVidVec4@@PAHABVidVec3@@PBVidDrawVert@@H@Z 10197350 f   idLib:Simd_SSE.obj
 0001:001964c0       ?CreateVertexProgramShadowCache@idSIMD_SSE@@UAIHPAVidVec4@@PBVidDrawVert@@H@Z 101974c0 f   idLib:Simd_SSE.obj
 0001:001967a0       ?UpSamplePCMTo44kHz@idSIMD_SSE@@UAIXPAMPBFHHH@Z 101977a0 f   idLib:Simd_SSE.obj
 0001:00196c20       ?UpSampleOGGTo44kHz@idSIMD_SSE@@UAIXPAMPBQBMHHH@Z 10197c20 f   idLib:Simd_SSE.obj
 0001:00196ce0       ?MixSoundTwoSpeakerMono@idSIMD_SSE@@UAIXPAMPBMHQBM2@Z 10197ce0 f   idLib:Simd_SSE.obj
 0001:00196dc0       ?MixSoundTwoSpeakerStereo@idSIMD_SSE@@UAIXPAMPBMHQBM2@Z 10197dc0 f   idLib:Simd_SSE.obj
 0001:00196e90       ?MixSoundSixSpeakerMono@idSIMD_SSE@@UAIXPAMPBMHQBM2@Z 10197e90 f   idLib:Simd_SSE.obj
 0001:00196ff0       ?MixSoundSixSpeakerStereo@idSIMD_SSE@@UAIXPAMPBMHQBM2@Z 10197ff0 f   idLib:Simd_SSE.obj
 0001:00197110       ?MixedSoundToSamples@idSIMD_SSE@@UAIXPAFPBMH@Z 10198110 f   idLib:Simd_SSE.obj
 0001:001971a0       ?MatX_MultiplyVecX@idSIMD_SSE@@UAIXAAVidVecX@@ABVidMatX@@ABV2@@Z 101981a0 f   idLib:Simd_SSE.obj
 0001:001980f0       ?MatX_MultiplyAddVecX@idSIMD_SSE@@UAIXAAVidVecX@@ABVidMatX@@ABV2@@Z 101990f0 f   idLib:Simd_SSE.obj
 0001:001991b0       ?MatX_MultiplySubVecX@idSIMD_SSE@@UAIXAAVidVecX@@ABVidMatX@@ABV2@@Z 1019a1b0 f   idLib:Simd_SSE.obj
 0001:0019a2a0       ?MatX_TransposeMultiplyVecX@idSIMD_SSE@@UAIXAAVidVecX@@ABVidMatX@@ABV2@@Z 1019b2a0 f   idLib:Simd_SSE.obj
 0001:0019b000       ?MatX_TransposeMultiplyAddVecX@idSIMD_SSE@@UAIXAAVidVecX@@ABVidMatX@@ABV2@@Z 1019c000 f   idLib:Simd_SSE.obj
 0001:0019bea0       ?MatX_TransposeMultiplySubVecX@idSIMD_SSE@@UAIXAAVidVecX@@ABVidMatX@@ABV2@@Z 1019cea0 f   idLib:Simd_SSE.obj
 0001:0019cd70       ?MatX_MultiplyMatX@idSIMD_SSE@@UAIXAAVidMatX@@ABV2@1@Z 1019dd70 f   idLib:Simd_SSE.obj
 0001:0019fd30       ?MatX_TransposeMultiplyMatX@idSIMD_SSE@@UAIXAAVidMatX@@ABV2@1@Z 101a0d30 f   idLib:Simd_SSE.obj
 0001:001a1c50       ?MatX_LowerTriangularSolve@idSIMD_SSE@@UAIXABVidMatX@@PAMPBMHH@Z 101a2c50 f   idLib:Simd_SSE.obj
 0001:001a2280       ?MatX_LowerTriangularSolveTranspose@idSIMD_SSE@@UAIXABVidMatX@@PAMPBMH@Z 101a3280 f   idLib:Simd_SSE.obj
 0001:001a2a30       ?MatX_LDLTFactor@idSIMD_SSE@@UAI_NAAVidMatX@@AAVidVecX@@H@Z 101a3a30 f   idLib:Simd_SSE.obj
 0001:001a3230       ?ConvertJointQuatsToJointMats@idSIMD_SSE@@UAIXPAVidJointMat@@PBVidJointQuat@@H@Z 101a4230 f   idLib:Simd_SSE.obj
 0001:001a3370       ?DeriveTangents@idSIMD_SSE@@UAIXPAVidPlane@@PAVidDrawVert@@HPBHH@Z 101a4370 f   idLib:Simd_SSE.obj
 0001:001a3fb0       ?BlendJoints@idSIMD_SSE@@UAIXPAVidJointQuat@@PBV2@MPBHH@Z 101a4fb0 f   idLib:Simd_SSE.obj
 0001:001a4db0       ?GetName@idSIMD_3DNow@@UBIPBDXZ 101a5db0 f   idLib:Simd_3DNow.obj
 0001:001a4dc0       ?Memcpy@idSIMD_3DNow@@UAIXPAXPBXH@Z 101a5dc0 f   idLib:Simd_3DNow.obj
 0001:001a4fb0       ?GetName@idSIMD_SSE2@@UBIPBDXZ 101a5fb0 f   idLib:Simd_SSE2.obj
 0001:001a4fc0       ?MixedSoundToSamples@idSIMD_SSE2@@UAIXPAFPBMH@Z 101a5fc0 f   idLib:Simd_SSE2.obj
 0001:001a5030       ?GetName@idSIMD_SSE3@@UBIPBDXZ 101a6030 f   idLib:Simd_SSE3.obj
 0001:001a5040       ?TransformVerts@idSIMD_SSE3@@UAIXPAVidDrawVert@@HPBVidJointMat@@PBVidVec4@@PBHH@Z 101a6040 f   idLib:Simd_SSE3.obj
 0001:001a50e0       ?SetSize@idSurface_Patch@@QAEXHH@Z 101a60e0 f   idLib:Surface_Patch.obj
 0001:001a51d0       ?ToJointQuat@idJointMat@@QBE?AVidJointQuat@@XZ 101a61d0 f   idLib:JointTransform.obj
 0001:001a53d6       __fpclear                  101a63d6 f   LIBCMT:fpinit.obj
 0001:001a53d6       __initp_misc_winxfltr      101a63d6 f   LIBCMT:winxfltr.obj
 0001:001a53d7       __cfltcvt_init             101a63d7 f   LIBCMT:fpinit.obj
 0001:001a5437       __fpmath                   101a6437 f   LIBCMT:fpinit.obj
 0001:001a5460       _ceil                      101a6460 f   LIBCMT:ceil_pentium4.obj
 0001:001a54a0       __ceil_pentium4            101a64a0 f   LIBCMT:ceil_pentium4.obj
 0001:001a5580       _cos                       101a6580 f   LIBCMT:cos.obj
 0001:001a55c0       __CIcos                    101a65c0 f   LIBCMT:cos.obj
 0001:001a55fb       __CIcos_default            101a65fb f   LIBCMT:cos.obj
 0001:001a560f       __cos_default              101a660f     LIBCMT:cos.obj
 0001:001a56a9       ?_JumpToContinuation@@YGXPAXPAUEHRegistrationNode@@@Z 101a66a9 f   LIBCMT:trnsctrl.obj
 0001:001a56d9       ?_CallMemberFunction2@@YGXPAX00H@Z 101a66d9 f   LIBCMT:trnsctrl.obj
 0001:001a56d9       ?_CallMemberFunction1@@YGXPAX00@Z 101a66d9 f   LIBCMT:trnsctrl.obj
 0001:001a56d9       ?_CallMemberFunction0@@YGXPAX0@Z 101a66d9 f   LIBCMT:trnsctrl.obj
 0001:001a56e0       ?_UnwindNestedFrames@@YGXPAUEHRegistrationNode@@PAUEHExceptionRecord@@@Z 101a66e0 f   LIBCMT:trnsctrl.obj
 0001:001a5732       ___CxxFrameHandler3        101a6732 f   LIBCMT:trnsctrl.obj
 0001:001a5798       ?_CallSETranslator@@YAHPAUEHExceptionRecord@@PAUEHRegistrationNode@@PAX2PBU_s_FuncInfo@@H1@Z 101a6798 f   LIBCMT:trnsctrl.obj
 0001:001a590a       ?_GetRangeOfTrysToCheck@@YAPBU_s_TryBlockMapEntry@@PBU_s_FuncInfo@@HHPAI1@Z 101a690a f   LIBCMT:trnsctrl.obj
 0001:001a597d       __CreateFrameInfo          101a697d f   LIBCMT:trnsctrl.obj
 0001:001a59a5       __IsExceptionObjectToBeDestroyed 101a69a5 f   LIBCMT:trnsctrl.obj
 0001:001a59c6       __FindAndUnlinkFrame       101a69c6 f   LIBCMT:trnsctrl.obj
 0001:001a5a12       ?_CallCatchBlock2@@YAPAXPAUEHRegistrationNode@@PBU_s_FuncInfo@@PAXHK@Z 101a6a12 f   LIBCMT:trnsctrl.obj
 0001:001a5a70       ??3@YAXPAX@Z               101a6a70 f   LIBCMT:delete.obj
 0001:001a5a80       __ftol2_sse                101a6a80 f   LIBCMT:ftol2.obj
 0001:001a5a89       __ftol2_pentium4           101a6a89 f   LIBCMT:ftol2.obj
 0001:001a5a9c       __ftol2_sse_excpt          101a6a9c f   LIBCMT:ftol2.obj
 0001:001a5ab6       __ftol2                    101a6ab6 f   LIBCMT:ftol2.obj
 0001:001a5b2b       ??0bad_alloc@std@@QAE@XZ   101a6b2b f i LIBCMT:new.obj
 0001:001a5b44       ??1bad_alloc@std@@UAE@XZ   101a6b44 f i LIBCMT:new.obj
 0001:001a5b4f       ??_Gbad_alloc@std@@UAEPAXI@Z 101a6b4f f i LIBCMT:new.obj
 0001:001a5b4f       ??_Ebad_alloc@std@@UAEPAXI@Z 101a6b4f f i LIBCMT:new.obj
 0001:001a5b71       ??0bad_alloc@std@@QAE@ABV01@@Z 101a6b71 f i LIBCMT:new.obj
 0001:001a5b89       ??2@YAPAXI@Z               101a6b89 f   LIBCMT:new.obj
 0001:001a5bf3       ??0_LocaleUpdate@@QAE@PAUlocaleinfo_struct@@@Z 101a6bf3 f i LIBCMT:atof.obj
 0001:001a5c75       __atof_l                   101a6c75 f   LIBCMT:atof.obj
 0001:001a5d1e       _atof                      101a6d1e f   LIBCMT:atof.obj
 0001:001a5d2c       _atol                      101a6d2c f   LIBCMT:atox.obj
 0001:001a5d3d       _atoi                      101a6d3d f   LIBCMT:atox.obj
 0001:001a5d42       ?__ArrayUnwind@@YGXPAXIHP6EX0@Z@Z 101a6d42 f   LIBCMT:ehvecdtr.obj
 0001:001a5da0       ??_M@YGXPAXIHP6EX0@Z@Z     101a6da0 f   LIBCMT:ehvecdtr.obj
 0001:001a5e10       _memcpy                    101a6e10 f   LIBCMT:memcpy.obj
 0001:001a6175       ??_L@YGXPAXIHP6EX0@Z1@Z    101a7175 f   LIBCMT:ehvecctr.obj
 0001:001a61da       ??1type_info@@UAE@XZ       101a71da f   LIBCMT:typinfo.obj
 0001:001a61e8       ??_Etype_info@@UAEPAXI@Z   101a71e8 f i LIBCMT:typinfo.obj
 0001:001a61e8       ??_Gtype_info@@UAEPAXI@Z   101a71e8 f i LIBCMT:typinfo.obj
 0001:001a6204       ??8type_info@@QBE_NABV0@@Z 101a7204 f   LIBCMT:typinfo.obj
 0001:001a62cc       ___onexitinit              101a72cc f   LIBCMT:onexit.obj
 0001:001a62fb       __onexit                   101a72fb f   LIBCMT:onexit.obj
 0001:001a6337       _atexit                    101a7337 f   LIBCMT:onexit.obj
 0001:001a6350       __chkstk                   101a7350 f   LIBCMT:chkstk.obj
 0001:001a6350       __alloca_probe             101a7350     LIBCMT:chkstk.obj
 0001:001a63e3       _sscanf                    101a73e3 f   LIBCMT:sscanf.obj
 0001:001a6410       __alloca_probe_16          101a7410 f   LIBCMT:alloca16.obj
 0001:001a6426       __alloca_probe_8           101a7426     LIBCMT:alloca16.obj
 0001:001a643c       _sprintf                   101a743c f   LIBCMT:sprintf.obj
 0001:001a64c0       _strstr                    101a74c0 f   LIBCMT:strstr.obj
 0001:001a6550       _memset                    101a7550 f   LIBCMT:memset.obj
 0001:001a65d0       _sin                       101a75d0 f   LIBCMT:sin.obj
 0001:001a6610       __CIsin                    101a7610 f   LIBCMT:sin.obj
 0001:001a664b       __CIsin_default            101a764b f   LIBCMT:sin.obj
 0001:001a665f       __sin_default              101a765f     LIBCMT:sin.obj
 0001:001a6700       __CIsqrt                   101a7700 f   LIBCMT:sqrt.obj
 0001:001a6714       _sqrt                      101a7714     LIBCMT:sqrt.obj
 0001:001a67ba       __purecall                 101a77ba f   LIBCMT:purevirt.obj
 0001:001a67f0       _floor                     101a77f0 f   LIBCMT:floor_pentium4.obj
 0001:001a6830       __floor_pentium4           101a7830 f   LIBCMT:floor_pentium4.obj
 0001:001a6920       _atan2                     101a7920 f   LIBCMT:87ctriga.obj
 0001:001a692a       __CIatan2                  101a792a f   LIBCMT:87ctriga.obj
 0001:001a6940       _tan                       101a7940 f   LIBCMT:tan.obj
 0001:001a6980       __CItan                    101a7980 f   LIBCMT:tan.obj
 0001:001a69bb       __CItan_default            101a79bb f   LIBCMT:tan.obj
 0001:001a69cf       __tan_default              101a79cf     LIBCMT:tan.obj
 0001:001a6a70       _strncpy                   101a7a70 f   LIBCMT:strncpy.obj
 0001:001a6c60       _qsort                     101a7c60 f   LIBCMT:qsort.obj
 0001:001a6f20       _strchr                    101a7f20 f   LIBCMT:strchr.obj
 0001:001a6f26       ___from_strstr_to_strchr   101a7f26     LIBCMT:strchr.obj
 0001:001a6fe0       _memmove                   101a7fe0 f   LIBCMT:memmove.obj
 0001:001a7350       _acos                      101a8350 f   LIBCMT:acos.obj
 0001:001a7390       __CIacos                   101a8390 f   LIBCMT:acos.obj
 0001:001a73cb       __CIacos_default           101a83cb f   LIBCMT:acos.obj
 0001:001a73df       __acos_default             101a83df     LIBCMT:acos.obj
 0001:001a76c1       _strtol                    101a86c1 f   LIBCMT:strtol.obj
 0001:001a76ea       __isdigit_l                101a86ea f i LIBCMT:_ctype.obj
 0001:001a7739       _isdigit                   101a8739 f i LIBCMT:_ctype.obj
 0001:001a7762       __isxdigit_l               101a8762 f i LIBCMT:_ctype.obj
 0001:001a77b6       _isxdigit                  101a87b6 f i LIBCMT:_ctype.obj
 0001:001a77e1       __isspace_l                101a87e1 f i LIBCMT:_ctype.obj
 0001:001a7830       _isspace                   101a8830 f i LIBCMT:_ctype.obj
 0001:001a7859       __vsprintf_l               101a8859 f   LIBCMT:vsprintf.obj
 0001:001a78d5       _vsprintf                  101a88d5 f   LIBCMT:vsprintf.obj
 0001:001a78ec       __CxxThrowException@8      101a88ec f   LIBCMT:throw.obj
 0001:001a7936       __CRT_INIT@12              101a8936 f   LIBCMT:dllcrt0.obj
 0001:001a7c05       __DllMainCRTStartup@12     101a8c05 f   LIBCMT:dllcrt0.obj
 0001:001a7c30       _asin                      101a8c30 f   LIBCMT:asin.obj
 0001:001a7c70       __CIasin                   101a8c70 f   LIBCMT:asin.obj
 0001:001a7cab       __CIasin_default           101a8cab f   LIBCMT:asin.obj
 0001:001a7cbf       __asin_default             101a8cbf     LIBCMT:asin.obj
 0001:001a7d76       __toupper_l                101a8d76 f   LIBCMT:toupper.obj
 0001:001a7e8e       _toupper                   101a8e8e f   LIBCMT:toupper.obj
 0001:001a7eb5       __vsnprintf_l              101a8eb5 f   LIBCMT:vsnprint.obj
 0001:001a7f66       __vsnprintf                101a8f66 f   LIBCMT:vsnprint.obj
 0001:001a7f90       _atan                      101a8f90 f   LIBCMT:atan.obj
 0001:001a7fd0       __CIatan                   101a8fd0 f   LIBCMT:atan.obj
 0001:001a800b       __CIatan_default           101a900b f   LIBCMT:atan.obj
 0001:001a801f       __atan_default             101a901f     LIBCMT:atan.obj
 0001:001a80b0       _exp                       101a90b0 f   LIBCMT:87ctran.obj
 0001:001a80ec       __CIexp                    101a90ec f   LIBCMT:87ctran.obj
 0001:001a8127       __exp_default              101a9127 f   LIBCMT:87ctran.obj
 0001:001a8131       __CIexp_default            101a9131 f   LIBCMT:87ctran.obj
 0001:001a8140       _log                       101a9140 f   LIBCMT:log.obj
 0001:001a8180       __CIlog                    101a9180 f   LIBCMT:log.obj
 0001:001a81bb       __CIlog_default            101a91bb f   LIBCMT:log.obj
 0001:001a81cf       __log_default              101a91cf     LIBCMT:log.obj
 0001:001a8290       _pow                       101a9290 f   LIBCMT:pow.obj
 0001:001a82d0       __CIpow                    101a92d0 f   LIBCMT:pow.obj
 0001:001a830b       __CIpow_default            101a930b f   LIBCMT:pow.obj
 0001:001a8324       __pow_default              101a9324     LIBCMT:pow.obj
 0001:001a851a       _V6_HeapAlloc              101a951a f   LIBCMT:malloc.obj
 0001:001a8569       _malloc                    101a9569 f   LIBCMT:malloc.obj
 0001:001a862c       _free                      101a962c f   LIBCMT:free.obj
 0001:001a86ba       __ctime64                  101a96ba f   LIBCMT:ctime64.obj
 0001:001a871b       __time64                   101a971b f   LIBCMT:time64.obj
 0001:001a8757       __forcdecpt_l              101a9757 f   LIBCMT:cvt.obj
 0001:001a87c8       __cropzeros_l              101a97c8 f   LIBCMT:cvt.obj
 0001:001a8848       __positive                 101a9848 f   LIBCMT:cvt.obj
 0001:001a885e       __fassign_l                101a985e f   LIBCMT:cvt.obj
 0001:001a889e       __fassign                  101a989e f   LIBCMT:cvt.obj
 0001:001a88d2       __forcdecpt                101a98d2 f   LIBCMT:cvt.obj
 0001:001a88e0       __cropzeros                101a98e0 f   LIBCMT:cvt.obj
 0001:001a8a5b       __cftoe_l                  101a9a5b f   LIBCMT:cvt.obj
 0001:001a8b29       __cftoe                    101a9b29 f   LIBCMT:cvt.obj
 0001:001a8b47       __cftoa_l                  101a9b47 f   LIBCMT:cvt.obj
 0001:001a8fad       __cftof_l                  101a9fad f   LIBCMT:cvt.obj
 0001:001a9066       __cftog_l                  101aa066 f   LIBCMT:cvt.obj
 0001:001a915e       __cfltcvt_l                101aa15e f   LIBCMT:cvt.obj
 0001:001a91e4       __cfltcvt                  101aa1e4 f   LIBCMT:cvt.obj
